; generated by ARM C/C++ Compiler, 4.1 [Build 481]
; commandline ArmCC [--debug -c --asm --interleave -o.\EXE\snmp_data_file.o --depend=.\EXE\snmp_data_file.d --cpu=Cortex-M3 --apcs=interwork -O1 -IC:\Keil\ARM\INC -IC:\Keil\ARM\INC\NXP\LPC17xx -D__MICROLIB -DUKU_220_IPS_TERMOKOMPENSAT -DUKU2071x -DAPSENERGIA --omf_browse=.\EXE\snmp_data_file.crf snmp_data_file.c]
                          THUMB

                          AREA ||.text||, CODE, READONLY, ALIGN=2

                  snmp_data PROC
;;;259    //-----------------------------------------------
;;;260    void snmp_data (void) 
000000  e92d5ff0          PUSH     {r4-r12,lr}
;;;261    {
;;;262    char i;
;;;263    
;;;264    snmp_mains_power_voltage=net_U;
000004  4cfe              LDR      r4,|L1.1024|
000006  4fff              LDR      r7,|L1.1028|
000008  8820              LDRH     r0,[r4,#0]  ; net_U
00000a  8438              STRH     r0,[r7,#0x20]
;;;265    #ifdef UKU_220_IPS_TERMOKOMPENSAT
;;;266    snmp_mains_power_frequency=net_F3;
00000c  48fe              LDR      r0,|L1.1032|
00000e  8800              LDRH     r0,[r0,#0]  ; net_F3
000010  8478              STRH     r0,[r7,#0x22]
;;;267    #else
;;;268    snmp_mains_power_frequency=net_F;
;;;269    #endif
;;;270    snmp_mains_power_voltage_phaseA=net_Ua;
000012  48fe              LDR      r0,|L1.1036|
000014  8800              LDRH     r0,[r0,#0]  ; net_Ua
000016  84b8              STRH     r0,[r7,#0x24]
;;;271    snmp_mains_power_voltage_phaseB=net_Ub;
000018  48fd              LDR      r0,|L1.1040|
00001a  8800              LDRH     r0,[r0,#0]  ; net_Ub
00001c  84f8              STRH     r0,[r7,#0x26]
;;;272    snmp_mains_power_voltage_phaseC=net_Uc;
00001e  48fd              LDR      r0,|L1.1044|
000020  8800              LDRH     r0,[r0,#0]  ; net_Uc
000022  8538              STRH     r0,[r7,#0x28]
;;;273    
;;;274    /*
;;;275    snmp_mains_power_status=0; 
;;;276    #if(UKU_VERSION==900)
;;;277    snmp_mains_power_status=2;
;;;278    #endif
;;;279    if(St&0x01)snmp_mains_power_status|=0x01;
;;;280    if(St&0x01)snmp_mains_power_alarm=1;
;;;281    
;;;282    
;;;283    
;;;284    
;;;285    
;;;286    
;;;287    for(i=0;i<snmp_numofevents;i++)event2snmp(i);
;;;288    //snmp_bpsnumber[0]=1;
;;;289    //snmp_bpsnumber[1]=2;
;;;290    
;;;291    snmp_sernum=AUSW_MAIN_NUMBER;
;;;292    snmp_sernum_lsb=0x1122;
;;;293    snmp_sernum_msb=0x3344;
;;;294    snmp_device_code=AUSW_MAIN;
;;;295    
;;;296    //memcpy(snmp_location,"lkhg;la",);
;;;297    
;;;298    
;;;299    snmp_numofbat=1;
;;;300    
;;;301    */
;;;302    
;;;303    snmp_load_voltage=load_U;
000024  48fc              LDR      r0,|L1.1048|
000026  8800              LDRH     r0,[r0,#0]  ; load_U
000028  8578              STRH     r0,[r7,#0x2a]
;;;304    snmp_load_current=load_I;
00002a  48fc              LDR      r0,|L1.1052|
00002c  8800              LDRH     r0,[r0,#0]  ; load_I
00002e  85b8              STRH     r0,[r7,#0x2c]
;;;305    snmp_numofbat=NUMBAT;
000030  48fb              LDR      r0,|L1.1056|
000032  8800              LDRH     r0,[r0,#0]  ; NUMBAT
000034  8278              STRH     r0,[r7,#0x12]
;;;306    snmp_numofbps=NUMIST;
000036  48fb              LDR      r0,|L1.1060|
000038  8800              LDRH     r0,[r0,#0]  ; NUMIST
00003a  82b8              STRH     r0,[r7,#0x14]
;;;307    snmp_numofinv=NUMINV;
00003c  48fa              LDR      r0,|L1.1064|
00003e  8800              LDRH     r0,[r0,#0]  ; NUMINV
000040  82f8              STRH     r0,[r7,#0x16]
;;;308    snmp_numofavt=NUMAVT;
000042  48fa              LDR      r0,|L1.1068|
000044  8800              LDRH     r0,[r0,#0]  ; NUMAVT
000046  8338              STRH     r0,[r7,#0x18]
;;;309    snmp_numofdt=NUMDT;
000048  48f9              LDR      r0,|L1.1072|
00004a  8800              LDRH     r0,[r0,#0]  ; NUMDT
00004c  8378              STRH     r0,[r7,#0x1a]
;;;310    snmp_numofsk=NUMSK;
00004e  48f9              LDR      r0,|L1.1076|
000050  8800              LDRH     r0,[r0,#0]  ; NUMSK
000052  83b8              STRH     r0,[r7,#0x1c]
;;;311    snmp_numofevents=lc640_read_int(CNT_EVENT_LOG);
000054  f6406002          MOV      r0,#0xe02
000058  f7fffffe          BL       lc640_read_int
00005c  83f8              STRH     r0,[r7,#0x1e]
;;;312    
;;;313    snmp_energy_vvod_phase_a=Uvv_eb2[0];
00005e  48f6              LDR      r0,|L1.1080|
000060  8800              LDRH     r0,[r0,#0]  ; Uvv_eb2
000062  86b8              STRH     r0,[r7,#0x34]
;;;314    snmp_energy_vvod_phase_b=Uvv_eb2[1];
000064  48f4              LDR      r0,|L1.1080|
000066  8840              LDRH     r0,[r0,#2]  ; Uvv_eb2
000068  86f8              STRH     r0,[r7,#0x36]
;;;315    snmp_energy_vvod_phase_c=Uvv_eb2[2];
00006a  48f3              LDR      r0,|L1.1080|
00006c  8880              LDRH     r0,[r0,#4]  ; Uvv_eb2
00006e  8738              STRH     r0,[r7,#0x38]
;;;316    snmp_energy_pes_phase_a=Upes_eb2[0];
000070  48f2              LDR      r0,|L1.1084|
000072  8801              LDRH     r1,[r0,#0]  ; Upes_eb2
000074  8779              STRH     r1,[r7,#0x3a]
;;;317    snmp_energy_pes_phase_b=Upes_eb2[1];
000076  8841              LDRH     r1,[r0,#2]  ; Upes_eb2
000078  87b9              STRH     r1,[r7,#0x3c]
;;;318    snmp_energy_pes_phase_c=Upes_eb2[2];
00007a  8880              LDRH     r0,[r0,#4]  ; Upes_eb2
00007c  87f8              STRH     r0,[r7,#0x3e]
;;;319    
;;;320    #ifdef UKU_KONTUR
;;;321    snmp_energy_vvod_phase_a=Uvv0;
;;;322    snmp_energy_pes_phase_a=Uvv[1];
;;;323    #endif
;;;324    
;;;325    snmp_energy_total_energy=power_summary;
00007e  48f0              LDR      r0,|L1.1088|
000080  f1070880          ADD      r8,r7,#0x80
000084  6800              LDR      r0,[r0,#0]  ; power_summary
000086  f8c8004c          STR      r0,[r8,#0x4c]  ; snmp_energy_total_energy
;;;326    snmp_energy_current_energy=power_current;
00008a  48ee              LDR      r0,|L1.1092|
00008c  8800              LDRH     r0,[r0,#0]  ; power_current
00008e  f8a70042          STRH     r0,[r7,#0x42]
;;;327    snmp_energy_input_voltage=net_U;
000092  8820              LDRH     r0,[r4,#0]  ; net_U
000094  f8a70040          STRH     r0,[r7,#0x40]
;;;328    
;;;329    snmp_bat_number[0]=1;
000098  f1070cac          ADD      r12,r7,#0xac
00009c  2001              MOVS     r0,#1
00009e  f8ac0000          STRH     r0,[r12,#0]
;;;330    snmp_bat_voltage[0]=bat[0]._Ub;
0000a2  4ae9              LDR      r2,|L1.1096|
0000a4  f10706b0          ADD      r6,r7,#0xb0
0000a8  8851              LDRH     r1,[r2,#2]  ; bat
0000aa  8031              STRH     r1,[r6,#0]
;;;331    snmp_bat_part_voltage[0]=bat[0]._Ubm;
0000ac  f1060118          ADD      r1,r6,#0x18
0000b0  8893              LDRH     r3,[r2,#4]  ; bat
0000b2  800b              STRH     r3,[r1,#0]
;;;332    snmp_bat_current[0]=bat[0]._Ib;
0000b4  1d35              ADDS     r5,r6,#4
0000b6  8911              LDRH     r1,[r2,#8]  ; bat
0000b8  8029              STRH     r1,[r5,#0]
;;;333    
;;;334    #ifdef UKU_220_IPS_TERMOKOMPENSAT
;;;335    if(((AUSW_MAIN==22063)||(AUSW_MAIN==22023))&&(bps[8]._device==dIBAT_METR))
0000ba  49e4              LDR      r1,|L1.1100|
0000bc  8809              LDRH     r1,[r1,#0]  ; AUSW_MAIN
0000be  f5a143ac          SUB      r3,r1,#0x5600
0000c2  3b2f              SUBS     r3,r3,#0x2f
0000c4  d001              BEQ      |L1.202|
0000c6  3328              ADDS     r3,r3,#0x28
0000c8  d107              BNE      |L1.218|
                  |L1.202|
0000ca  49e1              LDR      r1,|L1.1104|
0000cc  f89112e0          LDRB     r1,[r1,#0x2e0]  ; bps
0000d0  2909              CMP      r1,#9
0000d2  d102              BNE      |L1.218|
;;;336    	{
;;;337    	snmp_bat_current[0]=Ib_ips_termokompensat;
0000d4  49df              LDR      r1,|L1.1108|
0000d6  8809              LDRH     r1,[r1,#0]  ; Ib_ips_termokompensat
0000d8  8029              STRH     r1,[r5,#0]
                  |L1.218|
;;;338    	}
;;;339    #endif
;;;340    
;;;341    snmp_bat_temperature[0]=bat[0]._Tb;
0000da  f8dfb328          LDR      r11,|L1.1028|
0000de  8951              LDRH     r1,[r2,#0xa]  ; bat
0000e0  f10b0bb8          ADD      r11,r11,#0xb8
0000e4  f8ab1000          STRH     r1,[r11,#0]
;;;342    if(BAT_C_REAL[0]==0x5555)snmp_bat_capacity[0]=BAT_C_NOM[0];
0000e8  f8dfa36c          LDR      r10,|L1.1112|
0000ec  f2455e55          MOV      lr,#0x5555
0000f0  f10b0304          ADD      r3,r11,#4
0000f4  f9ba1000          LDRSH    r1,[r10,#0]  ; BAT_C_REAL
0000f8  4571              CMP      r1,lr
0000fa  d103              BNE      |L1.260|
0000fc  49d7              LDR      r1,|L1.1116|
0000fe  8809              LDRH     r1,[r1,#0]  ; BAT_C_NOM
000100  8019              STRH     r1,[r3,#0]
000102  e000              B        |L1.262|
                  |L1.260|
;;;343    else snmp_bat_capacity[0]=BAT_C_REAL[0];
000104  8019              STRH     r1,[r3,#0]
                  |L1.262|
;;;344    snmp_bat_charge[0]=bat[0]._zar;
000106  49bf              LDR      r1,|L1.1028|
000108  8a14              LDRH     r4,[r2,#0x10]  ; bat
00010a  31c0              ADDS     r1,r1,#0xc0
00010c  800c              STRH     r4,[r1,#0]
;;;345    snmp_bat_status[0]=bat[0]._av;
00010e  4cbd              LDR      r4,|L1.1028|
000110  f892103d          LDRB     r1,[r2,#0x3d]  ; bat
000114  34c4              ADDS     r4,r4,#0xc4
000116  8021              STRH     r1,[r4,#0]
;;;346    if(BAT_IS_ON[0]!=bisON)snmp_bat_status[0]=0xff;
000118  49d1              LDR      r1,|L1.1120|
00011a  f8919000          LDRB     r9,[r1,#0]  ; BAT_IS_ON
00011e  21ff              MOVS     r1,#0xff
000120  f1b90f55          CMP      r9,#0x55
000124  d000              BEQ      |L1.296|
000126  8021              STRH     r1,[r4,#0]
                  |L1.296|
;;;347    
;;;348    snmp_bat_number[1]=2;
000128  f04f0902          MOV      r9,#2
00012c  f8ac9002          STRH     r9,[r12,#2]
;;;349    snmp_bat_voltage[1]=bat[1]._Ub;
000130  f8b2c04e          LDRH     r12,[r2,#0x4e]  ; bat
000134  f8a6c002          STRH     r12,[r6,#2]
;;;350    snmp_bat_part_voltage[1]=bat[1]._Ubm;
000138  4eb2              LDR      r6,|L1.1028|
00013a  f8b2c050          LDRH     r12,[r2,#0x50]  ; bat
00013e  36c8              ADDS     r6,r6,#0xc8
000140  f8a6c002          STRH     r12,[r6,#2]
;;;351    snmp_bat_current[1]=bat[1]._Ib;
000144  f8b26054          LDRH     r6,[r2,#0x54]  ; bat
000148  806e              STRH     r6,[r5,#2]
;;;352    snmp_bat_temperature[1]=bat[1]._Tb;
00014a  f8b25056          LDRH     r5,[r2,#0x56]  ; bat
00014e  f8ab5002          STRH     r5,[r11,#2]
;;;353    if(BAT_C_REAL[1]==0x5555)snmp_bat_capacity[1]=BAT_C_NOM[1];
000152  f9ba5002          LDRSH    r5,[r10,#2]  ; BAT_C_REAL
000156  4575              CMP      r5,lr
000158  d103              BNE      |L1.354|
00015a  4dc0              LDR      r5,|L1.1116|
00015c  886d              LDRH     r5,[r5,#2]  ; BAT_C_NOM
00015e  805d              STRH     r5,[r3,#2]
000160  e000              B        |L1.356|
                  |L1.354|
;;;354    else snmp_bat_capacity[1]=BAT_C_REAL[1];
000162  805d              STRH     r5,[r3,#2]
                  |L1.356|
;;;355    snmp_bat_charge[1]=bat[1]._zar;
000164  4ba7              LDR      r3,|L1.1028|
000166  f8b2505c          LDRH     r5,[r2,#0x5c]  ; bat
00016a  33c0              ADDS     r3,r3,#0xc0
00016c  805d              STRH     r5,[r3,#2]
;;;356    snmp_bat_status[1]=bat[1]._av;
00016e  f8922089          LDRB     r2,[r2,#0x89]  ; bat
000172  8062              STRH     r2,[r4,#2]
;;;357    if(BAT_IS_ON[1]!=bisON)snmp_bat_status[1]=0xff;
000174  4aba              LDR      r2,|L1.1120|
000176  7852              LDRB     r2,[r2,#1]  ; BAT_IS_ON
000178  2a55              CMP      r2,#0x55
00017a  d000              BEQ      |L1.382|
00017c  8061              STRH     r1,[r4,#2]
                  |L1.382|
;;;358    
;;;359    
;;;360    
;;;361    snmp_bps_number[0]=1;
00017e  4cb9              LDR      r4,|L1.1124|
000180  8020              STRH     r0,[r4,#0]
;;;362    snmp_bps_voltage[0]=bps[0]._Uii;
000182  4bb3              LDR      r3,|L1.1104|
000184  f1040510          ADD      r5,r4,#0x10
000188  69da              LDR      r2,[r3,#0x1c]  ; bps
00018a  802a              STRH     r2,[r5,#0]
;;;363    snmp_bps_current[0]=bps[0]._Ii;
00018c  f1040620          ADD      r6,r4,#0x20
000190  6a5a              LDR      r2,[r3,#0x24]  ; bps
000192  8032              STRH     r2,[r6,#0]
;;;364    snmp_bps_temperature[0]=bps[0]._Ti;
000194  f1040c30          ADD      r12,r4,#0x30
000198  6a9a              LDR      r2,[r3,#0x28]  ; bps
00019a  f8ac2000          STRH     r2,[r12,#0]
;;;365    snmp_bps_stat[0]=bps[0]._av;
00019e  f1040240          ADD      r2,r4,#0x40
0001a2  f893a001          LDRB     r10,[r3,#1]  ; bps
0001a6  f8a2a000          STRH     r10,[r2,#0]
;;;366    if(!(NUMIST>0))snmp_bps_stat[0]=0xff;												//Байт состояния БПСа.
0001aa  f8dfa278          LDR      r10,|L1.1060|
0001ae  f9baa000          LDRSH    r10,[r10,#0]  ; NUMIST
0001b2  f1ba0f00          CMP      r10,#0
0001b6  dc00              BGT      |L1.442|
0001b8  8011              STRH     r1,[r2,#0]
                  |L1.442|
;;;367    
;;;368    /*if(St_[0]&(1<<2))snmp_bps_stat[0]=(1<<3); 							//авария по Umin
;;;369    else if(St_[0]&(1<<3))snmp_bps_stat[0]=(1<<2); 						//авария по Umax
;;;370    else if(bps[0]._av&(1<<0))snmp_bps_stat[0]=(1<<1); 						//авария по Tmax
;;;371    else if(St_[0]&(1<<5))snmp_bps_stat[0]=(1<<5); 						//заблокирован
;;;372    else if((!(St_[0]&0x3c))&&(!St&0x01)&&(!OFFBP1))snmp_bps_stat[0]=1; 		//Работает
;;;373    */
;;;374    
;;;375    snmp_bps_number[1]=2;
0001ba  f8a49002          STRH     r9,[r4,#2]
;;;376    snmp_bps_voltage[1]=bps[1]._Uii;
0001be  f8d3b078          LDR      r11,[r3,#0x78]  ; bps
0001c2  f8a5b002          STRH     r11,[r5,#2]
;;;377    snmp_bps_current[1]=bps[1]._Ii;
0001c6  f8d3b080          LDR      r11,[r3,#0x80]  ; bps
0001ca  f8a6b002          STRH     r11,[r6,#2]
;;;378    snmp_bps_temperature[1]=bps[1]._Ti;
0001ce  f8d3b084          LDR      r11,[r3,#0x84]  ; bps
0001d2  f8acb002          STRH     r11,[r12,#2]
;;;379    snmp_bps_stat[1]=bps[1]._av;
0001d6  f893b05d          LDRB     r11,[r3,#0x5d]  ; bps
0001da  f8a2b002          STRH     r11,[r2,#2]
;;;380    if(!(NUMIST>1))snmp_bps_stat[1]=0xff;												//Байт состояния БПСа.
0001de  f1ba0f01          CMP      r10,#1
0001e2  dc00              BGT      |L1.486|
0001e4  8051              STRH     r1,[r2,#2]
                  |L1.486|
;;;381    /*if(St_[1]&(1<<2))snmp_bps_stat[1]=(1<<3); 							//авария по Umin
;;;382    else if(St_[1]&(1<<3))snmp_bps_stat[1]=(1<<2); 						//авария по Umax
;;;383    else if(St_[1]&(1<<4))snmp_bps_stat[1]=(1<<1); 						//авария по Tmax
;;;384    else if(St_[1]&(1<<5))snmp_bps_stat[1]=(1<<5); 						//заблокирован
;;;385    else if((!(St_[1]&0x3c))&&(!St&0x01)&&(!OFFBP2))snmp_bps_stat[1]=1; 		//Работает
;;;386    */
;;;387    
;;;388    snmp_bps_number[2]=3;
0001e6  f04f0e03          MOV      lr,#3
0001ea  f8a4e004          STRH     lr,[r4,#4]
;;;389    snmp_bps_voltage[2]=bps[2]._Uii;
0001ee  f8d3b0d4          LDR      r11,[r3,#0xd4]  ; bps
0001f2  f8a5b004          STRH     r11,[r5,#4]
;;;390    snmp_bps_current[2]=bps[2]._Ii;
0001f6  f8d3b0dc          LDR      r11,[r3,#0xdc]  ; bps
0001fa  f8a6b004          STRH     r11,[r6,#4]
;;;391    snmp_bps_temperature[2]=bps[2]._Ti;
0001fe  f8d3b0e0          LDR      r11,[r3,#0xe0]  ; bps
000202  f8acb004          STRH     r11,[r12,#4]
;;;392    snmp_bps_stat[2]=bps[2]._av;
000206  f893b0b9          LDRB     r11,[r3,#0xb9]  ; bps
00020a  f8a2b004          STRH     r11,[r2,#4]
;;;393    if(!(NUMIST>2))snmp_bps_stat[2]=0xff;
00020e  f1ba0f02          CMP      r10,#2
000212  dc00              BGT      |L1.534|
000214  8091              STRH     r1,[r2,#4]
                  |L1.534|
;;;394    
;;;395    snmp_bps_number[3]=4;
000216  f04f0b04          MOV      r11,#4
00021a  f8a4b006          STRH     r11,[r4,#6]
;;;396    snmp_bps_voltage[3]=bps[3]._Uii;
00021e  f8d3b130          LDR      r11,[r3,#0x130]  ; bps
000222  f8a5b006          STRH     r11,[r5,#6]
;;;397    snmp_bps_current[3]=bps[3]._Ii;
000226  f8d3b138          LDR      r11,[r3,#0x138]  ; bps
00022a  f8a6b006          STRH     r11,[r6,#6]
;;;398    snmp_bps_temperature[3]=bps[3]._Ti;
00022e  f8d3b13c          LDR      r11,[r3,#0x13c]  ; bps
000232  f8acb006          STRH     r11,[r12,#6]
;;;399    snmp_bps_stat[3]=bps[3]._av;
000236  f893b115          LDRB     r11,[r3,#0x115]  ; bps
00023a  f8a2b006          STRH     r11,[r2,#6]
;;;400    if(!(NUMIST>3))snmp_bps_stat[3]=0xff;
00023e  f1ba0f03          CMP      r10,#3
000242  dc00              BGT      |L1.582|
000244  80d1              STRH     r1,[r2,#6]
                  |L1.582|
;;;401    
;;;402    snmp_bps_number[4]=5;
000246  f04f0b05          MOV      r11,#5
00024a  f8a4b008          STRH     r11,[r4,#8]
;;;403    snmp_bps_voltage[4]=bps[4]._Uii;
00024e  f8d3b18c          LDR      r11,[r3,#0x18c]  ; bps
000252  f8a5b008          STRH     r11,[r5,#8]
;;;404    snmp_bps_current[4]=bps[4]._Ii;
000256  f8d3b194          LDR      r11,[r3,#0x194]  ; bps
00025a  f8a6b008          STRH     r11,[r6,#8]
;;;405    snmp_bps_temperature[4]=bps[4]._Ti;
00025e  f8d3b198          LDR      r11,[r3,#0x198]  ; bps
000262  f8acb008          STRH     r11,[r12,#8]
;;;406    snmp_bps_stat[4]=bps[4]._av;
000266  f893b171          LDRB     r11,[r3,#0x171]  ; bps
00026a  f8a2b008          STRH     r11,[r2,#8]
;;;407    if(!(NUMIST>4))snmp_bps_stat[4]=0xff;
00026e  f1ba0f04          CMP      r10,#4
000272  dc00              BGT      |L1.630|
000274  8111              STRH     r1,[r2,#8]
                  |L1.630|
;;;408    
;;;409    snmp_bps_number[5]=6;
000276  f04f0b06          MOV      r11,#6
00027a  f8a4b00a          STRH     r11,[r4,#0xa]
;;;410    snmp_bps_voltage[5]=bps[5]._Uii;
00027e  f8d3b1e8          LDR      r11,[r3,#0x1e8]  ; bps
000282  f8a5b00a          STRH     r11,[r5,#0xa]
;;;411    snmp_bps_current[5]=bps[5]._Ii;
000286  f8d3b1f0          LDR      r11,[r3,#0x1f0]  ; bps
00028a  f8a6b00a          STRH     r11,[r6,#0xa]
;;;412    snmp_bps_temperature[5]=bps[5]._Ti;
00028e  f8d3b1f4          LDR      r11,[r3,#0x1f4]  ; bps
000292  f8acb00a          STRH     r11,[r12,#0xa]
;;;413    snmp_bps_stat[5]=bps[5]._av;
000296  f893b1cd          LDRB     r11,[r3,#0x1cd]  ; bps
00029a  f8a2b00a          STRH     r11,[r2,#0xa]
;;;414    if(!(NUMIST>5))snmp_bps_stat[5]=0xff;
00029e  f1ba0f05          CMP      r10,#5
0002a2  dc00              BGT      |L1.678|
0002a4  8151              STRH     r1,[r2,#0xa]
                  |L1.678|
;;;415    
;;;416    snmp_bps_number[6]=7;
0002a6  f04f0b07          MOV      r11,#7
0002aa  f8a4b00c          STRH     r11,[r4,#0xc]
;;;417    snmp_bps_voltage[6]=bps[6]._Uii;
0002ae  f8d3b244          LDR      r11,[r3,#0x244]  ; bps
0002b2  f8a5b00c          STRH     r11,[r5,#0xc]
;;;418    snmp_bps_current[6]=bps[6]._Ii;
0002b6  f8d3b24c          LDR      r11,[r3,#0x24c]  ; bps
0002ba  f8a6b00c          STRH     r11,[r6,#0xc]
;;;419    snmp_bps_temperature[6]=bps[6]._Ti;
0002be  f8d3b250          LDR      r11,[r3,#0x250]  ; bps
0002c2  f8acb00c          STRH     r11,[r12,#0xc]
;;;420    snmp_bps_stat[6]=bps[6]._av;
0002c6  f893b229          LDRB     r11,[r3,#0x229]  ; bps
0002ca  f8a2b00c          STRH     r11,[r2,#0xc]
;;;421    if(!(NUMIST>6))snmp_bps_stat[6]=0xff;
0002ce  f1ba0f06          CMP      r10,#6
0002d2  dc00              BGT      |L1.726|
0002d4  8191              STRH     r1,[r2,#0xc]
                  |L1.726|
;;;422    
;;;423    snmp_bps_number[7]=8;
0002d6  f04f0b08          MOV      r11,#8
0002da  f8a4b00e          STRH     r11,[r4,#0xe]
;;;424    snmp_bps_voltage[7]=bps[7]._Uii;
0002de  f5037321          ADD      r3,r3,#0x284
0002e2  69dc              LDR      r4,[r3,#0x1c]  ; bps
0002e4  81ec              STRH     r4,[r5,#0xe]
;;;425    snmp_bps_current[7]=bps[7]._Ii;
0002e6  6a5c              LDR      r4,[r3,#0x24]  ; bps
0002e8  81f4              STRH     r4,[r6,#0xe]
;;;426    snmp_bps_temperature[7]=bps[7]._Ti;
0002ea  6a9c              LDR      r4,[r3,#0x28]  ; bps
0002ec  f8ac400e          STRH     r4,[r12,#0xe]
;;;427    snmp_bps_stat[7]=bps[7]._av;
0002f0  785b              LDRB     r3,[r3,#1]  ; bps
0002f2  81d3              STRH     r3,[r2,#0xe]
;;;428    if(!(NUMIST>7))snmp_bps_stat[7]=0xff;
0002f4  f1ba0f07          CMP      r10,#7
0002f8  dc00              BGT      |L1.764|
0002fa  81d1              STRH     r1,[r2,#0xe]
                  |L1.764|
;;;429    
;;;430    
;;;431    
;;;432    snmp_inv_number[0]=1;
0002fc  4a41              LDR      r2,|L1.1028|
0002fe  32e4              ADDS     r2,r2,#0xe4
000300  8010              STRH     r0,[r2,#0]
;;;433    snmp_inv_voltage[0]=inv[0]._Uio;
000302  4959              LDR      r1,|L1.1128|
000304  1d93              ADDS     r3,r2,#6
000306  698c              LDR      r4,[r1,#0x18]  ; inv
000308  801c              STRH     r4,[r3,#0]
;;;434    snmp_inv_current[0]=inv[0]._Ii;
00030a  1d9c              ADDS     r4,r3,#6
00030c  69cd              LDR      r5,[r1,#0x1c]  ; inv
00030e  8025              STRH     r5,[r4,#0]
;;;435    snmp_inv_temperature[0]=inv[0]._Ti;
000310  1da5              ADDS     r5,r4,#6
000312  6a0e              LDR      r6,[r1,#0x20]  ; inv
000314  802e              STRH     r6,[r5,#0]
;;;436    snmp_inv_stat[0]=inv[0]._flags_tm;
000316  1dae              ADDS     r6,r5,#6
000318  f891c046          LDRB     r12,[r1,#0x46]  ; inv
00031c  f8a6c000          STRH     r12,[r6,#0]
;;;437    
;;;438    snmp_inv_number[1]=2;
000320  f8a29002          STRH     r9,[r2,#2]
;;;439    snmp_inv_voltage[1]=inv[1]._Uio;
000324  f8d1c078          LDR      r12,[r1,#0x78]  ; inv
000328  f8a3c002          STRH     r12,[r3,#2]
;;;440    snmp_inv_current[1]=inv[1]._Ii;
00032c  f8d1c07c          LDR      r12,[r1,#0x7c]  ; inv
000330  f8a4c002          STRH     r12,[r4,#2]
;;;441    snmp_inv_temperature[1]=inv[1]._Ti;
000334  f8d1c080          LDR      r12,[r1,#0x80]  ; inv
000338  f8a5c002          STRH     r12,[r5,#2]
;;;442    snmp_inv_stat[1]=inv[1]._flags_tm;
00033c  f891c0a6          LDRB     r12,[r1,#0xa6]  ; inv
000340  f8a6c002          STRH     r12,[r6,#2]
;;;443    
;;;444    snmp_inv_number[2]=3;
000344  46f2              MOV      r10,lr
000346  f8a2e004          STRH     lr,[r2,#4]
;;;445    snmp_inv_voltage[2]=inv[2]._Uio;
00034a  f8d120d8          LDR      r2,[r1,#0xd8]  ; inv
00034e  809a              STRH     r2,[r3,#4]
;;;446    snmp_inv_current[2]=inv[2]._Ii;
000350  f8d120dc          LDR      r2,[r1,#0xdc]  ; inv
000354  80a2              STRH     r2,[r4,#4]
;;;447    snmp_inv_temperature[2]=inv[2]._Ti;
000356  f8d120e0          LDR      r2,[r1,#0xe0]  ; inv
00035a  80aa              STRH     r2,[r5,#4]
;;;448    snmp_inv_stat[2]=inv[2]._flags_tm;
00035c  f8911106          LDRB     r1,[r1,#0x106]  ; inv
000360  80b1              STRH     r1,[r6,#4]
;;;449    
;;;450    
;;;451    
;;;452    
;;;453    					  
;;;454    snmp_sk_number[0]=1;
000362  f1a30e1a          SUB      lr,r3,#0x1a
000366  f88e0000          STRB     r0,[lr,#0]
;;;455    memcpy(&snmp_sk_name[0][0],"Door",10);
00036a  4d3e              LDR      r5,|L1.1124|
00036c  a13f              ADR      r1,|L1.1132|
00036e  3588              ADDS     r5,r5,#0x88
000370  680a              LDR      r2,[r1,#0]
000372  646a              STR      r2,[r5,#0x44]  ; snmp_sk_name
000374  684a              LDR      r2,[r1,#4]
000376  64aa              STR      r2,[r5,#0x48]  ; snmp_sk_name
000378  8909              LDRH     r1,[r1,#8]
00037a  f8a5104c          STRH     r1,[r5,#0x4c]
;;;456    if(sk_stat[0]==ssON) snmp_sk_aktiv[0]=1;
00037e  f8dfb0f4          LDR      r11,|L1.1140|
;;;457    else snmp_sk_aktiv[0]=0;
000382  2100              MOVS     r1,#0
000384  f1a4021c          SUB      r2,r4,#0x1c           ;456
000388  f89b3000          LDRB     r3,[r11,#0]           ;456  ; sk_stat
00038c  2b01              CMP      r3,#1                 ;456
00038e  d07b              BEQ      |L1.1160|
000390  7011              STRB     r1,[r2,#0]
                  |L1.914|
;;;458    if(!SK_SIGN[0])snmp_sk_alarm_aktiv[0]=1;
000392  4b39              LDR      r3,|L1.1144|
000394  881c              LDRH     r4,[r3,#0]  ; SK_SIGN
000396  4b1b              LDR      r3,|L1.1028|
000398  33d8              ADDS     r3,r3,#0xd8
00039a  b384              CBZ      r4,|L1.1022|
;;;459    else snmp_sk_alarm_aktiv[0]=0;
00039c  7019              STRB     r1,[r3,#0]
                  |L1.926|
;;;460    if(sk_av_stat[0]==sasON)	snmp_sk_alarm[0]=1;
00039e  4c37              LDR      r4,|L1.1148|
0003a0  7826              LDRB     r6,[r4,#0]  ; sk_av_stat
0003a2  4c18              LDR      r4,|L1.1028|
0003a4  34dc              ADDS     r4,r4,#0xdc
0003a6  2e01              CMP      r6,#1
0003a8  d06f              BEQ      |L1.1162|
;;;461    else                     snmp_sk_alarm[0]=0;
0003aa  7021              STRB     r1,[r4,#0]
                  |L1.940|
;;;462    
;;;463    
;;;464    snmp_sk_number[1]=2;
0003ac  f88e9001          STRB     r9,[lr,#1]
;;;465    memcpy(&snmp_sk_name[1][0],"Smoke",10);
0003b0  a633              ADR      r6,|L1.1152|
0003b2  f8d6c000          LDR      r12,[r6,#0]
0003b6  f8c5c058          STR      r12,[r5,#0x58]  ; snmp_sk_name
0003ba  f8d6c004          LDR      r12,[r6,#4]
0003be  f8c5c05c          STR      r12,[r5,#0x5c]  ; snmp_sk_name
0003c2  8936              LDRH     r6,[r6,#8]
0003c4  f8a56060          STRH     r6,[r5,#0x60]
;;;466    if(sk_stat[1]==ssON) snmp_sk_aktiv[1]=1;
0003c8  f89b6001          LDRB     r6,[r11,#1]  ; sk_stat
0003cc  2e01              CMP      r6,#1
0003ce  d07e              BEQ      |L1.1230|
;;;467    else snmp_sk_aktiv[1]=0;
0003d0  7051              STRB     r1,[r2,#1]
                  |L1.978|
;;;468    if(!SK_SIGN[1])snmp_sk_alarm_aktiv[1]=1;
0003d2  4e29              LDR      r6,|L1.1144|
0003d4  f8b6c002          LDRH     r12,[r6,#2]  ; SK_SIGN
0003d8  f1bc0f00          CMP      r12,#0
0003dc  d078              BEQ      |L1.1232|
;;;469    else snmp_sk_alarm_aktiv[1]=0;
0003de  7059              STRB     r1,[r3,#1]
                  |L1.992|
;;;470    if(sk_av_stat[1]==sasON)	snmp_sk_alarm[1]=1;
0003e0  f8dfc098          LDR      r12,|L1.1148|
0003e4  f89cc001          LDRB     r12,[r12,#1]  ; sk_av_stat
0003e8  f1bc0f01          CMP      r12,#1
0003ec  d071              BEQ      |L1.1234|
;;;471    else                     snmp_sk_alarm[1]=0;
0003ee  7061              STRB     r1,[r4,#1]
                  |L1.1008|
;;;472    
;;;473    snmp_sk_number[2]=3;
0003f0  f8dfc010          LDR      r12,|L1.1028|
0003f4  f10c0cd0          ADD      r12,r12,#0xd0
0003f8  f88ca002          STRB     r10,[r12,#2]
;;;474    memcpy(&snmp_sk_name[2][0],"Shock",10);
0003fc  e046              B        |L1.1164|
                  |L1.1022|
0003fe  e093              B        |L1.1320|
                  |L1.1024|
                          DCD      net_U
                  |L1.1028|
                          DCD      ||.data||
                  |L1.1032|
                          DCD      net_F3
                  |L1.1036|
                          DCD      net_Ua
                  |L1.1040|
                          DCD      net_Ub
                  |L1.1044|
                          DCD      net_Uc
                  |L1.1048|
                          DCD      load_U
                  |L1.1052|
                          DCD      load_I
                  |L1.1056|
                          DCD      NUMBAT
                  |L1.1060|
                          DCD      NUMIST
                  |L1.1064|
                          DCD      NUMINV
                  |L1.1068|
                          DCD      NUMAVT
                  |L1.1072|
                          DCD      NUMDT
                  |L1.1076|
                          DCD      NUMSK
                  |L1.1080|
                          DCD      Uvv_eb2
                  |L1.1084|
                          DCD      Upes_eb2
                  |L1.1088|
                          DCD      power_summary
                  |L1.1092|
                          DCD      power_current
                  |L1.1096|
                          DCD      bat
                  |L1.1100|
                          DCD      AUSW_MAIN
                  |L1.1104|
                          DCD      bps
                  |L1.1108|
                          DCD      Ib_ips_termokompensat
                  |L1.1112|
                          DCD      BAT_C_REAL
                  |L1.1116|
                          DCD      BAT_C_NOM
                  |L1.1120|
                          DCD      BAT_IS_ON
                  |L1.1124|
                          DCD      ||.bss||+0x78
                  |L1.1128|
                          DCD      inv
                  |L1.1132|
00046c  446f6f72          DCB      "Door",0
000470  00      
000471  00                DCB      0
000472  00                DCB      0
000473  00                DCB      0
                  |L1.1140|
                          DCD      sk_stat
                  |L1.1144|
                          DCD      SK_SIGN
                  |L1.1148|
                          DCD      sk_av_stat
                  |L1.1152|
000480  536d6f6b          DCB      "Smoke",0
000484  6500    
000486  00                DCB      0
000487  00                DCB      0
                  |L1.1160|
000488  e04c              B        |L1.1316|
                  |L1.1162|
00048a  e04f              B        |L1.1324|
                  |L1.1164|
00048c  f20f4c10          ADR.W    r12,|L1.2208|
000490  f8dce000          LDR      lr,[r12,#0]
000494  f8c5e06c          STR      lr,[r5,#0x6c]  ; snmp_sk_name
000498  f8dce004          LDR      lr,[r12,#4]
00049c  f8c5e070          STR      lr,[r5,#0x70]  ; snmp_sk_name
0004a0  f8bcc008          LDRH     r12,[r12,#8]
0004a4  f8a5c074          STRH     r12,[r5,#0x74]
;;;475    if(sk_stat[2]==ssON) snmp_sk_aktiv[2]=1;
0004a8  4dff              LDR      r5,|L1.2216|
0004aa  78ad              LDRB     r5,[r5,#2]  ; sk_stat
0004ac  2d01              CMP      r5,#1
0004ae  d045              BEQ      |L1.1340|
;;;476    else snmp_sk_aktiv[2]=0;
0004b0  7091              STRB     r1,[r2,#2]
                  |L1.1202|
;;;477    if(!SK_SIGN[2])snmp_sk_alarm_aktiv[2]=1;
0004b2  4dfe              LDR      r5,|L1.2220|
0004b4  88ad              LDRH     r5,[r5,#4]  ; SK_SIGN
0004b6  b3a5              CBZ      r5,|L1.1314|
;;;478    else snmp_sk_alarm_aktiv[2]=0;
0004b8  7099              STRB     r1,[r3,#2]
                  |L1.1210|
;;;479    if(sk_av_stat[2]==sasON)	snmp_sk_alarm[2]=1;
0004ba  f8dfb3f4          LDR      r11,|L1.2224|
0004be  f89b5002          LDRB     r5,[r11,#2]  ; sk_av_stat
0004c2  2d01              CMP      r5,#1
0004c4  d03e              BEQ      |L1.1348|
;;;480    else                     snmp_sk_alarm[2]=0;
0004c6  70a1              STRB     r1,[r4,#2]
                  |L1.1224|
;;;481    
;;;482    snmp_sk_number[3]=4;
0004c8  2504              MOVS     r5,#4
0004ca  4efa              LDR      r6,|L1.2228|
0004cc  e002              B        |L1.1236|
                  |L1.1230|
0004ce  e02f              B        |L1.1328|
                  |L1.1232|
0004d0  e030              B        |L1.1332|
                  |L1.1234|
0004d2  e031              B        |L1.1336|
                  |L1.1236|
0004d4  70f5              STRB     r5,[r6,#3]
;;;483    memcpy(&snmp_sk_name[3][0],"     ",10);
0004d6  4ef8              LDR      r6,|L1.2232|
0004d8  f20f3ce0          ADR.W    r12,|L1.2236|
0004dc  f8dce000          LDR      lr,[r12,#0]
0004e0  f8c6e000          STR      lr,[r6,#0]  ; snmp_sk_name
0004e4  f8dce004          LDR      lr,[r12,#4]
0004e8  f8c6e004          STR      lr,[r6,#4]  ; snmp_sk_name
0004ec  f8bcc008          LDRH     r12,[r12,#8]
0004f0  f8a6c008          STRH     r12,[r6,#8]
;;;484    if(sk_stat[3]==ssON) snmp_sk_aktiv[3]=1;
0004f4  4eec              LDR      r6,|L1.2216|
0004f6  78f6              LDRB     r6,[r6,#3]  ; sk_stat
0004f8  2e01              CMP      r6,#1
0004fa  d025              BEQ      |L1.1352|
;;;485    else snmp_sk_aktiv[3]=0;
0004fc  70d1              STRB     r1,[r2,#3]
                  |L1.1278|
;;;486    if(!SK_SIGN[3])snmp_sk_alarm_aktiv[3]=1;
0004fe  4aeb              LDR      r2,|L1.2220|
000500  88d2              LDRH     r2,[r2,#6]  ; SK_SIGN
000502  b31a              CBZ      r2,|L1.1356|
;;;487    else snmp_sk_alarm_aktiv[3]=0;
000504  70d9              STRB     r1,[r3,#3]
                  |L1.1286|
;;;488    if(sk_av_stat[3]==sasON)	snmp_sk_alarm[3]=1;
000506  f89b2003          LDRB     r2,[r11,#3]  ; sk_av_stat
00050a  2a01              CMP      r2,#1
00050c  d020              BEQ      |L1.1360|
;;;489    else                     snmp_sk_alarm[3]=0;
00050e  70e1              STRB     r1,[r4,#3]
                  |L1.1296|
;;;490    
;;;491    
;;;492    if(makb[0]._cnt>8) snmp_makb_connect_status[0]=1;
000510  4aec              LDR      r2,|L1.2244|
000512  4be8              LDR      r3,|L1.2228|
000514  f9b24028          LDRSH    r4,[r2,#0x28]  ; makb
000518  3338              ADDS     r3,r3,#0x38
00051a  2c08              CMP      r4,#8
00051c  dd1a              BLE      |L1.1364|
00051e  8018              STRH     r0,[r3,#0]
000520  e01b              B        |L1.1370|
                  |L1.1314|
000522  e00d              B        |L1.1344|
                  |L1.1316|
000524  7010              STRB     r0,[r2,#0]            ;456
000526  e734              B        |L1.914|
                  |L1.1320|
000528  7018              STRB     r0,[r3,#0]            ;458
00052a  e738              B        |L1.926|
                  |L1.1324|
00052c  7020              STRB     r0,[r4,#0]            ;460
00052e  e73d              B        |L1.940|
                  |L1.1328|
000530  7050              STRB     r0,[r2,#1]            ;466
000532  e74e              B        |L1.978|
                  |L1.1332|
000534  7058              STRB     r0,[r3,#1]            ;468
000536  e753              B        |L1.992|
                  |L1.1336|
000538  7060              STRB     r0,[r4,#1]            ;470
00053a  e759              B        |L1.1008|
                  |L1.1340|
00053c  7090              STRB     r0,[r2,#2]            ;475
00053e  e7b8              B        |L1.1202|
                  |L1.1344|
000540  7098              STRB     r0,[r3,#2]            ;477
000542  e7ba              B        |L1.1210|
                  |L1.1348|
000544  70a0              STRB     r0,[r4,#2]            ;479
000546  e7bf              B        |L1.1224|
                  |L1.1352|
000548  70d0              STRB     r0,[r2,#3]            ;484
00054a  e7d8              B        |L1.1278|
                  |L1.1356|
00054c  70d8              STRB     r0,[r3,#3]            ;486
00054e  e7da              B        |L1.1286|
                  |L1.1360|
000550  70e0              STRB     r0,[r4,#3]            ;488
000552  e7dd              B        |L1.1296|
                  |L1.1364|
;;;493    else if(makb[0]._cnt<2) snmp_makb_connect_status[0]=0;
000554  2c02              CMP      r4,#2
000556  da00              BGE      |L1.1370|
000558  8019              STRH     r1,[r3,#0]
                  |L1.1370|
;;;494    if(makb[1]._cnt>8) snmp_makb_connect_status[1]=1;
00055a  f9b24052          LDRSH    r4,[r2,#0x52]  ; makb
00055e  2c08              CMP      r4,#8
000560  dd01              BLE      |L1.1382|
000562  8058              STRH     r0,[r3,#2]
000564  e002              B        |L1.1388|
                  |L1.1382|
;;;495    else if(makb[1]._cnt<2) snmp_makb_connect_status[1]=0;
000566  2c02              CMP      r4,#2
000568  da00              BGE      |L1.1388|
00056a  8059              STRH     r1,[r3,#2]
                  |L1.1388|
;;;496    if(makb[2]._cnt>8) snmp_makb_connect_status[2]=1;
00056c  f9b2407c          LDRSH    r4,[r2,#0x7c]  ; makb
000570  2c08              CMP      r4,#8
000572  dd01              BLE      |L1.1400|
000574  8098              STRH     r0,[r3,#4]
000576  e002              B        |L1.1406|
                  |L1.1400|
;;;497    else if(makb[2]._cnt<2) snmp_makb_connect_status[2]=0;
000578  2c02              CMP      r4,#2
00057a  da00              BGE      |L1.1406|
00057c  8099              STRH     r1,[r3,#4]
                  |L1.1406|
;;;498    if(makb[3]._cnt>8) snmp_makb_connect_status[3]=1;
00057e  f9b240a6          LDRSH    r4,[r2,#0xa6]  ; makb
000582  2c08              CMP      r4,#8
000584  dd01              BLE      |L1.1418|
000586  80d8              STRH     r0,[r3,#6]
000588  e002              B        |L1.1424|
                  |L1.1418|
;;;499    else if(makb[3]._cnt<2) snmp_makb_connect_status[3]=0;
00058a  2c02              CMP      r4,#2
00058c  da00              BGE      |L1.1424|
00058e  80d9              STRH     r1,[r3,#6]
                  |L1.1424|
;;;500    
;;;501    snmp_makb_voltage0[0]=makb[0]._Ub[0];
000590  4cc8              LDR      r4,|L1.2228|
000592  8953              LDRH     r3,[r2,#0xa]  ; makb
000594  3440              ADDS     r4,r4,#0x40
000596  8023              STRH     r3,[r4,#0]
;;;502    snmp_makb_voltage1[0]=makb[0]._Ub[1];
000598  4bc6              LDR      r3,|L1.2228|
00059a  8994              LDRH     r4,[r2,#0xc]  ; makb
00059c  3348              ADDS     r3,r3,#0x48
00059e  801c              STRH     r4,[r3,#0]
;;;503    snmp_makb_voltage2[0]=makb[0]._Ub[2];
0005a0  4cc4              LDR      r4,|L1.2228|
0005a2  89d3              LDRH     r3,[r2,#0xe]  ; makb
0005a4  3450              ADDS     r4,r4,#0x50
0005a6  8023              STRH     r3,[r4,#0]
;;;504    snmp_makb_voltage3[0]=makb[0]._Ub[3];
0005a8  3408              ADDS     r4,r4,#8
0005aa  8a13              LDRH     r3,[r2,#0x10]  ; makb
0005ac  8023              STRH     r3,[r4,#0]
;;;505    snmp_makb_voltage4[0]=makb[0]._Ub[4];
0005ae  3408              ADDS     r4,r4,#8
0005b0  8a53              LDRH     r3,[r2,#0x12]  ; makb
0005b2  8023              STRH     r3,[r4,#0]
;;;506    snmp_makb_voltage0[1]=makb[1]._Ub[0];
0005b4  3c20              SUBS     r4,r4,#0x20
0005b6  8e93              LDRH     r3,[r2,#0x34]  ; makb
0005b8  8063              STRH     r3,[r4,#2]
;;;507    snmp_makb_voltage1[1]=makb[1]._Ub[1];
0005ba  3408              ADDS     r4,r4,#8
0005bc  8ed3              LDRH     r3,[r2,#0x36]  ; makb
0005be  8063              STRH     r3,[r4,#2]
;;;508    snmp_makb_voltage2[1]=makb[1]._Ub[2];
0005c0  3408              ADDS     r4,r4,#8
0005c2  8f13              LDRH     r3,[r2,#0x38]  ; makb
0005c4  8063              STRH     r3,[r4,#2]
;;;509    snmp_makb_voltage3[1]=makb[1]._Ub[3];
0005c6  3408              ADDS     r4,r4,#8
0005c8  8f53              LDRH     r3,[r2,#0x3a]  ; makb
0005ca  8063              STRH     r3,[r4,#2]
;;;510    snmp_makb_voltage4[1]=makb[1]._Ub[4];
0005cc  3408              ADDS     r4,r4,#8
0005ce  8f93              LDRH     r3,[r2,#0x3c]  ; makb
0005d0  8063              STRH     r3,[r4,#2]
;;;511    snmp_makb_voltage0[2]=makb[2]._Ub[0];
0005d2  3c20              SUBS     r4,r4,#0x20
0005d4  f8b2305e          LDRH     r3,[r2,#0x5e]  ; makb
0005d8  80a3              STRH     r3,[r4,#4]
;;;512    snmp_makb_voltage1[2]=makb[2]._Ub[1];
0005da  3408              ADDS     r4,r4,#8
0005dc  f8b23060          LDRH     r3,[r2,#0x60]  ; makb
0005e0  80a3              STRH     r3,[r4,#4]
;;;513    snmp_makb_voltage2[2]=makb[2]._Ub[2];
0005e2  3408              ADDS     r4,r4,#8
0005e4  f8b23062          LDRH     r3,[r2,#0x62]  ; makb
0005e8  80a3              STRH     r3,[r4,#4]
;;;514    snmp_makb_voltage3[2]=makb[2]._Ub[3];
0005ea  3408              ADDS     r4,r4,#8
0005ec  f8b23064          LDRH     r3,[r2,#0x64]  ; makb
0005f0  80a3              STRH     r3,[r4,#4]
;;;515    snmp_makb_voltage4[2]=makb[2]._Ub[4];
0005f2  3408              ADDS     r4,r4,#8
0005f4  f8b23066          LDRH     r3,[r2,#0x66]  ; makb
0005f8  80a3              STRH     r3,[r4,#4]
;;;516    snmp_makb_voltage0[3]=makb[3]._Ub[0];
0005fa  3c20              SUBS     r4,r4,#0x20
0005fc  f8b23088          LDRH     r3,[r2,#0x88]  ; makb
000600  80e3              STRH     r3,[r4,#6]
;;;517    snmp_makb_voltage1[3]=makb[3]._Ub[1];
000602  3408              ADDS     r4,r4,#8
000604  f8b2308a          LDRH     r3,[r2,#0x8a]  ; makb
000608  80e3              STRH     r3,[r4,#6]
;;;518    snmp_makb_voltage2[3]=makb[3]._Ub[2];
00060a  3408              ADDS     r4,r4,#8
00060c  f8b2308c          LDRH     r3,[r2,#0x8c]  ; makb
000610  80e3              STRH     r3,[r4,#6]
;;;519    snmp_makb_voltage3[3]=makb[3]._Ub[3];
000612  3408              ADDS     r4,r4,#8
000614  f8b2308e          LDRH     r3,[r2,#0x8e]  ; makb
000618  80e3              STRH     r3,[r4,#6]
;;;520    snmp_makb_voltage4[3]=makb[3]._Ub[4];
00061a  3408              ADDS     r4,r4,#8
00061c  f8b23090          LDRH     r3,[r2,#0x90]  ; makb
000620  80e3              STRH     r3,[r4,#6]
;;;521    
;;;522    snmp_makb_temper0[0]=makb[0]._T[0];
000622  4ba4              LDR      r3,|L1.2228|
000624  8a94              LDRH     r4,[r2,#0x14]  ; makb
000626  3368              ADDS     r3,r3,#0x68
000628  801c              STRH     r4,[r3,#0]
;;;523    snmp_makb_temper1[0]=makb[0]._T[1];
00062a  f1030408          ADD      r4,r3,#8
00062e  8ad6              LDRH     r6,[r2,#0x16]  ; makb
000630  8026              STRH     r6,[r4,#0]
;;;524    snmp_makb_temper2[0]=makb[0]._T[2];
000632  f1030610          ADD      r6,r3,#0x10
000636  f8b2c018          LDRH     r12,[r2,#0x18]  ; makb
00063a  f8a6c000          STRH     r12,[r6,#0]
;;;525    snmp_makb_temper3[0]=makb[0]._T[3];
00063e  f1030c18          ADD      r12,r3,#0x18
000642  f8b2b01a          LDRH     r11,[r2,#0x1a]  ; makb
000646  f8acb000          STRH     r11,[r12,#0]
;;;526    snmp_makb_temper4[0]=makb[0]._T[4];
00064a  f1030b20          ADD      r11,r3,#0x20
00064e  f8b2e01c          LDRH     lr,[r2,#0x1c]  ; makb
000652  f8abe000          STRH     lr,[r11,#0]
;;;527    snmp_makb_temper0[1]=makb[1]._T[0];
000656  f8b2e03e          LDRH     lr,[r2,#0x3e]  ; makb
00065a  f8a3e002          STRH     lr,[r3,#2]
;;;528    snmp_makb_temper1[1]=makb[1]._T[1];
00065e  f8b2e040          LDRH     lr,[r2,#0x40]  ; makb
000662  f8a4e002          STRH     lr,[r4,#2]
;;;529    snmp_makb_temper2[1]=makb[1]._T[2];
000666  f8b2e042          LDRH     lr,[r2,#0x42]  ; makb
00066a  f8a6e002          STRH     lr,[r6,#2]
;;;530    snmp_makb_temper3[1]=makb[1]._T[3];
00066e  f8b2e044          LDRH     lr,[r2,#0x44]  ; makb
000672  f8ace002          STRH     lr,[r12,#2]
;;;531    snmp_makb_temper4[1]=makb[1]._T[4];
000676  f8b2e046          LDRH     lr,[r2,#0x46]  ; makb
00067a  f8abe002          STRH     lr,[r11,#2]
;;;532    snmp_makb_temper0[2]=makb[2]._T[0];
00067e  f8b2e068          LDRH     lr,[r2,#0x68]  ; makb
000682  f8a3e004          STRH     lr,[r3,#4]
;;;533    snmp_makb_temper1[2]=makb[2]._T[1];
000686  f8b2e06a          LDRH     lr,[r2,#0x6a]  ; makb
00068a  f8a4e004          STRH     lr,[r4,#4]
;;;534    snmp_makb_temper2[2]=makb[2]._T[2];
00068e  f8b2e06c          LDRH     lr,[r2,#0x6c]  ; makb
000692  f8a6e004          STRH     lr,[r6,#4]
;;;535    snmp_makb_temper3[2]=makb[2]._T[3];
000696  f8b2e06e          LDRH     lr,[r2,#0x6e]  ; makb
00069a  f8ace004          STRH     lr,[r12,#4]
;;;536    snmp_makb_temper4[2]=makb[2]._T[4];
00069e  f8b2e070          LDRH     lr,[r2,#0x70]  ; makb
0006a2  f8abe004          STRH     lr,[r11,#4]
;;;537    snmp_makb_temper0[3]=makb[3]._T[0];
0006a6  f8b2e092          LDRH     lr,[r2,#0x92]  ; makb
0006aa  f8a3e006          STRH     lr,[r3,#6]
;;;538    snmp_makb_temper1[3]=makb[3]._T[1];
0006ae  f8b23094          LDRH     r3,[r2,#0x94]  ; makb
0006b2  80e3              STRH     r3,[r4,#6]
;;;539    snmp_makb_temper2[3]=makb[3]._T[2];
0006b4  f8b23096          LDRH     r3,[r2,#0x96]  ; makb
0006b8  80f3              STRH     r3,[r6,#6]
;;;540    snmp_makb_temper3[3]=makb[3]._T[3];
0006ba  f8b23098          LDRH     r3,[r2,#0x98]  ; makb
0006be  f8ac3006          STRH     r3,[r12,#6]
;;;541    snmp_makb_temper4[3]=makb[3]._T[4];
0006c2  f8b2309a          LDRH     r3,[r2,#0x9a]  ; makb
0006c6  f8ab3006          STRH     r3,[r11,#6]
;;;542    
;;;543    snmp_makb_temper0_stat[0]=makb[0]._T_nd[0];
0006ca  f1060318          ADD      r3,r6,#0x18
0006ce  8bd4              LDRH     r4,[r2,#0x1e]  ; makb
0006d0  801c              STRH     r4,[r3,#0]
;;;544    snmp_makb_temper1_stat[0]=makb[0]._T_nd[1];
0006d2  f1030408          ADD      r4,r3,#8
0006d6  8c16              LDRH     r6,[r2,#0x20]  ; makb
0006d8  8026              STRH     r6,[r4,#0]
;;;545    snmp_makb_temper2_stat[0]=makb[0]._T_nd[2];
0006da  f1030610          ADD      r6,r3,#0x10
0006de  f8b2c022          LDRH     r12,[r2,#0x22]  ; makb
0006e2  f8a6c000          STRH     r12,[r6,#0]
;;;546    snmp_makb_temper3_stat[0]=makb[0]._T_nd[3];
0006e6  f1030c18          ADD      r12,r3,#0x18
0006ea  f8b2b024          LDRH     r11,[r2,#0x24]  ; makb
0006ee  f8acb000          STRH     r11,[r12,#0]
;;;547    snmp_makb_temper4_stat[0]=makb[0]._T_nd[4];
0006f2  f1030b20          ADD      r11,r3,#0x20
0006f6  f8b2e026          LDRH     lr,[r2,#0x26]  ; makb
0006fa  f8abe000          STRH     lr,[r11,#0]
;;;548    snmp_makb_temper0_stat[1]=makb[1]._T_nd[0];
0006fe  f8b2e048          LDRH     lr,[r2,#0x48]  ; makb
000702  f8a3e002          STRH     lr,[r3,#2]
;;;549    snmp_makb_temper1_stat[1]=makb[1]._T_nd[1];
000706  f8b2e04a          LDRH     lr,[r2,#0x4a]  ; makb
00070a  f8a4e002          STRH     lr,[r4,#2]
;;;550    snmp_makb_temper2_stat[1]=makb[1]._T_nd[2];
00070e  f8b2e04c          LDRH     lr,[r2,#0x4c]  ; makb
000712  f8a6e002          STRH     lr,[r6,#2]
;;;551    snmp_makb_temper3_stat[1]=makb[1]._T_nd[3];
000716  f8b2e04e          LDRH     lr,[r2,#0x4e]  ; makb
00071a  f8ace002          STRH     lr,[r12,#2]
;;;552    snmp_makb_temper4_stat[1]=makb[1]._T_nd[4];
00071e  f8b2e050          LDRH     lr,[r2,#0x50]  ; makb
000722  f8abe002          STRH     lr,[r11,#2]
;;;553    snmp_makb_temper0_stat[2]=makb[2]._T_nd[0];
000726  f8b2e072          LDRH     lr,[r2,#0x72]  ; makb
00072a  f8a3e004          STRH     lr,[r3,#4]
;;;554    snmp_makb_temper1_stat[2]=makb[2]._T_nd[1];
00072e  f8b2e074          LDRH     lr,[r2,#0x74]  ; makb
000732  f8a4e004          STRH     lr,[r4,#4]
;;;555    snmp_makb_temper2_stat[2]=makb[2]._T_nd[2];
000736  f8b2e076          LDRH     lr,[r2,#0x76]  ; makb
00073a  f8a6e004          STRH     lr,[r6,#4]
;;;556    snmp_makb_temper3_stat[2]=makb[2]._T_nd[3];
00073e  f8b2e078          LDRH     lr,[r2,#0x78]  ; makb
000742  f8ace004          STRH     lr,[r12,#4]
;;;557    snmp_makb_temper4_stat[2]=makb[2]._T_nd[4];
000746  f8b2e07a          LDRH     lr,[r2,#0x7a]  ; makb
00074a  f8abe004          STRH     lr,[r11,#4]
;;;558    snmp_makb_temper0_stat[3]=makb[3]._T_nd[0];
00074e  f8b2e09c          LDRH     lr,[r2,#0x9c]  ; makb
000752  f8a3e006          STRH     lr,[r3,#6]
;;;559    snmp_makb_temper1_stat[3]=makb[3]._T_nd[1];
000756  f8b2309e          LDRH     r3,[r2,#0x9e]  ; makb
00075a  80e3              STRH     r3,[r4,#6]
;;;560    snmp_makb_temper2_stat[3]=makb[3]._T_nd[2];
00075c  f8b230a0          LDRH     r3,[r2,#0xa0]  ; makb
000760  80f3              STRH     r3,[r6,#6]
;;;561    snmp_makb_temper3_stat[3]=makb[3]._T_nd[3];
000762  f8b230a2          LDRH     r3,[r2,#0xa2]  ; makb
000766  f8ac3006          STRH     r3,[r12,#6]
;;;562    snmp_makb_temper4_stat[3]=makb[3]._T_nd[4];
00076a  f8b220a4          LDRH     r2,[r2,#0xa4]  ; makb
00076e  f8ab2006          STRH     r2,[r11,#6]
;;;563    
;;;564    
;;;565    snmp_klimat_box_temper=t_box;
000772  4a55              LDR      r2,|L1.2248|
000774  8812              LDRH     r2,[r2,#0]  ; t_box
000776  f8a72076          STRH     r2,[r7,#0x76]
;;;566    snmp_klimat_settings_box_alarm=TBOXMAX;
00077a  4a54              LDR      r2,|L1.2252|
00077c  f5a473b4          SUB      r3,r4,#0x168
000780  8812              LDRH     r2,[r2,#0]  ; TBOXMAX
000782  f8a32078          STRH     r2,[r3,#0x78]
;;;567    snmp_klimat_settings_vent_on=TBOXVENTON;
000786  4a52              LDR      r2,|L1.2256|
000788  8812              LDRH     r2,[r2,#0]  ; TBOXVENTON
00078a  f8a3207a          STRH     r2,[r3,#0x7a]
;;;568    snmp_klimat_settings_vent_off=TBOXVENTOFF;
00078e  4a51              LDR      r2,|L1.2260|
000790  8812              LDRH     r2,[r2,#0]  ; TBOXVENTOFF
000792  f8a3207c          STRH     r2,[r3,#0x7c]
;;;569    snmp_klimat_settings_warm_on=TBOXWARMON;
000796  4a50              LDR      r2,|L1.2264|
000798  8812              LDRH     r2,[r2,#0]  ; TBOXWARMON
00079a  f8a3207e          STRH     r2,[r3,#0x7e]
;;;570    snmp_klimat_settings_warm_off=TBOXWARMOFF;
00079e  4a4f              LDR      r2,|L1.2268|
0007a0  8812              LDRH     r2,[r2,#0]  ; TBOXWARMOFF
0007a2  f8a82000          STRH     r2,[r8,#0]
;;;571    snmp_klimat_settings_load_on=TLOADENABLE;
0007a6  4a4e              LDR      r2,|L1.2272|
0007a8  8812              LDRH     r2,[r2,#0]  ; TLOADENABLE
0007aa  f8a82002          STRH     r2,[r8,#2]
;;;572    snmp_klimat_settings_load_off=TLOADDISABLE;
0007ae  4a4d              LDR      r2,|L1.2276|
0007b0  8812              LDRH     r2,[r2,#0]  ; TLOADDISABLE
0007b2  f8a82004          STRH     r2,[r8,#4]
;;;573    snmp_klimat_settings_batt_on=TBATENABLE;
0007b6  4a4c              LDR      r2,|L1.2280|
0007b8  8812              LDRH     r2,[r2,#0]  ; TBATENABLE
0007ba  f8a82006          STRH     r2,[r8,#6]
;;;574    snmp_klimat_settings_batt_off=TBATDISABLE;
0007be  4a4b              LDR      r2,|L1.2284|
0007c0  8812              LDRH     r2,[r2,#0]  ; TBATDISABLE
0007c2  f8a82008          STRH     r2,[r8,#8]
;;;575    
;;;576    snmp_dt_ext=t_ext[0];
0007c6  4a4a              LDR      r2,|L1.2288|
0007c8  f9b27000          LDRSH    r7,[r2,#0]  ; t_ext
0007cc  f8a8700a          STRH     r7,[r8,#0xa]
;;;577    snmp_dt_msan=t_ext[1];
0007d0  f9b2c002          LDRSH    r12,[r2,#2]  ; t_ext
0007d4  f8a8c00c          STRH     r12,[r8,#0xc]
;;;578    snmp_dt_epu=t_ext[2];
0007d8  f9b2b004          LDRSH    r11,[r2,#4]  ; t_ext
0007dc  f8a8b00e          STRH     r11,[r8,#0xe]
;;;579    
;;;580    /*
;;;581    snmp_bat_voltage=Ubat;
;;;582    snmp_bat_current=Ibat;
;;;583    snmp_bat_temperature=t_b;
;;;584    if(BAT_C_REAL==0x5555)
;;;585    	{
;;;586    	snmp_bat_capacity=BAT_C_NOM*10;												    11
;;;587    	}
;;;588    else
;;;589    	{
;;;590    	snmp_bat_capacity=BAT_C_REAL;
;;;591    	}
;;;592    snmp_bat_charge=zar_percent;
;;;593    snmp_bat_status=0;
;;;594    if(St&0x02)snmp_bat_status|=0x01;
;;;595    if(Ibat>0)snmp_bat_status|=0x02;
;;;596    
;;;597    
;;;598    if(spc_stat==spc_OFF) snmp_spc_stat=0;
;;;599    else if(spc_stat==spc_KE) snmp_spc_stat=1;
;;;600    else if(spc_stat==spc_VZ) snmp_spc_stat=10;
;;;601    
;;;602    
;;;603    snmp_main_bps=MAIN_IST+1;
;;;604    */
;;;605    snmp_zv_en=ZV_ON;
0007e0  4a44              LDR      r2,|L1.2292|
0007e2  8812              LDRH     r2,[r2,#0]  ; ZV_ON
0007e4  f8a32048          STRH     r2,[r3,#0x48]
;;;606    snmp_alarm_auto_disable=AV_OFF_AVT;
0007e8  4a43              LDR      r2,|L1.2296|
0007ea  8812              LDRH     r2,[r2,#0]  ; AV_OFF_AVT
0007ec  f8a3204a          STRH     r2,[r3,#0x4a]
;;;607    snmp_bat_test_time=TBAT;
0007f0  4a42              LDR      r2,|L1.2300|
0007f2  8812              LDRH     r2,[r2,#0]  ; TBAT
0007f4  f8a3204c          STRH     r2,[r3,#0x4c]
;;;608    snmp_u_max=UMAX;
0007f8  4a41              LDR      r2,|L1.2304|
0007fa  8812              LDRH     r2,[r2,#0]  ; UMAX
0007fc  f8a3204e          STRH     r2,[r3,#0x4e]
;;;609    snmp_u_min=UB20-DU;
000800  4a40              LDR      r2,|L1.2308|
000802  4b41              LDR      r3,|L1.2312|
000804  f5a474b4          SUB      r4,r4,#0x168
000808  8812              LDRH     r2,[r2,#0]  ; UB20
00080a  881b              LDRH     r3,[r3,#0]  ; DU
00080c  1ad3              SUBS     r3,r2,r3
00080e  f8a43050          STRH     r3,[r4,#0x50]
;;;610    snmp_u_0_grad=UB0;
000812  4b3e              LDR      r3,|L1.2316|
000814  881b              LDRH     r3,[r3,#0]  ; UB0
000816  f8a43052          STRH     r3,[r4,#0x52]
;;;611    snmp_u_20_grad=UB20;
00081a  4623              MOV      r3,r4
00081c  f8a32054          STRH     r2,[r3,#0x54]
;;;612    snmp_u_sign=USIGN;
000820  4a3b              LDR      r2,|L1.2320|
000822  8812              LDRH     r2,[r2,#0]  ; USIGN
000824  f8a32056          STRH     r2,[r3,#0x56]
;;;613    snmp_u_min_power=UMN;
000828  4a3a              LDR      r2,|L1.2324|
00082a  8812              LDRH     r2,[r2,#0]  ; UMN
00082c  f8a32058          STRH     r2,[r3,#0x58]
;;;614    snmp_u_withouth_bat=U0B;
000830  4a39              LDR      r2,|L1.2328|
000832  8812              LDRH     r2,[r2,#0]  ; U0B
000834  f8a3205a          STRH     r2,[r3,#0x5a]
;;;615    snmp_control_current=IKB;
000838  4a38              LDR      r2,|L1.2332|
00083a  8812              LDRH     r2,[r2,#0]  ; IKB
00083c  f8a3205c          STRH     r2,[r3,#0x5c]
;;;616    snmp_max_charge_current=IZMAX;
000840  4a37              LDR      r2,|L1.2336|
000842  8813              LDRH     r3,[r2,#0]  ; IZMAX
000844  4622              MOV      r2,r4
000846  f8a2305e          STRH     r3,[r2,#0x5e]
;;;617    snmp_max_current=IMAX;
00084a  4a36              LDR      r2,|L1.2340|
00084c  4623              MOV      r3,r4
00084e  8812              LDRH     r2,[r2,#0]  ; IMAX
000850  f8a32060          STRH     r2,[r3,#0x60]
;;;618    snmp_min_current=IMIN;
000854  4a34              LDR      r2,|L1.2344|
000856  8812              LDRH     r2,[r2,#0]  ; IMIN
000858  f8a32062          STRH     r2,[r3,#0x62]
;;;619    //snmp_max_current_koef=KIMAX;
;;;620    snmp_uvz=UVZ;
00085c  4a33              LDR      r2,|L1.2348|
00085e  8812              LDRH     r2,[r2,#0]  ; UVZ
000860  f8a32064          STRH     r2,[r3,#0x64]
;;;621    snmp_powerup_psu_timeout=TZAS;
000864  4a32              LDR      r2,|L1.2352|
000866  8812              LDRH     r2,[r2,#0]  ; TZAS
000868  f8a32066          STRH     r2,[r3,#0x66]
;;;622    snmp_max_temperature=TMAX;
00086c  4a31              LDR      r2,|L1.2356|
00086e  8812              LDRH     r2,[r2,#0]  ; TMAX
000870  f8a32068          STRH     r2,[r3,#0x68]
;;;623    snmp_tsign_bat=TBATSIGN; 
000874  4b30              LDR      r3,|L1.2360|
000876  881b              LDRH     r3,[r3,#0]  ; TBATSIGN
000878  f8a4306a          STRH     r3,[r4,#0x6a]
;;;624    snmp_tmax_bat=TBATMAX;
00087c  4b2f              LDR      r3,|L1.2364|
00087e  881b              LDRH     r3,[r3,#0]  ; TBATMAX
000880  f8a4306c          STRH     r3,[r4,#0x6c]
;;;625    snmp_tsign_bps=TSIGN;
000884  4b2e              LDR      r3,|L1.2368|
000886  881b              LDRH     r3,[r3,#0]  ; TSIGN
000888  f8a4306e          STRH     r3,[r4,#0x6e]
;;;626    snmp_tmax_bps=TMAX;
00088c  4623              MOV      r3,r4
00088e  f8a32070          STRH     r2,[r3,#0x70]
;;;627    snmp_bat_part_alarm=UBM_AV; 
000892  4a2c              LDR      r2,|L1.2372|
000894  8812              LDRH     r2,[r2,#0]  ; UBM_AV
000896  f8a32072          STRH     r2,[r3,#0x72]
;;;628    snmp_power_cnt_adress=POWER_CNT_ADRESS;
00089a  4a2b              LDR      r2,|L1.2376|
00089c  8812              LDRH     r2,[r2,#0]  ; POWER_CNT_ADRESS
00089e  e055              B        |L1.2380|
                  |L1.2208|
0008a0  53686f63          DCB      "Shock",0
0008a4  6b00    
0008a6  00                DCB      0
0008a7  00                DCB      0
                  |L1.2216|
                          DCD      sk_stat
                  |L1.2220|
                          DCD      SK_SIGN
                  |L1.2224|
                          DCD      sk_av_stat
                  |L1.2228|
                          DCD      ||.data||+0xd0
                  |L1.2232|
                          DCD      ||.bss||+0x180
                  |L1.2236|
0008bc  20202020          DCB      "     ",0
0008c0  2000    
0008c2  00                DCB      0
0008c3  00                DCB      0
                  |L1.2244|
                          DCD      makb
                  |L1.2248|
                          DCD      t_box
                  |L1.2252|
                          DCD      TBOXMAX
                  |L1.2256|
                          DCD      TBOXVENTON
                  |L1.2260|
                          DCD      TBOXVENTOFF
                  |L1.2264|
                          DCD      TBOXWARMON
                  |L1.2268|
                          DCD      TBOXWARMOFF
                  |L1.2272|
                          DCD      TLOADENABLE
                  |L1.2276|
                          DCD      TLOADDISABLE
                  |L1.2280|
                          DCD      TBATENABLE
                  |L1.2284|
                          DCD      TBATDISABLE
                  |L1.2288|
                          DCD      t_ext
                  |L1.2292|
                          DCD      ZV_ON
                  |L1.2296|
                          DCD      AV_OFF_AVT
                  |L1.2300|
                          DCD      TBAT
                  |L1.2304|
                          DCD      UMAX
                  |L1.2308|
                          DCD      UB20
                  |L1.2312|
                          DCD      ||DU||
                  |L1.2316|
                          DCD      UB0
                  |L1.2320|
                          DCD      USIGN
                  |L1.2324|
                          DCD      UMN
                  |L1.2328|
                          DCD      U0B
                  |L1.2332|
                          DCD      IKB
                  |L1.2336|
                          DCD      IZMAX
                  |L1.2340|
                          DCD      IMAX
                  |L1.2344|
                          DCD      IMIN
                  |L1.2348|
                          DCD      UVZ
                  |L1.2352|
                          DCD      TZAS
                  |L1.2356|
                          DCD      TMAX
                  |L1.2360|
                          DCD      TBATSIGN
                  |L1.2364|
                          DCD      TBATMAX
                  |L1.2368|
                          DCD      TSIGN
                  |L1.2372|
                          DCD      UBM_AV
                  |L1.2376|
                          DCD      POWER_CNT_ADRESS
                  |L1.2380|
00094c  f8a32074          STRH     r2,[r3,#0x74]
;;;629    
;;;630    for(i=0;i<12;i++)
000950  2200              MOVS     r2,#0
;;;631    	{
;;;632    	snmp_avt_number[i]=i+1;
000952  4cfa              LDR      r4,|L1.3388|
;;;633    	if(avt_stat[i]==avtOFF)snmp_avt_stat[i]=0;
000954  f8df83e8          LDR      r8,|L1.3392|
000958  f104060c          ADD      r6,r4,#0xc
                  |L1.2396|
00095c  1c53              ADDS     r3,r2,#1              ;632
00095e  54a3              STRB     r3,[r4,r2]            ;632
000960  f818e002          LDRB     lr,[r8,r2]
000964  f1be0f00          CMP      lr,#0
000968  d07d              BEQ      |L1.2662|
;;;634    	else snmp_avt_stat[i]=1;
00096a  54b0              STRB     r0,[r6,r2]
                  |L1.2412|
00096c  b2da              UXTB     r2,r3                 ;630
00096e  2a0c              CMP      r2,#0xc               ;630
000970  d3f4              BCC      |L1.2396|
;;;635    	}
;;;636    
;;;637    snmp_dt_number[0]=1;
000972  49f4              LDR      r1,|L1.3396|
000974  7008              STRB     r0,[r1,#0]
;;;638    snmp_dt_number[1]=2;
000976  f8819001          STRB     r9,[r1,#1]
;;;639    snmp_dt_number[2]=3;
00097a  f881a002          STRB     r10,[r1,#2]
;;;640    //snmp_dt_number[3]=4;
;;;641    snmp_dt_temper[0]=t_ext[0];
00097e  3172              ADDS     r1,r1,#0x72
000980  800f              STRH     r7,[r1,#0]
;;;642    snmp_dt_temper[1]=t_ext[1];
000982  f8a1c002          STRH     r12,[r1,#2]
;;;643    snmp_dt_temper[2]=t_ext[2];
000986  f8a1b004          STRH     r11,[r1,#4]
;;;644    //snmp_dt_temper[3]=t_ext[3];
;;;645    snmp_dt_error[0]=ND_EXT[0];
00098a  4cef              LDR      r4,|L1.3400|
00098c  4bed              LDR      r3,|L1.3396|
00098e  1cdb              ADDS     r3,r3,#3
000990  7821              LDRB     r1,[r4,#0]  ; ND_EXT
000992  7019              STRB     r1,[r3,#0]
;;;646    if(NUMDT<1)snmp_dt_error[0]=0xff;
000994  49ed              LDR      r1,|L1.3404|
000996  f04f32ff          MOV      r2,#0xffffffff
00099a  f9b11000          LDRSH    r1,[r1,#0]  ; NUMDT
00099e  2901              CMP      r1,#1
0009a0  da00              BGE      |L1.2468|
0009a2  701a              STRB     r2,[r3,#0]
                  |L1.2468|
;;;647    snmp_dt_error[1]=ND_EXT[1];
0009a4  7866              LDRB     r6,[r4,#1]  ; ND_EXT
0009a6  705e              STRB     r6,[r3,#1]
;;;648    if(NUMDT<2)snmp_dt_error[0]=0xff;
0009a8  2902              CMP      r1,#2
0009aa  da00              BGE      |L1.2478|
0009ac  701a              STRB     r2,[r3,#0]
                  |L1.2478|
;;;649    snmp_dt_error[2]=ND_EXT[2];
0009ae  78a4              LDRB     r4,[r4,#2]  ; ND_EXT
0009b0  709c              STRB     r4,[r3,#2]
;;;650    if(NUMDT<3)snmp_dt_error[0]=0xff;
0009b2  2903              CMP      r1,#3
0009b4  da00              BGE      |L1.2488|
0009b6  701a              STRB     r2,[r3,#0]
                  |L1.2488|
;;;651    //snmp_dt_error[3]=ND_EXT[3];
;;;652    if(NUMDT<4)snmp_dt_error[0]=0xff;
0009b8  2904              CMP      r1,#4
0009ba  da00              BGE      |L1.2494|
0009bc  701a              STRB     r2,[r3,#0]
                  |L1.2494|
;;;653    
;;;654    /*
;;;655    //Литиевые батареи
;;;656    snmp_lakb_number[0]=1;								//Номер ЛАКБ
;;;657    snmp_lakb_number[1]=2;								//Номер ЛАКБ
;;;658    snmp_lakb_voltage[0]=lakb[0]._tot_bat_volt;				//Напряжение ЛАКБ
;;;659    snmp_lakb_voltage[1]=lakb[1]._tot_bat_volt;				//Напряжение ЛАКБ
;;;660    snmp_lakb_max_cell_voltage[0]=lakb[0]._max_cell_volt;		//Максимальное напряжение ячейки ЛАКБ
;;;661    snmp_lakb_max_cell_voltage[1]=lakb[1]._max_cell_volt;		//Максимальное напряжение ячейки ЛАКБ
;;;662    snmp_lakb_min_cell_voltage[0]=lakb[0]._min_cell_volt;		//Минимальное напряжение ячейки ЛАКБ
;;;663    snmp_lakb_min_cell_voltage[1]=lakb[1]._min_cell_volt;		//Минимальное напряжение ячейки ЛАКБ
;;;664    snmp_lakb_max_cell_temperature[0]=lakb[0]._max_cell_temp;	//Максимальная температура ячейки ЛАКБ
;;;665    snmp_lakb_max_cell_temperature[1]=lakb[1]._max_cell_temp;	//Максимальная температура ячейки ЛАКБ
;;;666    snmp_lakb_min_cell_temperature[0]=lakb[0]._min_cell_temp;	//Минимальная температура ячейки ЛАКБ
;;;667    snmp_lakb_min_cell_temperature[1]=lakb[1]._min_cell_temp;	//Минимальная температура ячейки ЛАКБ
;;;668    snmp_lakb_ch_curr[0]=lakb[0]._ch_curr;					//Ток заряда ЛАКБ
;;;669    snmp_lakb_ch_curr[1]=lakb[1]._ch_curr;					//Ток заряда ЛАКБ
;;;670    snmp_lakb_dsch_curr[0]=lakb[0]._dsch_curr;				//Ток разряда ЛАКБ
;;;671    snmp_lakb_dsch_curr[1]=lakb[1]._dsch_curr;				//Ток разряда ЛАКБ
;;;672    snmp_lakb_rat_cap[0]=lakb[0]._rat_cap;					//Номинальная емкость ЛАКБ
;;;673    snmp_lakb_rat_cap[1]=lakb[1]._rat_cap;					//Номинальная емкость ЛАКБ
;;;674    snmp_lakb_soh[0]=lakb[0]._s_o_h;						//Остаточная емкость ЛАКБ
;;;675    snmp_lakb_soh[1]=lakb[1]._s_o_h;						//Остаточная емкость ЛАКБ
;;;676    snmp_lakb_soc[0]=lakb[0]._s_o_c;						//Заряд ЛАКБ
;;;677    snmp_lakb_soc[1]=lakb[1]._s_o_c;						//Заряд ЛАКБ
;;;678    snmp_lakb_cclv[0]=lakb[0]._c_c_l_v;  					//Максимальный ток заряда ЛАКБ
;;;679    snmp_lakb_cclv[1]=lakb[1]._c_c_l_v;  					//Максимальный ток заряда ЛАКБ
;;;680    snmp_lakb_rbt[0]=lakb[0]._r_b_t;						//Оцениваемое время работы ЛАКБ
;;;681    snmp_lakb_rbt[1]=lakb[1]._r_b_t;						//Оцениваемое время работы ЛАКБ
;;;682    snmp_lakb_flags1[0]=lakb[0]._flags1;					//Первый флаг состояния ЛАКБ
;;;683    snmp_lakb_flags1[1]=lakb[1]._flags1;					//Первый флаг состояния ЛАКБ
;;;684    snmp_lakb_flags2[0]=lakb[0]._flags2;					//Второй флаг состояния ЛАКБ
;;;685    snmp_lakb_flags2[1]=lakb[1]._flags2;					//Второй флаг состояния ЛАКБ */
;;;686    
;;;687    //Литиевые батареи
;;;688    snmp_lakb_number[0]=1;								//Номер ЛАКБ
0009be  49df              LDR      r1,|L1.3388|
0009c0  3168              ADDS     r1,r1,#0x68
0009c2  8008              STRH     r0,[r1,#0]
;;;689    snmp_lakb_number[1]=2;								//Номер ЛАКБ
0009c4  f8a19002          STRH     r9,[r1,#2]
;;;690    snmp_lakb_number[2]=3;								//Номер ЛАКБ
0009c8  f8a1a004          STRH     r10,[r1,#4]
;;;691    snmp_lakb_number[3]=4;								//Номер ЛАКБ
0009cc  80cd              STRH     r5,[r1,#6]
;;;692    snmp_lakb_number[4]=5;								//Номер ЛАКБ
0009ce  2005              MOVS     r0,#5
0009d0  8108              STRH     r0,[r1,#8]
;;;693    snmp_lakb_number[5]=6;								//Номер ЛАКБ
0009d2  2006              MOVS     r0,#6
0009d4  8148              STRH     r0,[r1,#0xa]
;;;694    snmp_lakb_number[6]=7;								//Номер ЛАКБ
0009d6  2007              MOVS     r0,#7
0009d8  8188              STRH     r0,[r1,#0xc]
;;;695    
;;;696    for (i=0;i<3;i++)
0009da  2000              MOVS     r0,#0
;;;697    	{
;;;698    	snmp_lakb_voltage[i]=lakb[i]._tot_bat_volt;				//Напряжение ЛАКБ
0009dc  4ddc              LDR      r5,|L1.3408|
0009de  f101030e          ADD      r3,r1,#0xe
;;;699    	snmp_lakb_max_cell_voltage[i]=lakb[i]._max_cell_volt;		//Максимальное напряжение ячейки ЛАКБ
0009e2  f101061c          ADD      r6,r1,#0x1c
;;;700    	snmp_lakb_min_cell_voltage[i]=lakb[i]._min_cell_volt;		//Минимальное напряжение ячейки ЛАКБ
0009e6  f101072a          ADD      r7,r1,#0x2a
;;;701    	snmp_lakb_max_cell_temperature[i]=lakb[i]._max_cell_temp;	//Максимальная температура ячейки ЛАКБ
0009ea  f1010c38          ADD      r12,r1,#0x38
;;;702    	//snmp_lakb_max_cell_temperature[1]=lakb[1]._max_cell_temp;	//Максимальная температура ячейки ЛАКБ
;;;703    	snmp_lakb_min_cell_temperature[i]=lakb[i]._min_cell_temp;	//Минимальная температура ячейки ЛАКБ
0009ee  f1010846          ADD      r8,r1,#0x46
;;;704    	//snmp_lakb_min_cell_temperature[1]=lakb[1]._min_cell_temp;	//Минимальная температура ячейки ЛАКБ
;;;705    	snmp_lakb_ch_curr[i]=lakb[i]._ch_curr;					//Ток заряда ЛАКБ
0009f2  f1010954          ADD      r9,r1,#0x54
;;;706    	//snmp_lakb_ch_curr[1]=lakb[1]._ch_curr;					//Ток заряда ЛАКБ
;;;707    	snmp_lakb_dsch_curr[i]=lakb[i]._dsch_curr;				//Ток разряда ЛАКБ
0009f6  f1010a62          ADD      r10,r1,#0x62
;;;708    	//snmp_lakb_dsch_curr[1]=lakb[1]._dsch_curr;				//Ток разряда ЛАКБ
;;;709    	snmp_lakb_rat_cap[i]=lakb[i]._rat_cap;					//Номинальная емкость ЛАКБ
0009fa  f1010b70          ADD      r11,r1,#0x70
;;;710    	//snmp_lakb_rat_cap[1]=lakb[1]._rat_cap;					//Номинальная емкость ЛАКБ
;;;711    	snmp_lakb_soh[i]=lakb[i]._s_o_h;						//Остаточная емкость ЛАКБ
0009fe  f1010e7e          ADD      lr,r1,#0x7e
                  |L1.2562|
000a02  eb000140          ADD      r1,r0,r0,LSL #1       ;698
000a06  eb011200          ADD      r2,r1,r0,LSL #4       ;698
000a0a  eb050182          ADD      r1,r5,r2,LSL #2       ;698
000a0e  890c              LDRH     r4,[r1,#8]            ;698
000a10  f8234010          STRH     r4,[r3,r0,LSL #1]     ;698
000a14  f8352022          LDRH     r2,[r5,r2,LSL #2]     ;699
000a18  f8262010          STRH     r2,[r6,r0,LSL #1]     ;699
000a1c  884a              LDRH     r2,[r1,#2]            ;700
000a1e  f8272010          STRH     r2,[r7,r0,LSL #1]     ;700
000a22  888a              LDRH     r2,[r1,#4]            ;701
000a24  f82c2010          STRH     r2,[r12,r0,LSL #1]    ;701
000a28  88ca              LDRH     r2,[r1,#6]            ;703
000a2a  f8282010          STRH     r2,[r8,r0,LSL #1]     ;703
000a2e  894a              LDRH     r2,[r1,#0xa]          ;705
000a30  f8292010          STRH     r2,[r9,r0,LSL #1]     ;705
000a34  898a              LDRH     r2,[r1,#0xc]          ;707
000a36  f82a2010          STRH     r2,[r10,r0,LSL #1]    ;707
000a3a  89ca              LDRH     r2,[r1,#0xe]          ;709
000a3c  f82b2010          STRH     r2,[r11,r0,LSL #1]    ;709
000a40  8a0a              LDRH     r2,[r1,#0x10]
000a42  f82e2010          STRH     r2,[lr,r0,LSL #1]
;;;712    	//snmp_lakb_soh[1]=lakb[1]._s_o_h;						//Остаточная емкость ЛАКБ
;;;713    	snmp_lakb_soc[i]=lakb[i]._s_o_c;						//Заряд ЛАКБ
000a46  4abd              LDR      r2,|L1.3388|
000a48  8a4c              LDRH     r4,[r1,#0x12]
000a4a  32f4              ADDS     r2,r2,#0xf4
000a4c  f8224010          STRH     r4,[r2,r0,LSL #1]
;;;714    	//snmp_lakb_soc[1]=lakb[1]._s_o_c;						//Заряд ЛАКБ
;;;715    	snmp_lakb_cclv[i]=lakb[i]._c_c_l_v;  					//Максимальный ток заряда ЛАКБ
000a50  320e              ADDS     r2,r2,#0xe
000a52  8a8c              LDRH     r4,[r1,#0x14]
000a54  f8224010          STRH     r4,[r2,r0,LSL #1]
;;;716    	//snmp_lakb_cclv[1]=lakb[1]._c_c_l_v;  					//Максимальный ток заряда ЛАКБ
;;;717    	snmp_lakb_rbt[i]=lakb[i]._r_b_t;						//Оцениваемое время работы ЛАКБ
000a58  320e              ADDS     r2,r2,#0xe
000a5a  8acc              LDRH     r4,[r1,#0x16]
000a5c  f8224010          STRH     r4,[r2,r0,LSL #1]
;;;718    	//snmp_lakb_rbt[1]=lakb[1]._r_b_t;						//Оцениваемое время работы ЛАКБ
;;;719    	snmp_lakb_flags1[i]=lakb[i]._flags1;					//Первый флаг состояния ЛАКБ
000a60  8b4c              LDRH     r4,[r1,#0x1a]
000a62  320e              ADDS     r2,r2,#0xe
000a64  e000              B        |L1.2664|
                  |L1.2662|
000a66  e02a              B        |L1.2750|
                  |L1.2664|
000a68  f8224010          STRH     r4,[r2,r0,LSL #1]
;;;720    	//snmp_lakb_flags1[1]=lakb[1]._flags1;					//Первый флаг состояния ЛАКБ
;;;721    	snmp_lakb_flags2[i]=lakb[i]._flags2;					//Второй флаг состояния ЛАКБ
000a6c  320e              ADDS     r2,r2,#0xe
000a6e  8b8c              LDRH     r4,[r1,#0x1c]
000a70  f8224010          STRH     r4,[r2,r0,LSL #1]
;;;722    	//snmp_lakb_flags2[1]=lakb[1]._flags2;					//Второй флаг состояния ЛАКБ
;;;723    
;;;724    	snmp_lakb_cell_temperature_1[i]= lakb[i]._cell_temp_1;
000a74  4ab3              LDR      r2,|L1.3396|
000a76  f891403a          LDRB     r4,[r1,#0x3a]
000a7a  1d92              ADDS     r2,r2,#6
000a7c  5414              STRB     r4,[r2,r0]
;;;725    	snmp_lakb_cell_temperature_2[i]= lakb[i]._cell_temp_2;
000a7e  4cb1              LDR      r4,|L1.3396|
000a80  f891203b          LDRB     r2,[r1,#0x3b]
000a84  3409              ADDS     r4,r4,#9
000a86  5422              STRB     r2,[r4,r0]
;;;726    	snmp_lakb_cell_temperature_3[i]= lakb[i]._cell_temp_3;
000a88  1ce4              ADDS     r4,r4,#3
000a8a  f891203c          LDRB     r2,[r1,#0x3c]
000a8e  5422              STRB     r2,[r4,r0]
;;;727    	snmp_lakb_cell_temperature_4[i]= lakb[i]._cell_temp_4;
000a90  1ce4              ADDS     r4,r4,#3
000a92  f891203d          LDRB     r2,[r1,#0x3d]
000a96  5422              STRB     r2,[r4,r0]
;;;728    	snmp_lakb_cell_temperature_ambient[i]=lakb[i]._cell_temp_ambient;
000a98  1ce4              ADDS     r4,r4,#3
000a9a  f891203e          LDRB     r2,[r1,#0x3e]
000a9e  5422              STRB     r2,[r4,r0]
;;;729    	snmp_lakb_cell_temperature_power[i]=lakb[i]._cell_temp_power;
000aa0  1ce2              ADDS     r2,r4,#3
000aa2  f891103f          LDRB     r1,[r1,#0x3f]
000aa6  5411              STRB     r1,[r2,r0]
000aa8  1c40              ADDS     r0,r0,#1              ;696
000aaa  b2c0              UXTB     r0,r0                 ;696
000aac  2803              CMP      r0,#3                 ;696
000aae  d3a8              BCC      |L1.2562|
;;;730    	}
;;;731    
;;;732    for (i=0;i<7;i++)
000ab0  2000              MOVS     r0,#0
                  |L1.2738|
000ab2  1c40              ADDS     r0,r0,#1
000ab4  b2c0              UXTB     r0,r0
000ab6  2807              CMP      r0,#7
000ab8  d3fb              BCC      |L1.2738|
                  |L1.2746|
;;;733    {
;;;734    /*
;;;735    snmp_lakb_damp1[i][0]=ABCDEF[(lakb_damp[i][0])>>4];			//Дамп
;;;736    snmp_lakb_damp1[i][1]=ABCDEF[(lakb_damp[i][0])&0x0f];			//Дамп
;;;737    snmp_lakb_damp1[i][2]=' ';
;;;738    snmp_lakb_damp1[i][3]=ABCDEF[(lakb_damp[i][1])>>4];			//Дамп
;;;739    snmp_lakb_damp1[i][4]=ABCDEF[(lakb_damp[i][1])&0x0f];			//Дамп
;;;740    snmp_lakb_damp1[i][5]=' ';
;;;741    snmp_lakb_damp1[i][6]=ABCDEF[(lakb_damp[i][2])>>4];			//Дамп
;;;742    snmp_lakb_damp1[i][7]=ABCDEF[(lakb_damp[i][2])&0x0f];			//Дамп
;;;743    snmp_lakb_damp1[i][8]=' ';
;;;744    snmp_lakb_damp1[i][9]=ABCDEF[(lakb_damp[i][3])>>4];			//Дамп
;;;745    snmp_lakb_damp1[i][10]=ABCDEF[(lakb_damp[i][3])&0x0f];			//Дамп
;;;746    snmp_lakb_damp1[i][11]=' ';
;;;747    snmp_lakb_damp1[i][12]=ABCDEF[(lakb_damp[i][4])>>4];			//Дамп
;;;748    snmp_lakb_damp1[i][13]=ABCDEF[(lakb_damp[i][4])&0x0f];			//Дамп
;;;749    snmp_lakb_damp1[i][14]=' '; 
;;;750    snmp_lakb_damp1[i][15]=ABCDEF[(lakb_damp[i][5])>>4];			//Дамп
;;;751    snmp_lakb_damp1[i][16]=ABCDEF[(lakb_damp[i][5])&0x0f];			//Дамп
;;;752    snmp_lakb_damp1[i][17]=' ';
;;;753    snmp_lakb_damp1[i][18]=ABCDEF[(lakb_damp[i][6])>>4];			//Дамп
;;;754    snmp_lakb_damp1[i][19]=ABCDEF[(lakb_damp[i][6])&0x0f];			//Дамп
;;;755    snmp_lakb_damp1[i][20]=' ';
;;;756    snmp_lakb_damp1[i][21]=ABCDEF[(lakb_damp[i][7])>>4];			//Дамп
;;;757    snmp_lakb_damp1[i][22]=ABCDEF[(lakb_damp[i][7])&0x0f];			//Дамп
;;;758    snmp_lakb_damp1[i][23]=' ';
;;;759    snmp_lakb_damp1[i][24]=ABCDEF[(lakb_damp[i][8])>>4];			//Дамп
;;;760    snmp_lakb_damp1[i][25]=ABCDEF[(lakb_damp[i][8])&0x0f];			//Дамп
;;;761    snmp_lakb_damp1[i][26]=' ';
;;;762    snmp_lakb_damp1[i][27]=ABCDEF[(lakb_damp[i][9])>>4];			//Дамп
;;;763    snmp_lakb_damp1[i][28]=ABCDEF[(lakb_damp[i][9])&0x0f];			//Дамп
;;;764    snmp_lakb_damp1[i][29]=0; 
;;;765    
;;;766    snmp_lakb_damp1[i][30]=ABCDEF[(lakb_damp[i][10])>>4];			//Дамп
;;;767    snmp_lakb_damp1[i][31]=ABCDEF[(lakb_damp[i][10])&0x0f];			//Дамп
;;;768    snmp_lakb_damp1[i][32]=' ';
;;;769    snmp_lakb_damp1[i][33]=ABCDEF[(lakb_damp[i][11])>>4];			//Дамп
;;;770    snmp_lakb_damp1[i][34]=ABCDEF[(lakb_damp[i][11])&0x0f];			//Дамп
;;;771    snmp_lakb_damp1[i][35]=' ';
;;;772    snmp_lakb_damp1[i][36]=ABCDEF[(lakb_damp[i][12])>>4];			//Дамп
;;;773    snmp_lakb_damp1[i][37]=ABCDEF[(lakb_damp[i][12])&0x0f];			//Дамп
;;;774    snmp_lakb_damp1[i][38]=' ';
;;;775    snmp_lakb_damp1[i][39]=ABCDEF[(lakb_damp[i][13])>>4];			//Дамп
;;;776    snmp_lakb_damp1[i][40]=ABCDEF[(lakb_damp[i][13])&0x0f];			//Дамп
;;;777    snmp_lakb_damp1[i][41]=' ';
;;;778    snmp_lakb_damp1[i][42]=ABCDEF[(lakb_damp[i][14])>>4];			//Дамп
;;;779    snmp_lakb_damp1[i][43]=ABCDEF[(lakb_damp[i][14])&0x0f];			//Дамп
;;;780    snmp_lakb_damp1[i][44]=' '; 
;;;781    snmp_lakb_damp1[i][45]=ABCDEF[(lakb_damp[i][15])>>4];			//Дамп
;;;782    snmp_lakb_damp1[i][46]=ABCDEF[(lakb_damp[i][15])&0x0f];			//Дамп
;;;783    snmp_lakb_damp1[i][47]=' ';
;;;784    snmp_lakb_damp1[i][48]=ABCDEF[(lakb_damp[i][16])>>4];			//Дамп
;;;785    snmp_lakb_damp1[i][49]=ABCDEF[(lakb_damp[i][16])&0x0f];			//Дамп
;;;786    snmp_lakb_damp1[i][50]=' ';
;;;787    snmp_lakb_damp1[i][51]=ABCDEF[(lakb_damp[i][17])>>4];			//Дамп
;;;788    snmp_lakb_damp1[i][52]=ABCDEF[(lakb_damp[i][17])&0x0f];			//Дамп
;;;789    snmp_lakb_damp1[i][53]=' ';
;;;790    snmp_lakb_damp1[i][54]=ABCDEF[(lakb_damp[i][18])>>4];			//Дамп
;;;791    snmp_lakb_damp1[i][55]=ABCDEF[(lakb_damp[i][18])&0x0f];			//Дамп
;;;792    snmp_lakb_damp1[i][56]=' ';
;;;793    snmp_lakb_damp1[i][57]=ABCDEF[(lakb_damp[i][19])>>4];			//Дамп
;;;794    snmp_lakb_damp1[i][58]=ABCDEF[(lakb_damp[i][19])&0x0f];			//Дамп
;;;795    snmp_lakb_damp1[i][59]=0; 
;;;796    
;;;797    
;;;798    snmp_lakb_damp1[i][60]=ABCDEF[(lakb_damp[i][20])>>4];			//Дамп
;;;799    snmp_lakb_damp1[i][61]=ABCDEF[(lakb_damp[i][20])&0x0f];			//Дамп
;;;800    snmp_lakb_damp1[i][62]=' ';
;;;801    snmp_lakb_damp1[i][63]=ABCDEF[(lakb_damp[i][21])>>4];			//Дамп
;;;802    snmp_lakb_damp1[i][64]=ABCDEF[(lakb_damp[i][21])&0x0f];			//Дамп
;;;803    snmp_lakb_damp1[i][65]=' ';
;;;804    snmp_lakb_damp1[i][66]=ABCDEF[(lakb_damp[i][22])>>4];			//Дамп
;;;805    snmp_lakb_damp1[i][67]=ABCDEF[(lakb_damp[i][22])&0x0f];			//Дамп
;;;806    snmp_lakb_damp1[i][68]=' ';
;;;807    snmp_lakb_damp1[i][69]=ABCDEF[(lakb_damp[i][23])>>4];			//Дамп
;;;808    snmp_lakb_damp1[i][70]=ABCDEF[(lakb_damp[i][23])&0x0f];			//Дамп
;;;809    snmp_lakb_damp1[i][71]=' ';
;;;810    snmp_lakb_damp1[i][72]=ABCDEF[(lakb_damp[i][24])>>4];			//Дамп
;;;811    snmp_lakb_damp1[i][73]=ABCDEF[(lakb_damp[i][24])&0x0f];			//Дамп
;;;812    snmp_lakb_damp1[i][74]=' '; 
;;;813    snmp_lakb_damp1[i][75]=ABCDEF[(lakb_damp[i][25])>>4];			//Дамп
;;;814    snmp_lakb_damp1[i][76]=ABCDEF[(lakb_damp[i][25])&0x0f];			//Дамп
;;;815    snmp_lakb_damp1[i][77]=' ';
;;;816    snmp_lakb_damp1[i][78]=ABCDEF[(lakb_damp[i][26])>>4];			//Дамп
;;;817    snmp_lakb_damp1[i][79]=ABCDEF[(lakb_damp[i][26])&0x0f];			//Дамп
;;;818    snmp_lakb_damp1[i][80]=' ';
;;;819    snmp_lakb_damp1[i][81]=ABCDEF[(lakb_damp[i][27])>>4];			//Дамп
;;;820    snmp_lakb_damp1[i][82]=ABCDEF[(lakb_damp[i][27])&0x0f];			//Дамп
;;;821    snmp_lakb_damp1[i][83]=' ';
;;;822    snmp_lakb_damp1[i][84]=ABCDEF[(lakb_damp[i][28])>>4];			//Дамп
;;;823    snmp_lakb_damp1[i][85]=ABCDEF[(lakb_damp[i][28])&0x0f];			//Дамп
;;;824    snmp_lakb_damp1[i][86]=' ';
;;;825    snmp_lakb_damp1[i][87]=ABCDEF[(lakb_damp[i][29])>>4];			//Дамп
;;;826    snmp_lakb_damp1[i][88]=ABCDEF[(lakb_damp[i][29])&0x0f];			//Дамп
;;;827    snmp_lakb_damp1[i][89]=0;
;;;828    
;;;829    
;;;830    snmp_lakb_damp1[i][90]=ABCDEF[(lakb_damp[i][30])>>4];			//Дамп
;;;831    snmp_lakb_damp1[i][91]=ABCDEF[(lakb_damp[i][30])&0x0f];			//Дамп
;;;832    snmp_lakb_damp1[i][92]=' ';
;;;833    snmp_lakb_damp1[i][93]=ABCDEF[(lakb_damp[i][31])>>4];			//Дамп
;;;834    snmp_lakb_damp1[i][94]=ABCDEF[(lakb_damp[i][31])&0x0f];			//Дамп
;;;835    snmp_lakb_damp1[i][95]=' ';
;;;836    snmp_lakb_damp1[i][96]=ABCDEF[(lakb_damp[i][32])>>4];			//Дамп
;;;837    snmp_lakb_damp1[i][97]=ABCDEF[(lakb_damp[i][32])&0x0f];			//Дамп
;;;838    snmp_lakb_damp1[i][98]=' ';
;;;839    snmp_lakb_damp1[i][99]=ABCDEF[(lakb_damp[i][33])>>4];			//Дамп
;;;840    snmp_lakb_damp1[i][100]=ABCDEF[(lakb_damp[i][33])&0x0f];			//Дамп
;;;841    snmp_lakb_damp1[i][101]=' ';
;;;842    snmp_lakb_damp1[i][102]=ABCDEF[(lakb_damp[i][34])>>4];			//Дамп
;;;843    snmp_lakb_damp1[i][103]=ABCDEF[(lakb_damp[i][34])&0x0f];			//Дамп
;;;844    snmp_lakb_damp1[i][104]=' '; 
;;;845    snmp_lakb_damp1[i][105]=ABCDEF[(lakb_damp[i][35])>>4];			//Дамп
;;;846    snmp_lakb_damp1[i][106]=ABCDEF[(lakb_damp[i][35])&0x0f];			//Дамп
;;;847    snmp_lakb_damp1[i][107]=' ';
;;;848    snmp_lakb_damp1[i][108]=ABCDEF[(lakb_damp[i][36])>>4];			//Дамп
;;;849    snmp_lakb_damp1[i][109]=ABCDEF[(lakb_damp[i][36])&0x0f];			//Дамп
;;;850    snmp_lakb_damp1[i][110]=' ';
;;;851    snmp_lakb_damp1[i][111]=ABCDEF[(lakb_damp[i][37])>>4];			//Дамп
;;;852    snmp_lakb_damp1[i][112]=ABCDEF[(lakb_damp[i][37])&0x0f];			//Дамп
;;;853    snmp_lakb_damp1[i][113]=' ';
;;;854    snmp_lakb_damp1[i][114]=ABCDEF[(lakb_damp[i][38])>>4];			//Дамп
;;;855    snmp_lakb_damp1[i][115]=ABCDEF[(lakb_damp[i][38])&0x0f];			//Дамп
;;;856    snmp_lakb_damp1[i][116]=' ';
;;;857    snmp_lakb_damp1[i][117]=ABCDEF[(lakb_damp[i][39])>>4];			//Дамп
;;;858    snmp_lakb_damp1[i][118]=ABCDEF[(lakb_damp[i][39])&0x0f];			//Дамп
;;;859    snmp_lakb_damp1[i][119]=0; 
;;;860     
;;;861    
;;;862    snmp_lakb_damp1[i][120]=ABCDEF[(lakb_damp[i][40])>>4];			//Дамп
;;;863    snmp_lakb_damp1[i][121]=ABCDEF[(lakb_damp[i][40])&0x0f];			//Дамп
;;;864    snmp_lakb_damp1[i][122]=' ';
;;;865    snmp_lakb_damp1[i][123]=ABCDEF[(lakb_damp[i][41])>>4];			//Дамп
;;;866    snmp_lakb_damp1[i][124]=ABCDEF[(lakb_damp[i][41])&0x0f];			//Дамп
;;;867    snmp_lakb_damp1[i][125]=' ';
;;;868    snmp_lakb_damp1[i][126]=ABCDEF[(lakb_damp[i][42])>>4];			//Дамп
;;;869    snmp_lakb_damp1[i][127]=ABCDEF[(lakb_damp[i][42])&0x0f];			//Дамп
;;;870    snmp_lakb_damp1[i][128]=' ';
;;;871    snmp_lakb_damp1[i][129]=ABCDEF[(lakb_damp[i][43])>>4];			//Дамп
;;;872    snmp_lakb_damp1[i][130]=ABCDEF[(lakb_damp[i][43])&0x0f];			//Дамп
;;;873    snmp_lakb_damp1[i][131]=' ';
;;;874    snmp_lakb_damp1[i][132]=ABCDEF[(lakb_damp[i][44])>>4];			//Дамп
;;;875    snmp_lakb_damp1[i][133]=ABCDEF[(lakb_damp[i][44])&0x0f];			//Дамп
;;;876    snmp_lakb_damp1[i][134]=' '; 
;;;877    snmp_lakb_damp1[i][135]=ABCDEF[(lakb_damp[i][45])>>4];			//Дамп
;;;878    snmp_lakb_damp1[i][136]=ABCDEF[(lakb_damp[i][45])&0x0f];			//Дамп
;;;879    snmp_lakb_damp1[i][137]=' ';
;;;880    snmp_lakb_damp1[i][138]=ABCDEF[(lakb_damp[i][46])>>4];			//Дамп
;;;881    snmp_lakb_damp1[i][139]=ABCDEF[(lakb_damp[i][46])&0x0f];			//Дамп
;;;882    snmp_lakb_damp1[i][140]=' ';
;;;883    snmp_lakb_damp1[i][141]=ABCDEF[(lakb_damp[i][47])>>4];			//Дамп
;;;884    snmp_lakb_damp1[i][142]=ABCDEF[(lakb_damp[i][47])&0x0f];			//Дамп
;;;885    snmp_lakb_damp1[i][143]=' ';
;;;886    snmp_lakb_damp1[i][144]=ABCDEF[(lakb_damp[i][48])>>4];			//Дамп
;;;887    snmp_lakb_damp1[i][145]=ABCDEF[(lakb_damp[i][48])&0x0f];			//Дамп
;;;888    snmp_lakb_damp1[i][146]=' ';
;;;889    snmp_lakb_damp1[i][147]=ABCDEF[(lakb_damp[i][49])>>4];			//Дамп
;;;890    snmp_lakb_damp1[i][148]=ABCDEF[(lakb_damp[i][49])&0x0f];			//Дамп
;;;891    snmp_lakb_damp1[i][149]=0;  */
;;;892    }
;;;893    
;;;894    #ifdef UKU_TELECORE2017
;;;895    snmp_warm_sign=0;
;;;896    if(TELECORE2017_KLIMAT_WARM_SIGNAL==0) snmp_warm_sign=2;
;;;897    else if(TELECORE2017_KLIMAT_WARM_SIGNAL==1) snmp_warm_sign=1;
;;;898    snmp_cool_sign=0;
;;;899    if(TELECORE2017_KLIMAT_VENT_SIGNAL==0) snmp_cool_sign=2;
;;;900    else if(TELECORE2017_KLIMAT_VENT_SIGNAL==1) snmp_cool_sign=1;
;;;901    snmp_warm_on_temper=(signed char)TELECORE2017_KLIMAT_WARM_ON; 
;;;902    snmp_warm_off_temper=(signed char)TELECORE2017_KLIMAT_WARM_OFF;
;;;903    snmp_warm_q=(signed char)TELECORE2017_KLIMAT_CAP;	
;;;904    snmp_cool_20_temper=(signed char)TELECORE2017_KLIMAT_VENT_ON20;
;;;905    snmp_cool_40_temper=(signed char)TELECORE2017_KLIMAT_VENT_ON40;
;;;906    snmp_cool_60_temper=(signed char)TELECORE2017_KLIMAT_VENT_ON60;
;;;907    snmp_cool_80_temper=(signed char)TELECORE2017_KLIMAT_VENT_ON80;
;;;908    snmp_cool_100_temper=(signed char)TELECORE2017_KLIMAT_VENT_ON100;
;;;909    snmp_cool_20_dtemper=(signed char)TELECORE2017_KLIMAT_DVENT_ON20;
;;;910    snmp_cool_40_dtemper=(signed char)TELECORE2017_KLIMAT_DVENT_ON40;
;;;911    snmp_cool_60_dtemper=(signed char)TELECORE2017_KLIMAT_DVENT_ON60;
;;;912    snmp_cool_80_dtemper=(signed char)TELECORE2017_KLIMAT_DVENT_ON80;
;;;913    snmp_cool_100_dtemper=(signed char)TELECORE2017_KLIMAT_DVENT_ON100;
;;;914    snmp_warm_stat=0;
;;;915    if(warm_stat_k==wsON) snmp_warm_stat=1;
;;;916    #endif
;;;917    }
000aba  e8bd9ff0          POP      {r4-r12,pc}
                  |L1.2750|
000abe  54b1              STRB     r1,[r6,r2]            ;633
000ac0  e754              B        |L1.2412|
;;;918    //-----------------------------------------------
                          ENDP

                  snmp_sernum_write PROC
;;;919    void snmp_sernum_write (int mode) 
000ac2  b510              PUSH     {r4,lr}
;;;920    {
;;;921    if(mode==MIB_WRITE)
000ac4  2801              CMP      r0,#1
000ac6  d10d              BNE      |L1.2788|
;;;922    	{
;;;923    	lc640_write_long(EE_AUSW_MAIN_NUMBER,snmp_sernum);
000ac8  4c9e              LDR      r4,|L1.3396|
000aca  f44f70ab          MOV      r0,#0x156
000ace  3c10              SUBS     r4,r4,#0x10
000ad0  6aa1              LDR      r1,[r4,#0x28]  ; snmp_sernum
000ad2  f7fffffe          BL       lc640_write_long
;;;924    	lc640_write_long(EE_AUSW_UKU_NUMBER,snmp_sernum);
000ad6  6aa1              LDR      r1,[r4,#0x28]  ; snmp_sernum
000ad8  e8bd4010          POP      {r4,lr}
000adc  f44f70ac          MOV      r0,#0x158
000ae0  f7ffbffe          B.W      lc640_write_long
                  |L1.2788|
;;;925    	}
;;;926    }
000ae4  bd10              POP      {r4,pc}
;;;927    
                          ENDP

                  snmp_location_write PROC
;;;928    //-----------------------------------------------
;;;929    void snmp_location_write (int mode) 
000ae6  b570              PUSH     {r4-r6,lr}
;;;930    {
;;;931    char i;
;;;932    if(mode==MIB_WRITE)
000ae8  2801              CMP      r0,#1
000aea  d10a              BNE      |L1.2818|
;;;933    	{
;;;934    	for(i=0;i<64;i++)
000aec  2400              MOVS     r4,#0
;;;935    		{
;;;936    		lc640_write(EE_LOCATION+i,snmp_location[i]);
000aee  4d99              LDR      r5,|L1.3412|
                  |L1.2800|
000af0  f5047065          ADD      r0,r4,#0x394
000af4  5d29              LDRB     r1,[r5,r4]
000af6  f7fffffe          BL       lc640_write
000afa  1c64              ADDS     r4,r4,#1              ;934
000afc  b2e4              UXTB     r4,r4                 ;934
000afe  2c40              CMP      r4,#0x40              ;934
000b00  d3f6              BCC      |L1.2800|
                  |L1.2818|
;;;937    		}
;;;938    	}
;;;939    }
000b02  bd70              POP      {r4-r6,pc}
;;;940    
                          ENDP

                  snmp_alarm_aktiv_write1 PROC
;;;941    //-----------------------------------------------
;;;942    void snmp_alarm_aktiv_write1(int mode)
000b04  2801              CMP      r0,#1
;;;943    {
;;;944    if(mode==MIB_WRITE)
000b06  d10f              BNE      |L1.2856|
;;;945    	{
;;;946    	if(!snmp_sk_alarm_aktiv[0])   lc640_write_int(ADR_SK_SIGN[0],0xffff);
000b08  488e              LDR      r0,|L1.3396|
000b0a  3048              ADDS     r0,r0,#0x48
000b0c  7801              LDRB     r1,[r0,#0]  ; snmp_sk_alarm_aktiv
000b0e  4892              LDR      r0,|L1.3416|
000b10  b121              CBZ      r1,|L1.2844|
;;;947    	else lc640_write_int(ADR_SK_SIGN[0],0);
000b12  f9b00000          LDRSH    r0,[r0,#0]  ; ADR_SK_SIGN
000b16  2100              MOVS     r1,#0
000b18  f7ffbffe          B.W      lc640_write_int
                  |L1.2844|
000b1c  f9b00000          LDRSH    r0,[r0,#0]            ;946  ; ADR_SK_SIGN
000b20  f04f31ff          MOV      r1,#0xffffffff        ;946
000b24  f7ffbffe          B.W      lc640_write_int
                  |L1.2856|
;;;948    	}
;;;949    }
000b28  4770              BX       lr
;;;950    
                          ENDP

                  snmp_alarm_aktiv_write2 PROC
;;;951    //-----------------------------------------------
;;;952    void snmp_alarm_aktiv_write2(int mode)
000b2a  2801              CMP      r0,#1
;;;953    {
;;;954    if(mode==MIB_WRITE)
000b2c  d10f              BNE      |L1.2894|
;;;955    	{
;;;956    	if(!snmp_sk_alarm_aktiv[1])   lc640_write_int(ADR_SK_SIGN[1],0xffff);
000b2e  4885              LDR      r0,|L1.3396|
000b30  3048              ADDS     r0,r0,#0x48
000b32  7841              LDRB     r1,[r0,#1]  ; snmp_sk_alarm_aktiv
000b34  4888              LDR      r0,|L1.3416|
000b36  b121              CBZ      r1,|L1.2882|
;;;957    	else lc640_write_int(ADR_SK_SIGN[1],0);
000b38  f9b00002          LDRSH    r0,[r0,#2]  ; ADR_SK_SIGN
000b3c  2100              MOVS     r1,#0
000b3e  f7ffbffe          B.W      lc640_write_int
                  |L1.2882|
000b42  f9b00002          LDRSH    r0,[r0,#2]            ;956  ; ADR_SK_SIGN
000b46  f04f31ff          MOV      r1,#0xffffffff        ;956
000b4a  f7ffbffe          B.W      lc640_write_int
                  |L1.2894|
;;;958    	}
;;;959    }
000b4e  4770              BX       lr
;;;960    
                          ENDP

                  snmp_alarm_aktiv_write3 PROC
;;;961    //-----------------------------------------------
;;;962    void snmp_alarm_aktiv_write3(int mode)
000b50  2801              CMP      r0,#1
;;;963    {
;;;964    if(mode==MIB_WRITE)
000b52  d10f              BNE      |L1.2932|
;;;965    	{
;;;966    	if(!snmp_sk_alarm_aktiv[2])   lc640_write_int(ADR_SK_SIGN[2],0xffff);
000b54  487b              LDR      r0,|L1.3396|
000b56  3048              ADDS     r0,r0,#0x48
000b58  7881              LDRB     r1,[r0,#2]  ; snmp_sk_alarm_aktiv
000b5a  487f              LDR      r0,|L1.3416|
000b5c  b121              CBZ      r1,|L1.2920|
;;;967    	else lc640_write_int(ADR_SK_SIGN[2],0);
000b5e  f9b00004          LDRSH    r0,[r0,#4]  ; ADR_SK_SIGN
000b62  2100              MOVS     r1,#0
000b64  f7ffbffe          B.W      lc640_write_int
                  |L1.2920|
000b68  f9b00004          LDRSH    r0,[r0,#4]            ;966  ; ADR_SK_SIGN
000b6c  f04f31ff          MOV      r1,#0xffffffff        ;966
000b70  f7ffbffe          B.W      lc640_write_int
                  |L1.2932|
;;;968    	}
;;;969    }
000b74  4770              BX       lr
;;;970    
                          ENDP

                  snmp_alarm_aktiv_write4 PROC
;;;971    //-----------------------------------------------
;;;972    void snmp_alarm_aktiv_write4(int mode)
000b76  2801              CMP      r0,#1
;;;973    {
;;;974    if(mode==MIB_WRITE)
000b78  d10f              BNE      |L1.2970|
;;;975    	{
;;;976    	if(!snmp_sk_alarm_aktiv[3])   lc640_write_int(ADR_SK_SIGN[3],0xffff);
000b7a  4872              LDR      r0,|L1.3396|
000b7c  3048              ADDS     r0,r0,#0x48
000b7e  78c1              LDRB     r1,[r0,#3]  ; snmp_sk_alarm_aktiv
000b80  4875              LDR      r0,|L1.3416|
000b82  b121              CBZ      r1,|L1.2958|
;;;977    	else lc640_write_int(ADR_SK_SIGN[3],0);
000b84  f9b00006          LDRSH    r0,[r0,#6]  ; ADR_SK_SIGN
000b88  2100              MOVS     r1,#0
000b8a  f7ffbffe          B.W      lc640_write_int
                  |L1.2958|
000b8e  f9b00006          LDRSH    r0,[r0,#6]            ;976  ; ADR_SK_SIGN
000b92  f04f31ff          MOV      r1,#0xffffffff        ;976
000b96  f7ffbffe          B.W      lc640_write_int
                  |L1.2970|
;;;978    	}
;;;979    }
000b9a  4770              BX       lr
;;;980    
                          ENDP

                  snmp_main_bps_write PROC
;;;981    //-----------------------------------------------
;;;982    void snmp_main_bps_write (int mode)
000b9c  4770              BX       lr
;;;983    {
;;;984    if(mode==MIB_WRITE)
;;;985    	{
;;;986    //	lc640_write_int(EE_MAIN_BPS,snmp_main_bps-1);
;;;987    	}
;;;988    }
;;;989    
                          ENDP

                  snmp_zv_on_write PROC
;;;990    //-----------------------------------------------
;;;991    void snmp_zv_on_write (int mode)
000b9e  2801              CMP      r0,#1
;;;992    {
;;;993    if(mode==MIB_WRITE)
000ba0  d106              BNE      |L1.2992|
;;;994    	{
;;;995    	lc640_write_int(EE_ZV_ON,snmp_zv_en);
000ba2  4868              LDR      r0,|L1.3396|
000ba4  3890              SUBS     r0,r0,#0x90
000ba6  f9b01048          LDRSH    r1,[r0,#0x48]  ; snmp_zv_en
000baa  2086              MOVS     r0,#0x86
000bac  f7ffbffe          B.W      lc640_write_int
                  |L1.2992|
;;;996    	}
;;;997    }
000bb0  4770              BX       lr
;;;998    
                          ENDP

                  snmp_alarm_auto_disable_write PROC
;;;999    //-----------------------------------------------
;;;1000   void snmp_alarm_auto_disable_write (int mode)
000bb2  2801              CMP      r0,#1
;;;1001   {
;;;1002   if(mode==MIB_WRITE)
000bb4  d106              BNE      |L1.3012|
;;;1003   	{
;;;1004        lc640_write_int(EE_AV_OFF_AVT,snmp_alarm_auto_disable);
000bb6  4863              LDR      r0,|L1.3396|
000bb8  3890              SUBS     r0,r0,#0x90
000bba  f9b0104a          LDRSH    r1,[r0,#0x4a]  ; snmp_alarm_auto_disable
000bbe  2080              MOVS     r0,#0x80
000bc0  f7ffbffe          B.W      lc640_write_int
                  |L1.3012|
;;;1005   	}
;;;1006   }
000bc4  4770              BX       lr
;;;1007   
                          ENDP

                  snmp_bat_test_time_write PROC
;;;1008   //-----------------------------------------------
;;;1009   void snmp_bat_test_time_write (int mode)
000bc6  2801              CMP      r0,#1
;;;1010   {
;;;1011   if(mode==MIB_WRITE)
000bc8  d106              BNE      |L1.3032|
;;;1012   	{
;;;1013   	lc640_write_int(EE_TBAT,snmp_bat_test_time);
000bca  485e              LDR      r0,|L1.3396|
000bcc  3890              SUBS     r0,r0,#0x90
000bce  f9b0104c          LDRSH    r1,[r0,#0x4c]  ; snmp_bat_test_time
000bd2  20c2              MOVS     r0,#0xc2
000bd4  f7ffbffe          B.W      lc640_write_int
                  |L1.3032|
;;;1014   	}
;;;1015   }
000bd8  4770              BX       lr
;;;1016   
                          ENDP

                  snmp_u_max_write PROC
;;;1017   //-----------------------------------------------
;;;1018   void snmp_u_max_write (int mode)
000bda  2801              CMP      r0,#1
;;;1019   {
;;;1020   if(mode==MIB_WRITE)
000bdc  d106              BNE      |L1.3052|
;;;1021   	{
;;;1022        lc640_write_int(EE_UMAX,snmp_u_max);
000bde  4859              LDR      r0,|L1.3396|
000be0  3890              SUBS     r0,r0,#0x90
000be2  f9b0104e          LDRSH    r1,[r0,#0x4e]  ; snmp_u_max
000be6  2078              MOVS     r0,#0x78
000be8  f7ffbffe          B.W      lc640_write_int
                  |L1.3052|
;;;1023   	}
;;;1024   }
000bec  4770              BX       lr
;;;1025   
                          ENDP

                  snmp_u_min_write PROC
;;;1027   //-----------------------------------------------
;;;1028   void snmp_u_min_write (int mode)
000bee  2801              CMP      r0,#1
;;;1029   {
;;;1030   if(mode==MIB_WRITE)
000bf0  d10a              BNE      |L1.3080|
;;;1031   	{
;;;1032        lc640_write_int(EE_DU,UB20-snmp_u_min);
000bf2  4954              LDR      r1,|L1.3396|
000bf4  4859              LDR      r0,|L1.3420|
000bf6  3990              SUBS     r1,r1,#0x90
000bf8  8800              LDRH     r0,[r0,#0]  ; UB20
000bfa  f8b11050          LDRH     r1,[r1,#0x50]  ; snmp_u_min
000bfe  1a40              SUBS     r0,r0,r1
000c00  b201              SXTH     r1,r0
000c02  20c8              MOVS     r0,#0xc8
000c04  f7ffbffe          B.W      lc640_write_int
                  |L1.3080|
;;;1033   	}
;;;1034   }
000c08  4770              BX       lr
;;;1035   
                          ENDP

                  snmp_u_0_grad_write PROC
;;;1037   //-----------------------------------------------
;;;1038   void snmp_u_0_grad_write (int mode)
000c0a  2801              CMP      r0,#1
;;;1039   {
;;;1040   if(mode==MIB_WRITE)
000c0c  d106              BNE      |L1.3100|
;;;1041   	{
;;;1042   	lc640_write_int(EE_UB0,snmp_u_0_grad);
000c0e  484d              LDR      r0,|L1.3396|
000c10  3890              SUBS     r0,r0,#0x90
000c12  f9b01052          LDRSH    r1,[r0,#0x52]  ; snmp_u_0_grad
000c16  207a              MOVS     r0,#0x7a
000c18  f7ffbffe          B.W      lc640_write_int
                  |L1.3100|
;;;1043   	}
;;;1044   }
000c1c  4770              BX       lr
;;;1045   //-----------------------------------------------
                          ENDP

                  snmp_u_20_grad_write PROC
;;;1046   void snmp_u_20_grad_write (int mode)
000c1e  2801              CMP      r0,#1
;;;1047   {
;;;1048   if(mode==MIB_WRITE)
000c20  d106              BNE      |L1.3120|
;;;1049   	{
;;;1050   	lc640_write_int(EE_UB20,snmp_u_20_grad);
000c22  4848              LDR      r0,|L1.3396|
000c24  3890              SUBS     r0,r0,#0x90
000c26  f9b01054          LDRSH    r1,[r0,#0x54]  ; snmp_u_20_grad
000c2a  207c              MOVS     r0,#0x7c
000c2c  f7ffbffe          B.W      lc640_write_int
                  |L1.3120|
;;;1051   	}
;;;1052   }
000c30  4770              BX       lr
;;;1053   
                          ENDP

                  snmp_u_sign_write PROC
;;;1054   //-----------------------------------------------
;;;1055   void snmp_u_sign_write (int mode)
000c32  2801              CMP      r0,#1
;;;1056   {
;;;1057   if(mode==MIB_WRITE)
000c34  d106              BNE      |L1.3140|
;;;1058   	{
;;;1059       lc640_write_int(EE_USIGN,snmp_u_sign);
000c36  4843              LDR      r0,|L1.3396|
000c38  3890              SUBS     r0,r0,#0x90
000c3a  f9b01056          LDRSH    r1,[r0,#0x56]  ; snmp_u_sign
000c3e  2082              MOVS     r0,#0x82
000c40  f7ffbffe          B.W      lc640_write_int
                  |L1.3140|
;;;1060   	}
;;;1061   }
000c44  4770              BX       lr
;;;1062   //-----------------------------------------------
                          ENDP

                  snmp_u_min_power_write PROC
;;;1063   void snmp_u_min_power_write (int mode)
000c46  2801              CMP      r0,#1
;;;1064   {
;;;1065   if(mode==MIB_WRITE)
000c48  d106              BNE      |L1.3160|
;;;1066   	{
;;;1067   	lc640_write_int(EE_UMN,snmp_u_min_power);
000c4a  483e              LDR      r0,|L1.3396|
000c4c  3890              SUBS     r0,r0,#0x90
000c4e  f9b01058          LDRSH    r1,[r0,#0x58]  ; snmp_u_min_power
000c52  2084              MOVS     r0,#0x84
000c54  f7ffbffe          B.W      lc640_write_int
                  |L1.3160|
;;;1068   	}
;;;1069   }
000c58  4770              BX       lr
;;;1070   //-----------------------------------------------
                          ENDP

                  snmp_u_withouth_bat_write PROC
;;;1071   void snmp_u_withouth_bat_write (int mode)
000c5a  2801              CMP      r0,#1
;;;1072   {
;;;1073   if(mode==MIB_WRITE)
000c5c  d106              BNE      |L1.3180|
;;;1074   	{
;;;1075   	lc640_write_int(EE_U0B,snmp_u_withouth_bat);
000c5e  4839              LDR      r0,|L1.3396|
000c60  3890              SUBS     r0,r0,#0x90
000c62  f9b0105a          LDRSH    r1,[r0,#0x5a]  ; snmp_u_withouth_bat
000c66  2094              MOVS     r0,#0x94
000c68  f7ffbffe          B.W      lc640_write_int
                  |L1.3180|
;;;1076   	}
;;;1077   }
000c6c  4770              BX       lr
;;;1078   
                          ENDP

                  snmp_control_current_write PROC
;;;1079   //-----------------------------------------------
;;;1080   void snmp_control_current_write (int mode)
000c6e  2801              CMP      r0,#1
;;;1081   {
;;;1082   if(mode==MIB_WRITE)
000c70  d106              BNE      |L1.3200|
;;;1083   	{
;;;1084   	lc640_write_int(EE_IKB,snmp_control_current);
000c72  4834              LDR      r0,|L1.3396|
000c74  3890              SUBS     r0,r0,#0x90
000c76  f9b0105c          LDRSH    r1,[r0,#0x5c]  ; snmp_control_current
000c7a  2088              MOVS     r0,#0x88
000c7c  f7ffbffe          B.W      lc640_write_int
                  |L1.3200|
;;;1085   	}
;;;1086   }
000c80  4770              BX       lr
;;;1087   
                          ENDP

                  snmp_max_charge_current_write PROC
;;;1088   //-----------------------------------------------
;;;1089   void snmp_max_charge_current_write (int mode)
000c82  2801              CMP      r0,#1
;;;1090   {
;;;1091   if(mode==MIB_WRITE)
000c84  d106              BNE      |L1.3220|
;;;1092   	{
;;;1093   	lc640_write_int(EE_IZMAX,snmp_max_charge_current);
000c86  482f              LDR      r0,|L1.3396|
000c88  3890              SUBS     r0,r0,#0x90
000c8a  f9b0105e          LDRSH    r1,[r0,#0x5e]  ; snmp_max_charge_current
000c8e  2092              MOVS     r0,#0x92
000c90  f7ffbffe          B.W      lc640_write_int
                  |L1.3220|
;;;1094   	}
;;;1095   }
000c94  4770              BX       lr
;;;1096   
                          ENDP

                  snmp_max_current_write PROC
;;;1097   //-----------------------------------------------
;;;1098   void snmp_max_current_write (int mode)
000c96  2801              CMP      r0,#1
;;;1099   {
;;;1100   if(mode==MIB_WRITE)
000c98  d106              BNE      |L1.3240|
;;;1101   	{
;;;1102        lc640_write_int(EE_IMAX,snmp_max_current);
000c9a  482a              LDR      r0,|L1.3396|
000c9c  3890              SUBS     r0,r0,#0x90
000c9e  f9b01060          LDRSH    r1,[r0,#0x60]  ; snmp_max_current
000ca2  208c              MOVS     r0,#0x8c
000ca4  f7ffbffe          B.W      lc640_write_int
                  |L1.3240|
;;;1103   	}
;;;1104   }
000ca8  4770              BX       lr
;;;1105   
                          ENDP

                  snmp_min_current_write PROC
;;;1106   //-----------------------------------------------
;;;1107   void snmp_min_current_write (int mode)
000caa  2801              CMP      r0,#1
;;;1108   {
;;;1109   if(mode==MIB_WRITE)
000cac  d106              BNE      |L1.3260|
;;;1110   	{
;;;1111        lc640_write_int(EE_IMIN,snmp_min_current);
000cae  4825              LDR      r0,|L1.3396|
000cb0  3890              SUBS     r0,r0,#0x90
000cb2  f9b01062          LDRSH    r1,[r0,#0x62]  ; snmp_min_current
000cb6  208e              MOVS     r0,#0x8e
000cb8  f7ffbffe          B.W      lc640_write_int
                  |L1.3260|
;;;1112   	}
;;;1113   }
000cbc  4770              BX       lr
;;;1114   
                          ENDP

                  snmp_max_current_koef_write PROC
;;;1115   //-----------------------------------------------
;;;1116   void snmp_max_current_koef_write (int mode)
000cbe  4770              BX       lr
;;;1117   {
;;;1118   if(mode==MIB_WRITE)
;;;1119   	{
;;;1120   //    lc640_write_int(EE_KIMAX,snmp_max_current_koef);
;;;1121   	}
;;;1122   }
;;;1123   
                          ENDP

                  snmp_up_charge_koef_write PROC
;;;1124   //-----------------------------------------------
;;;1125   void snmp_up_charge_koef_write (int mode)
000cc0  4770              BX       lr
;;;1126   {
;;;1127   if(mode==MIB_WRITE)
;;;1128   	{
;;;1129    //    lc640_write_int(EE_KVZ,snmp_up_charge_koef);
;;;1130   	}
;;;1131   }
;;;1132   
                          ENDP

                  snmp_powerup_psu_timeout_write PROC
;;;1133   //-----------------------------------------------
;;;1134   void snmp_powerup_psu_timeout_write (int mode)
000cc2  2801              CMP      r0,#1
;;;1135   {
;;;1136   if(mode==MIB_WRITE)
000cc4  d106              BNE      |L1.3284|
;;;1137   	{
;;;1138        lc640_write_int(EE_TZAS,snmp_powerup_psu_timeout);
000cc6  481f              LDR      r0,|L1.3396|
000cc8  3890              SUBS     r0,r0,#0x90
000cca  f9b01066          LDRSH    r1,[r0,#0x66]  ; snmp_powerup_psu_timeout
000cce  2096              MOVS     r0,#0x96
000cd0  f7ffbffe          B.W      lc640_write_int
                  |L1.3284|
;;;1139   	}
;;;1140   }
000cd4  4770              BX       lr
;;;1141   
                          ENDP

                  snmp_max_temperature_write PROC
;;;1142   //-----------------------------------------------
;;;1143   void snmp_max_temperature_write (int mode)
000cd6  2801              CMP      r0,#1
;;;1144   {
;;;1145   if(mode==MIB_WRITE)
000cd8  d106              BNE      |L1.3304|
;;;1146   	{
;;;1147       lc640_write_int(EE_TMAX,snmp_max_temperature);
000cda  481a              LDR      r0,|L1.3396|
000cdc  3890              SUBS     r0,r0,#0x90
000cde  f9b01068          LDRSH    r1,[r0,#0x68]  ; snmp_max_temperature
000ce2  207e              MOVS     r0,#0x7e
000ce4  f7ffbffe          B.W      lc640_write_int
                  |L1.3304|
;;;1148   	}
;;;1149   }
000ce8  4770              BX       lr
;;;1150   
                          ENDP

                  snmp_tsign_bat_write PROC
;;;1151   //-----------------------------------------------
;;;1152   void snmp_tsign_bat_write(int mode)
000cea  2801              CMP      r0,#1
;;;1153   {
;;;1154   if(mode==MIB_WRITE)
000cec  d106              BNE      |L1.3324|
;;;1155   	{
;;;1156    	lc640_write_int(EE_TBATSIGN,snmp_tsign_bat);
000cee  4815              LDR      r0,|L1.3396|
000cf0  3890              SUBS     r0,r0,#0x90
000cf2  f9b0106a          LDRSH    r1,[r0,#0x6a]  ; snmp_tsign_bat
000cf6  20ce              MOVS     r0,#0xce
000cf8  f7ffbffe          B.W      lc640_write_int
                  |L1.3324|
;;;1157   	}
;;;1158   }
000cfc  4770              BX       lr
;;;1159   //-----------------------------------------------
                          ENDP

                  snmp_tmax_bat_write PROC
;;;1160   void snmp_tmax_bat_write(int mode)
000cfe  2801              CMP      r0,#1
;;;1161   {
;;;1162   if(mode==MIB_WRITE)
000d00  d106              BNE      |L1.3344|
;;;1163   	{
;;;1164    	lc640_write_int(EE_TBATMAX,snmp_tmax_bat);
000d02  4810              LDR      r0,|L1.3396|
000d04  3890              SUBS     r0,r0,#0x90
000d06  f9b0106c          LDRSH    r1,[r0,#0x6c]  ; snmp_tmax_bat
000d0a  20cc              MOVS     r0,#0xcc
000d0c  f7ffbffe          B.W      lc640_write_int
                  |L1.3344|
;;;1165   	}
;;;1166   }
000d10  4770              BX       lr
;;;1167   //-----------------------------------------------
                          ENDP

                  snmp_tsign_bps_write PROC
;;;1168   void snmp_tsign_bps_write(int mode)
000d12  2801              CMP      r0,#1
;;;1169   {
;;;1170   if(mode==MIB_WRITE)
000d14  d106              BNE      |L1.3364|
;;;1171   	{
;;;1172   	lc640_write_int(EE_TSIGN,snmp_tsign_bps);
000d16  480b              LDR      r0,|L1.3396|
000d18  3890              SUBS     r0,r0,#0x90
000d1a  f9b0106e          LDRSH    r1,[r0,#0x6e]  ; snmp_tsign_bps
000d1e  20c6              MOVS     r0,#0xc6
000d20  f7ffbffe          B.W      lc640_write_int
                  |L1.3364|
;;;1173   	}
;;;1174   }
000d24  4770              BX       lr
;;;1175   //-----------------------------------------------
                          ENDP

                  snmp_tmax_bps_write PROC
;;;1176   void snmp_tmax_bps_write(int mode)
000d26  2801              CMP      r0,#1
;;;1177   {
;;;1178   if(mode==MIB_WRITE)
000d28  d106              BNE      |L1.3384|
;;;1179   	{
;;;1180   	lc640_write_int(EE_TMAX,snmp_tmax_bps);
000d2a  4806              LDR      r0,|L1.3396|
000d2c  3890              SUBS     r0,r0,#0x90
000d2e  f9b01070          LDRSH    r1,[r0,#0x70]  ; snmp_tmax_bps
000d32  207e              MOVS     r0,#0x7e
000d34  f7ffbffe          B.W      lc640_write_int
                  |L1.3384|
;;;1181   	}
;;;1182   }
000d38  4770              BX       lr
000d3a  0000              DCW      0x0000
                  |L1.3388|
                          DCD      ||.bss||+0x12c
                  |L1.3392|
                          DCD      avt_stat
                  |L1.3396|
                          DCD      ||.data||+0x90
                  |L1.3400|
                          DCD      ND_EXT
                  |L1.3404|
                          DCD      NUMDT
                  |L1.3408|
                          DCD      lakb
                  |L1.3412|
                          DCD      ||.bss||+0x14
                  |L1.3416|
                          DCD      ADR_SK_SIGN
                  |L1.3420|
                          DCD      UB20
                          ENDP

                  snmp_uvz_write PROC
;;;1184   //-----------------------------------------------
;;;1185   void snmp_uvz_write(int mode)
000d60  2801              CMP      r0,#1
;;;1186   {
;;;1187   if(mode==MIB_WRITE)
000d62  d1e9              BNE      |L1.3384|
;;;1188   	{
;;;1189   	lc640_write_int(EE_UVZ,snmp_uvz);
000d64  48f9              LDR      r0,|L1.4428|
000d66  f9b01064          LDRSH    r1,[r0,#0x64]  ; snmp_uvz
000d6a  20de              MOVS     r0,#0xde
000d6c  f7ffbffe          B.W      lc640_write_int
;;;1190   	}
;;;1191   }
000d70  e7e2              B        |L1.3384|
;;;1192   //-----------------------------------------------
                          ENDP

                  snmp_bat_part_alarm_write PROC
;;;1193   void snmp_bat_part_alarm_write(int mode)
000d72  2801              CMP      r0,#1
;;;1194   {
;;;1195   if(mode==MIB_WRITE)
000d74  d1e0              BNE      |L1.3384|
;;;1196   	{
;;;1197   	lc640_write_int(EE_UBM_AV,snmp_bat_part_alarm);
000d76  48f5              LDR      r0,|L1.4428|
000d78  f9b01072          LDRSH    r1,[r0,#0x72]  ; snmp_bat_part_alarm
000d7c  f44f7019          MOV      r0,#0x264
000d80  f7ffbffe          B.W      lc640_write_int
;;;1198   	}
;;;1199   }
000d84  e7d8              B        |L1.3384|
;;;1200   //-----------------------------------------------
                          ENDP

                  snmp_power_cnt_adress_write PROC
;;;1201   void snmp_power_cnt_adress_write(int mode)
000d86  2801              CMP      r0,#1
;;;1202   {
;;;1203   if(mode==MIB_WRITE)
000d88  d1d6              BNE      |L1.3384|
;;;1204   	{
;;;1205   	lc640_write_int(EE_POWER_CNT_ADRESS,snmp_power_cnt_adress);
000d8a  48f0              LDR      r0,|L1.4428|
000d8c  f9b01074          LDRSH    r1,[r0,#0x74]  ; snmp_power_cnt_adress
000d90  f2402062          MOV      r0,#0x262
000d94  f7ffbffe          B.W      lc640_write_int
;;;1206   	}
;;;1207   }
000d98  e7ce              B        |L1.3384|
;;;1208   
                          ENDP

                  snmp_command_execute PROC
;;;1209   //-----------------------------------------------
;;;1210   void snmp_command_execute (int mode)
000d9a  b510              PUSH     {r4,lr}
;;;1211   {
;;;1212   if(mode==MIB_WRITE)
000d9c  2801              CMP      r0,#1
000d9e  d112              BNE      |L1.3526|
;;;1213   	{
;;;1214   	
;;;1215   	//snmp_command=0x5555;
;;;1216   
;;;1217   	switch (snmp_command)
000da0  48ea              LDR      r0,|L1.4428|
;;;1218   		{
;;;1219   		case SNMP_BPS_DISABLE:
;;;1220   			{
;;;1221   			snmp_command=COMMAND_OK;
000da2  f2455255          MOV      r2,#0x5555
000da6  4601              MOV      r1,r0                 ;1217
000da8  f9b04044          LDRSH    r4,[r0,#0x44]         ;1217  ; snmp_command
;;;1222   
;;;1223   		/*	switch (snmp_command_parametr)
;;;1224   				{
;;;1225   			
;;;1226   				case 1: 
;;;1227   				{
;;;1228   				St_[0]|=0x20;
;;;1229   				St_[1]&=0xdf;
;;;1230   				St&=0xfb;
;;;1231   				cnt_src[1]=10;
;;;1232   				snmp_plazma++;
;;;1233   				snmp_plazma++;
;;;1234   				break;
;;;1235   				}
;;;1236   			
;;;1237   				case 2:
;;;1238   				{
;;;1239   				St_[1]|=0x20;
;;;1240   				St_[0]&=0xdf;
;;;1241   				St&=0xfb;
;;;1242   				cnt_src[0]=10;	
;;;1243   				snmp_plazma++;
;;;1244   				break;
;;;1245   				}*/	
;;;1246   			
;;;1247   				//break;
;;;1248   			//	}
;;;1249   			if(snmp_command_parametr==1) 
;;;1250   				{
;;;1251   			//	St_[0]|=0x20;
;;;1252   			//	St_[1]&=0xdf;
;;;1253   			//	St&=0xfb;
;;;1254   		//		cnt_src[1]=10;
;;;1255   		//		snmp_plazma++;
;;;1256   		//		snmp_plazma++;
;;;1257   				}
;;;1258   			
;;;1259   			else if(snmp_command_parametr==2)
;;;1260   				{
;;;1261   			//	St_[1]|=0x20;
;;;1262   			//	St_[0]&=0xdf;
;;;1263   			//	St&=0xfb;
;;;1264   		//		cnt_src[0]=10;	
;;;1265   		//		snmp_plazma++;
;;;1266   				}	
;;;1267   			
;;;1268   			break;
;;;1269   			}
;;;1270   
;;;1271   		case SNMP_BPS_UNDISABLE:
;;;1272   			{
;;;1273   			snmp_command=COMMAND_OK;
;;;1274   		//	St_[0]&=0xdf;
;;;1275   		//	St_[1]&=0xdf;
;;;1276   			break;
;;;1277   			}
;;;1278   
;;;1279   		case SNMP_SPEC_VZ:
;;;1280   			{
;;;1281   			if((snmp_command_parametr>=1)&&(snmp_command_parametr<=24))
;;;1282   				{
;;;1283   			//	if(!(St&0x03)&&(NUMBAT))
;;;1284   					{
;;;1285   					snmp_command=COMMAND_OK;
;;;1286   		//			spc_stat=spc_VZ;
;;;1287   		//			cnt_vz_sec_=3600UL*snmp_command_parametr;
;;;1288   					}
;;;1289   			//	else
;;;1290    					{
;;;1291   					snmp_command=COMAND_FAIL;	
000dac  43d3              MVNS     r3,r2
000dae  1ee4              SUBS     r4,r4,#3              ;1217
000db0  f9b11046          LDRSH    r1,[r1,#0x46]         ;1249
000db4  2c06              CMP      r4,#6                 ;1217
000db6  d21b              BCS      |L1.3568|
000db8  e8dff004          TBB      [pc,r4]               ;1217
000dbc  0914031a          DCB      0x09,0x14,0x03,0x1a
000dc0  1706              DCB      0x17,0x06
000dc2  f8a02044          STRH     r2,[r0,#0x44]         ;1221
                  |L1.3526|
;;;1292    					}
;;;1293   				}
;;;1294   			else 
;;;1295   				{
;;;1296   				snmp_command=WRONG_PARAMETER;
;;;1297   				}
;;;1298   			break;
;;;1299   			}
;;;1300   
;;;1301   		case SNMP_SPEC_KE:
;;;1302   			{
;;;1303   	  	//	if(!(St&0x02)&&(NUMBAT))
;;;1304   				{
;;;1305   				//spc_stat=spc_KE;
;;;1306   			//zar_cnt_ee_ke=0;
;;;1307   			//	zar_cnt=0L;
;;;1308   				snmp_command=COMMAND_OK;
;;;1309   				}
;;;1310   		//	else
;;;1311   				{
;;;1312   				snmp_command=COMAND_FAIL;	
;;;1313   				}
;;;1314   			break;
;;;1315   			}
;;;1316   
;;;1317   		case SNMP_SPEC_DISABLE:
;;;1318   			{
;;;1319   		//	spc_stat=spc_OFF;
;;;1320   			snmp_command=COMMAND_OK;
;;;1321   			break;
;;;1322   			}
;;;1323   
;;;1324   
;;;1325   		default:
;;;1326   			{
;;;1327   			snmp_command=COMMAND_INVALID;
;;;1328   			break;
;;;1329   			}
;;;1330   		}
;;;1331   /*		else if((UIB2[1]==0x52)&&(UIB2[4]==5)&&(UIB2[5]==5)&&(UIB2[6])&&(UIB2[6]<=NUMIST)&&(UIB2[6]==UIB2[7])) 	//Выключение источника 
;;;1332   		{
;;;1333   	
;;;1334   		if((UIB2[6]==1)&&(UIB2[7]==1)) 
;;;1335   			{
;;;1336   			St_[0]|=0x20;
;;;1337   			St_[1]&=0xdf;
;;;1338   			St&=0xfb;
;;;1339   			cnt_src[1]=10;
;;;1340   			}
;;;1341   			
;;;1342   		else if((UIB2[6]==2)&&(UIB2[7]==2))
;;;1343   			{
;;;1344   			St_[1]|=0x20;
;;;1345   			St_[0]&=0xdf;
;;;1346   			St&=0xfb;
;;;1347   			cnt_src[0]=10;
;;;1348   			}	
;;;1349   		
;;;1350        	memo_out2[0]=0x33;
;;;1351        	memo_out2[1]=0x62;
;;;1352        	memo_out2[2]=4;
;;;1353        	memo_out2[3]=0x03;
;;;1354        	
;;;1355        	memo_out2[4]=5;
;;;1356        	memo_out2[5]=5;
;;;1357        	memo_out2[6]=UIB2[6];
;;;1358        	memo_out2[7]=UIB2[6];
;;;1359            	memo_out2[8]=crc_87(memo_out2,8);
;;;1360   		memo_out2[9]=crc_95(memo_out2,8);
;;;1361        	uart_out_adr2(memo_out2,10); 		
;;;1362   		} */
;;;1363   
;;;1364   
;;;1365   
;;;1366   	}
;;;1367   }
000dc6  bd10              POP      {r4,pc}
000dc8  f8a02044          STRH     r2,[r0,#0x44]         ;1273
000dcc  bd10              POP      {r4,pc}
000dce  1e49              SUBS     r1,r1,#1              ;1281
000dd0  2917              CMP      r1,#0x17              ;1281
000dd2  d802              BHI      |L1.3546|
000dd4  f8a03044          STRH     r3,[r0,#0x44]         ;1291
000dd8  bd10              POP      {r4,pc}
                  |L1.3546|
000dda  f64e61ef          MOV      r1,#0xeeef            ;1296
000dde  f8a01044          STRH     r1,[r0,#0x44]         ;1296
000de2  bd10              POP      {r4,pc}
000de4  f8a03044          STRH     r3,[r0,#0x44]         ;1312
000de8  bd10              POP      {r4,pc}
000dea  f8a02044          STRH     r2,[r0,#0x44]         ;1320
000dee  bd10              POP      {r4,pc}
                  |L1.3568|
000df0  f64e61ee          MOV      r1,#0xeeee            ;1327
000df4  f8a01044          STRH     r1,[r0,#0x44]         ;1327
000df8  bd10              POP      {r4,pc}
;;;1368   
                          ENDP

                  datatime2str PROC
;;;1369   //-----------------------------------------------
;;;1370   char* datatime2str(char day,char month,char year, char hour, char min, char sec)
000dfa  e92d5ff0          PUSH     {r4-r12,lr}
;;;1371   {
000dfe  4683              MOV      r11,r0
000e00  e9dd760a          LDRD     r7,r6,[sp,#0x28]
000e04  468a              MOV      r10,r1
000e06  4691              MOV      r9,r2
000e08  4698              MOV      r8,r3
;;;1372   static char temp_str[20];
;;;1373   memcpy(temp_str,"00/янв/00  00:00:00       ",20);
000e0a  2214              MOVS     r2,#0x14
000e0c  a1d0              ADR      r1,|L1.4432|
000e0e  48d7              LDR      r0,|L1.4460|
000e10  f7fffffe          BL       __aeabi_memcpy
;;;1374   
;;;1375   temp_str[1]=(day%10)+0x30;
000e14  240a              MOVS     r4,#0xa
000e16  fbbbf5f4          UDIV     r5,r11,r4
000e1a  fb04b115          MLS      r1,r4,r5,r11
000e1e  48d3              LDR      r0,|L1.4460|
000e20  3130              ADDS     r1,r1,#0x30
000e22  7041              STRB     r1,[r0,#1]
;;;1376   temp_str[0]=(day/10)+0x30;
000e24  3530              ADDS     r5,r5,#0x30
000e26  7005              STRB     r5,[r0,#0]
;;;1377   
;;;1378   memcpy(&temp_str[3],sm_mont[month],3);
000e28  49d1              LDR      r1,|L1.4464|
000e2a  eb01018a          ADD      r1,r1,r10,LSL #2
000e2e  880a              LDRH     r2,[r1,#0]
000e30  f8a02003          STRH     r2,[r0,#3]
000e34  7889              LDRB     r1,[r1,#2]
000e36  7141              STRB     r1,[r0,#5]
;;;1379   
;;;1380   temp_str[8]=(year%10)+0x30;
000e38  fbb9f1f4          UDIV     r1,r9,r4
000e3c  fb049211          MLS      r2,r4,r1,r9
000e40  3230              ADDS     r2,r2,#0x30
000e42  7202              STRB     r2,[r0,#8]
;;;1381   temp_str[7]=(year/10)+0x30;
000e44  3130              ADDS     r1,r1,#0x30
000e46  71c1              STRB     r1,[r0,#7]
;;;1382   
;;;1383   temp_str[12]=(hour%10)+0x30;
000e48  fbb8f1f4          UDIV     r1,r8,r4
000e4c  fb048211          MLS      r2,r4,r1,r8
000e50  3230              ADDS     r2,r2,#0x30
000e52  7302              STRB     r2,[r0,#0xc]
;;;1384   temp_str[11]=(hour/10)+0x30;
000e54  3130              ADDS     r1,r1,#0x30
000e56  72c1              STRB     r1,[r0,#0xb]
;;;1385   
;;;1386   temp_str[15]=(min%10)+0x30;
000e58  fbb7f1f4          UDIV     r1,r7,r4
000e5c  fb047211          MLS      r2,r4,r1,r7
000e60  3230              ADDS     r2,r2,#0x30
000e62  73c2              STRB     r2,[r0,#0xf]
;;;1387   temp_str[14]=(min/10)+0x30;
000e64  3130              ADDS     r1,r1,#0x30
000e66  7381              STRB     r1,[r0,#0xe]
;;;1388   
;;;1389   temp_str[18]=(sec%10)+0x30;
000e68  fbb6f1f4          UDIV     r1,r6,r4
000e6c  fb046211          MLS      r2,r4,r1,r6
000e70  3230              ADDS     r2,r2,#0x30
000e72  7482              STRB     r2,[r0,#0x12]
;;;1390   temp_str[17]=(sec/10)+0x30;
000e74  3130              ADDS     r1,r1,#0x30
000e76  7441              STRB     r1,[r0,#0x11]
;;;1391   return temp_str;
;;;1392   }
000e78  e61f              B        |L1.2746|
;;;1393   
                          ENDP

                  event2snmp PROC
;;;1394   //-----------------------------------------------
;;;1395   void event2snmp(char num)
000e7a  e92d47f0          PUSH     {r4-r10,lr}
;;;1396   {
000e7e  b088              SUB      sp,sp,#0x20
000e80  4606              MOV      r6,r0
;;;1397   char /*iii,*/index;
;;;1398   char dt[4],dt_[4],dt__[4],dt___[4],dt____[4],dt4[4];
;;;1399   unsigned int tempii;    
;;;1400   
;;;1401   memcpy(&snmp_log[num][0],"                                                                                ",78);
000e82  48bc              LDR      r0,|L1.4468|
000e84  224e              MOVS     r2,#0x4e
000e86  eb0014c6          ADD      r4,r0,r6,LSL #7
000e8a  49bb              LDR      r1,|L1.4472|
000e8c  4620              MOV      r0,r4
000e8e  f7fffffe          BL       __aeabi_memcpy
;;;1402   //memcpy(&snmp_log[num][0],"BKL",10);
;;;1403   
;;;1404   
;;;1405   		
;;;1406   tempii=lc640_read_int(PTR_EVENT_LOG);
000e92  f44f6060          MOV      r0,#0xe00
000e96  f7fffffe          BL       lc640_read_int
;;;1407   tempii=ptr_carry(tempii,64,-1*((signed)num));
000e9a  4272              RSBS     r2,r6,#0
000e9c  2140              MOVS     r1,#0x40
000e9e  f7fffffe          BL       ptr_carry
;;;1408   tempii*=32;
000ea2  0140              LSLS     r0,r0,#5
;;;1409   tempii+=EVENT_LOG;
000ea4  f5006580          ADD      r5,r0,#0x400
;;;1410        
;;;1411   lc640_read_long_ptr(tempii,dt);
000ea8  a907              ADD      r1,sp,#0x1c
000eaa  4628              MOV      r0,r5
000eac  f7fffffe          BL       lc640_read_long_ptr
;;;1412   lc640_read_long_ptr(tempii+4,dt4);
000eb0  a902              ADD      r1,sp,#8
000eb2  1d28              ADDS     r0,r5,#4
000eb4  f7fffffe          BL       lc640_read_long_ptr
;;;1413   lc640_read_long_ptr(tempii+8,dt_);
000eb8  a906              ADD      r1,sp,#0x18
000eba  f1050008          ADD      r0,r5,#8
000ebe  f7fffffe          BL       lc640_read_long_ptr
;;;1414   lc640_read_long_ptr(tempii+12,dt__);
000ec2  a905              ADD      r1,sp,#0x14
000ec4  f105000c          ADD      r0,r5,#0xc
000ec8  f7fffffe          BL       lc640_read_long_ptr
;;;1415   lc640_read_long_ptr(tempii+16,dt___);
000ecc  a904              ADD      r1,sp,#0x10
000ece  f1050010          ADD      r0,r5,#0x10
000ed2  f7fffffe          BL       lc640_read_long_ptr
;;;1416   lc640_read_long_ptr(tempii+20,dt____);
000ed6  a903              ADD      r1,sp,#0xc
000ed8  f1050014          ADD      r0,r5,#0x14
000edc  f7fffffe          BL       lc640_read_long_ptr
;;;1417   //iii=find(simbol);
;;;1418        
;;;1419   if(dt[0]=='U')	 		//Включение ИБЭПа
000ee0  f89d001c          LDRB     r0,[sp,#0x1c]
;;;1420       	{ 
;;;1421       	if(dt[2]=='R')
;;;1422       		{
;;;1423   		memcpy(&snmp_log[num][0],"Включение ИБЭПа@                                      ",50);
;;;1424   		memcpy(&snmp_log[num][17],datatime2str(dt_[2],dt_[1],dt_[0],dt__[0],dt__[1],dt__[2]),20);
;;;1425   		memcpy(&snmp_log[num][40],"@                   ",20);
000ee4  f1040528          ADD      r5,r4,#0x28
000ee8  2855              CMP      r0,#0x55              ;1419
000eea  d04d              BEQ      |L1.3976|
;;;1426       		}
;;;1427        }   
;;;1428   
;;;1429        
;;;1430   else if(dt[0]=='P')		//Авария питающей сети
;;;1431   	{
;;;1432   	index=0;
;;;1433        memcpy(&snmp_log[num][index],"Авария питающей сети @  ",23);	
;;;1434   	index+=23;
;;;1435   	memcpy(&snmp_log[num][index],datatime2str(dt_[2],dt_[1],dt_[0],dt__[0],dt__[1],dt__[2]),19);
;;;1436   	index+=19;
;;;1437   	snmp_log[num][index]='@';
;;;1438   	index++;
;;;1439   
;;;1440   	if((dt___[0]=='A')&&(dt___[1]=='A'))
;;;1441   		{
;;;1442   		memcpy(&snmp_log[num][index]," не устранена  ",13);
;;;1443   		index+=13;
;;;1444   		}
;;;1445   	else 
;;;1446   		{
;;;1447   		memcpy(&snmp_log[num][index]," устранена   ",11);
000eec  2720              MOVS     r7,#0x20
000eee  f04f0840          MOV      r8,#0x40              ;1407
000ef2  2850              CMP      r0,#0x50              ;1430
000ef4  d070              BEQ      |L1.4056|
000ef6  499f              LDR      r1,|L1.4468|
;;;1448   		index+=11;
;;;1449   			
;;;1450   		memcpy(&snmp_log[num][index],datatime2str(dt___[2],dt___[1],dt___[0],dt____[0],dt____[1],dt____[2]),19);
;;;1451   		}
;;;1452   
;;;1453        }  
;;;1454   
;;;1455   else if(dt[0]=='B')		//События батареи
000ef8  2842              CMP      r0,#0x42
000efa  eb0119c6          ADD      r9,r1,r6,LSL #7       ;1401
000efe  46ca              MOV      r10,r9                ;1401
;;;1456       	{
;;;1457   	index=0;
;;;1458       	if(dt[2]=='C')
;;;1459       		{
;;;1460   		memcpy(&snmp_log[num][index],"Батарея.  Авария!!! @  ",21);
;;;1461   		index+=21;
;;;1462   		memcpy(&snmp_log[num][index],datatime2str(dt_[2],dt_[1],dt_[0],dt__[0],dt__[1],dt__[2]),19);
;;;1463   		index+=19;
;;;1464   		
;;;1465   		snmp_log[num][index]='@';
;;;1466   		index++;
;;;1467   
;;;1468   		memcpy(&snmp_log[num][index],"Батарея не обнаружена, ",22);
000f00  f1090929          ADD      r9,r9,#0x29
000f04  f10a0a15          ADD      r10,r10,#0x15         ;1462
000f08  d07d              BEQ      |L1.4102|
;;;1469   		index+=22;
;;;1470   
;;;1471   		if((dt___[0]=='A')&&(dt___[1]=='A'))
;;;1472   			{
;;;1473   			memcpy(&snmp_log[num][index]," не устранена  ",13);
;;;1474   			index+=13;
;;;1475   			}
;;;1476   		else 
;;;1477   			{
;;;1478   			memcpy(&snmp_log[num][index]," устранена   ",11);
;;;1479   			index+=11;
;;;1480   			memcpy(&snmp_log[num][index],datatime2str(dt___[2],dt___[1],dt___[0],dt____[0],dt____[1],dt____[2]),19);
;;;1481   			}
;;;1482   
;;;1483       		}
;;;1484       	if(dt[2]=='Z')
;;;1485       		{
;;;1486   
;;;1487   		memcpy(&snmp_log[num][index],"Батарея.  Выравнивающий заряд @  ",32);
;;;1488   		index+=32;
;;;1489   		memcpy(&snmp_log[num][index],datatime2str(dt_[2],dt_[1],dt_[0],dt__[0],dt__[1],dt__[2]),19);
;;;1490   		index+=19;
;;;1491   		
;;;1492   		snmp_log[num][index]='@';
;;;1493   		index++;
;;;1494   
;;;1495   		if((dt___[0]=='A')&&(dt___[1]=='A'))
;;;1496   			{
;;;1497   			memcpy(&snmp_log[num][index]," не завершен  ",13);
;;;1498   			index+=13;
;;;1499   			}
;;;1500   		else 
;;;1501   			{
;;;1502   			memcpy(&snmp_log[num][index]," завершен   ",11);
;;;1503   			index+=11;
;;;1504   			memcpy(&snmp_log[num][index],datatime2str(dt___[2],dt___[1],dt___[0],dt____[0],dt____[1],dt____[2]),19);
;;;1505   			}
;;;1506   
;;;1507   
;;;1508   /*
;;;1509       		lcd_buffer[iii++]='В';
;;;1510       		lcd_buffer[iii++]='З';
;;;1511       		lcd_buffer[iii++]=' ';    		
;;;1512       		lcd_buffer[iii++]=' ';
;;;1513       		lcd_buffer[iii++]=' ';  
;;;1514       		lcd_buffer[iii++]=' ';
;;;1515       		lcd_buffer[iii++]=' ';
;;;1516       		
;;;1517       		if((dt_[0]==LPC_RTC->YEAR)&&(dt_[1]==LPC_RTC->MONTH)&&(dt_[2]==LPC_RTC->DOM))
;;;1518       			{
;;;1519       	    		lcd_buffer[iii++]='0';
;;;1520       			lcd_buffer[iii++]='!';
;;;1521       	    		lcd_buffer[iii++]=':'; 
;;;1522       			lcd_buffer[iii++]='0';
;;;1523       			lcd_buffer[iii++]='@';
;;;1524       			lcd_buffer[iii++]=':';
;;;1525       			lcd_buffer[iii++]='0';
;;;1526       			lcd_buffer[iii++]='#';
;;;1527       	    		int2lcd(dt__[0],'!',0);
;;;1528       			int2lcd(dt__[1],'@',0);
;;;1529       			int2lcd(dt__[2],'#',0);    		     		
;;;1530       			}	                   
;;;1531    		else      	
;;;1532       			{
;;;1533       	 		lcd_buffer[iii++]=' ';
;;;1534       			lcd_buffer[iii++]='0';
;;;1535       			lcd_buffer[iii++]='!';
;;;1536       			lcd_buffer[iii++]='@'; 
;;;1537       			lcd_buffer[iii++]=' ';
;;;1538       			lcd_buffer[iii++]=' ';
;;;1539       			lcd_buffer[iii++]='0';
;;;1540       			lcd_buffer[iii++]='#';
;;;1541       			int2lcd(dt_[2],'!',0);
;;;1542       			
;;;1543       			int2lcd(dt_[0],'#',0);   
;;;1544       			if(!((dt_[1]>=1)&&(dt_[1]<=12)))dt_[1]=1;
;;;1545   			sub_bgnd(sm_mont[dt_[1]],'@',0);  
;;;1546       			} */ 		
;;;1547       		}    		
;;;1548   /*
;;;1549       	if(dt[2]=='W')
;;;1550       		{
;;;1551       		lcd_buffer[iii++]='Б';
;;;1552       		lcd_buffer[iii++]='а';
;;;1553       		lcd_buffer[iii++]='т';
;;;1554   		if(dt[1]<9)
;;;1555       			{
;;;1556       			lcd_buffer[iii++]=0x31+dt[1];
;;;1557       			lcd_buffer[iii++]='р';
;;;1558       			lcd_buffer[iii++]=' ';
;;;1559       			}
;;;1560       		else if((dt[1]>=9)&&(dt[1]<99))
;;;1561       			{
;;;1562       			lcd_buffer[iii++]=0x30+((dt[1]+1)/10);
;;;1563       			lcd_buffer[iii++]=0x30+((dt[1]+1)%10);
;;;1564       			lcd_buffer[iii++]='р';
;;;1565       			}
;;;1566       		else 
;;;1567       			{
;;;1568       			lcd_buffer[iii++]=' ';
;;;1569       			lcd_buffer[iii++]=' '; 
;;;1570       			lcd_buffer[iii++]=' ';    		
;;;1571       			} 
;;;1572       		lcd_buffer[iii++]=' ';    		
;;;1573       		
;;;1574       		
;;;1575   		
;;;1576       		if((dt_[0]==LPC_RTC->YEAR)&&(dt_[1]==LPC_RTC->MONTH)&&(dt_[2]==LPC_RTC->DOM))
;;;1577       			{
;;;1578       	    		lcd_buffer[iii++]='0';
;;;1579       			lcd_buffer[iii++]='!';
;;;1580       	    		lcd_buffer[iii++]=':'; 
;;;1581       			lcd_buffer[iii++]='0';
;;;1582       			lcd_buffer[iii++]='@';
;;;1583       			lcd_buffer[iii++]=':';
;;;1584       			lcd_buffer[iii++]='0';
;;;1585       			lcd_buffer[iii++]='#';
;;;1586       	    		int2lcd(dt__[0],'!',0);
;;;1587       			int2lcd(dt__[1],'@',0);
;;;1588       			int2lcd(dt__[2],'#',0);    		     		
;;;1589       			}	                   
;;;1590    		else      	
;;;1591       			{
;;;1592       	 		lcd_buffer[iii++]=' ';
;;;1593       			lcd_buffer[iii++]='0';
;;;1594       			lcd_buffer[iii++]='!';
;;;1595       			lcd_buffer[iii++]='@'; 
;;;1596       			lcd_buffer[iii++]=' ';
;;;1597       			lcd_buffer[iii++]=' ';
;;;1598       			lcd_buffer[iii++]='0';
;;;1599       			lcd_buffer[iii++]='#';
;;;1600       			int2lcd(dt_[2],'!',0);
;;;1601       			
;;;1602       			int2lcd(dt_[0],'#',0);   
;;;1603       			if(!((dt_[1]>=1)&&(dt_[1]<=12)))dt_[1]=1;
;;;1604   			sub_bgnd(sm_mont[dt_[1]],'@',0);  
;;;1605       			}  		
;;;1606       		} */   		
;;;1607    
;;;1608    	if(dt[2]=='K')
;;;1609       		{
;;;1610   
;;;1611   		memcpy(&snmp_log[num][index],"Батарея.  Контроль емкости @  ",29);
;;;1612   		index+=29;
;;;1613   		memcpy(&snmp_log[num][index],datatime2str(dt_[2],dt_[1],dt_[0],dt__[0],dt__[1],dt__[2]),19);
;;;1614   		index+=19;
;;;1615   		
;;;1616   		snmp_log[num][index]='@';
;;;1617   		index++;
;;;1618   
;;;1619   		if((dt___[0]=='A')&&(dt___[1]=='A'))
;;;1620   			{
;;;1621   			memcpy(&snmp_log[num][index]," не завершен  ",13);
;;;1622   			index+=13;
;;;1623   			}
;;;1624   		else 
;;;1625   			{
;;;1626   			short temp_US;
;;;1627   			memcpy(&snmp_log[num][index]," завершен   ",11);
;;;1628   			index+=11;
;;;1629   			memcpy(&snmp_log[num][index],datatime2str(dt___[2],dt___[1],dt___[0],dt____[0],dt____[1],dt____[2]),19);
;;;1630   			memcpy(&snmp_log[num][index],", Uнач   , В, Uкон   , В, Cбат    , А*ч ", 39);
;;;1631   			
;;;1632   			temp_US=dt_[3]+(dt__[3]*256);
;;;1633   
;;;1634   			snmp_log[num][index+10]=(temp_US%10)+0x30;
;;;1635   			temp_US/=10;
;;;1636   			snmp_log[num][index+8]=(temp_US%10)+0x30;
;;;1637   			temp_US/=10;
;;;1638   			if(temp_US)snmp_log[num][index+7]=(temp_US%10)+0x30;
;;;1639   			else snmp_log[num][index+7]=0x20;
;;;1640   
;;;1641   
;;;1642   			temp_US=dt4[2]+(dt4[3]*256);
;;;1643   
;;;1644   			snmp_log[num][index+22]=(temp_US%10)+0x30;
;;;1645   			temp_US/=10;
;;;1646   			snmp_log[num][index+20]=(temp_US%10)+0x30;
;;;1647   			temp_US/=10;
;;;1648   			if(temp_US)snmp_log[num][index+19]=(temp_US%10)+0x30;
;;;1649   			else snmp_log[num][index+19]=0x20;
;;;1650   
;;;1651   
;;;1652   			temp_US=dt4[0]+(dt4[1]*256);
;;;1653   
;;;1654   			snmp_log[num][index+35]=(temp_US%10)+0x30;
;;;1655   			temp_US/=10;
;;;1656   			snmp_log[num][index+33]=(temp_US%10)+0x30;
;;;1657   			temp_US/=10;
;;;1658   			if(temp_US)snmp_log[num][index+32]=(temp_US%10)+0x30;
;;;1659   			else snmp_log[num][index+32]=0x20;
;;;1660   			}
;;;1661   
;;;1662   
;;;1663   
;;;1664   		/*
;;;1665       		lcd_buffer[iii++]='Б';
;;;1666       		lcd_buffer[iii++]='а';
;;;1667       		lcd_buffer[iii++]='т';
;;;1668   		if(dt[1]<9)
;;;1669       			{
;;;1670       			lcd_buffer[iii++]=0x31+dt[1];
;;;1671       			lcd_buffer[iii++]='к';
;;;1672       			lcd_buffer[iii++]='е';
;;;1673       			}
;;;1674       		else if((dt[1]>=9)&&(dt[1]<99))
;;;1675       			{
;;;1676       			lcd_buffer[iii++]=0x30+((dt[1]+1)/10);
;;;1677       			lcd_buffer[iii++]=0x30+((dt[1]+1)%10);
;;;1678       			lcd_buffer[iii++]='к';
;;;1679       			}
;;;1680       		else 
;;;1681       			{
;;;1682       			lcd_buffer[iii++]=' ';
;;;1683       			lcd_buffer[iii++]=' '; 
;;;1684       			lcd_buffer[iii++]=' ';    		
;;;1685       			} 
;;;1686       		lcd_buffer[iii++]=' ';    		
;;;1687       		
;;;1688       		if((dt_[0]==LPC_RTC->YEAR)&&(dt_[1]==LPC_RTC->MONTH)&&(dt_[2]==LPC_RTC->DOM))
;;;1689       			{
;;;1690       	    		lcd_buffer[iii++]='0';
;;;1691       			lcd_buffer[iii++]='!';
;;;1692       	    		lcd_buffer[iii++]=':'; 
;;;1693       			lcd_buffer[iii++]='0';
;;;1694       			lcd_buffer[iii++]='@';
;;;1695       			lcd_buffer[iii++]=':';
;;;1696       			lcd_buffer[iii++]='0';
;;;1697       			lcd_buffer[iii++]='#';
;;;1698       	    		int2lcd(dt__[0],'!',0);
;;;1699       			int2lcd(dt__[1],'@',0);
;;;1700       			int2lcd(dt__[2],'#',0);    		     		
;;;1701       			}	                   
;;;1702    		else      	
;;;1703       			{
;;;1704       	 		lcd_buffer[iii++]=' ';
;;;1705       			lcd_buffer[iii++]='0';
;;;1706       			lcd_buffer[iii++]='!';
;;;1707       			lcd_buffer[iii++]='@'; 
;;;1708       			lcd_buffer[iii++]=' ';
;;;1709       			lcd_buffer[iii++]=' ';
;;;1710       			lcd_buffer[iii++]='0';
;;;1711       			lcd_buffer[iii++]='#';
;;;1712       			int2lcd(dt_[2],'!',0);
;;;1713       			
;;;1714       			int2lcd(dt_[0],'#',0);   
;;;1715       			if(!((dt_[1]>=1)&&(dt_[1]<=12)))dt_[1]=1;
;;;1716   			sub_bgnd(sm_mont[dt_[1]],'@',0);  
;;;1717       			} */ 		
;;;1718       		}    		
;;;1719   
;;;1720       		     	     	
;;;1721       	}     	    
;;;1722        	
;;;1723   else if(dt[0]=='S')
000f0a  2853              CMP      r0,#0x53
000f0c  d160              BNE      |L1.4048|
;;;1724       	{
;;;1725   	index=0;
;;;1726   	memcpy(&snmp_log[num][0],"БПС №      ",6);
000f0e  a09b              ADR      r0,|L1.4476|
000f10  6801              LDR      r1,[r0,#0]
000f12  6021              STR      r1,[r4,#0]
000f14  8880              LDRH     r0,[r0,#4]
000f16  80a0              STRH     r0,[r4,#4]
;;;1727   	index=6;
;;;1728   	snmp_log[num][5]=0x31+dt[1];
000f18  f89d001d          LDRB     r0,[sp,#0x1d]
000f1c  3031              ADDS     r0,r0,#0x31
000f1e  7160              STRB     r0,[r4,#5]
;;;1729   	index=7;
;;;1730   	memcpy(&snmp_log[num][index],"   Авария!!!@  ",14);
000f20  1de0              ADDS     r0,r4,#7
000f22  220e              MOVS     r2,#0xe
000f24  a198              ADR      r1,|L1.4488|
000f26  f7fffffe          BL       __aeabi_memcpy
;;;1731   	index+=14;
;;;1732   		//memcpy(&snmp_log[num][0/*+num*/],"00/янв/11 00:00:00 @",20);
;;;1733   	memcpy(&snmp_log[num][index],datatime2str(dt_[2],dt_[1],dt_[0],dt__[0],dt__[1],dt__[2]),19);
000f2a  f89d3016          LDRB     r3,[sp,#0x16]
000f2e  f89d2015          LDRB     r2,[sp,#0x15]
000f32  e9cd2300          STRD     r2,r3,[sp,#0]
000f36  f89d3014          LDRB     r3,[sp,#0x14]
000f3a  f89d2018          LDRB     r2,[sp,#0x18]
000f3e  f89d1019          LDRB     r1,[sp,#0x19]
000f42  f89d001a          LDRB     r0,[sp,#0x1a]
000f46  f7fffffe          BL       datatime2str
000f4a  4601              MOV      r1,r0
000f4c  2213              MOVS     r2,#0x13
000f4e  4650              MOV      r0,r10
000f50  f7fffffe          BL       __aeabi_memcpy
;;;1734   	index+=20;
;;;1735   
;;;1736   	if(dt[2]=='L')
000f54  f89d001e          LDRB     r0,[sp,#0x1e]
000f58  284c              CMP      r0,#0x4c
000f5a  d07d              BEQ      |L1.4184|
;;;1737   		{
;;;1738   		memcpy(&snmp_log[num][40],"@отключился             ",20);
;;;1739   		index=65;
;;;1740   		}
;;;1741   	else if(dt[2]=='T')
000f5c  2854              CMP      r0,#0x54
000f5e  d07c              BEQ      |L1.4186|
;;;1742   		{
;;;1743   		memcpy(&snmp_log[num][index],"@ перегрев   ",10);
;;;1744   		index+=10;
;;;1745   		}		
;;;1746   	else if(dt[2]=='U')
000f60  2855              CMP      r0,#0x55
000f62  d07b              BEQ      |L1.4188|
;;;1747   		{
;;;1748   		memcpy(&snmp_log[num][index],"@ завышено Uвых.  ",16);
;;;1749   		index+=16;
;;;1750   		}		
;;;1751   	else if(dt[2]=='u')
000f64  2875              CMP      r0,#0x75
000f66  d07a              BEQ      |L1.4190|
;;;1752   		{
;;;1753   		memcpy(&snmp_log[num][index],"@ занижено Uвых.  ",16);
;;;1754   		index+=16;
;;;1755   		}
;;;1756   	else 		
;;;1757   		{
;;;1758   		memcpy(&snmp_log[num][index],"@ фигня  ",7);
000f68  a08b              ADR      r0,|L1.4504|
000f6a  6801              LDR      r1,[r0,#0]
000f6c  f8c41029          STR      r1,[r4,#0x29]
000f70  8880              LDRH     r0,[r0,#4]
000f72  f8a4002d          STRH     r0,[r4,#0x2d]
000f76  20ff              MOVS     r0,#0xff
000f78  f884002f          STRB     r0,[r4,#0x2f]
;;;1759   		index+=7;
000f7c  2530              MOVS     r5,#0x30
                  |L1.3966|
;;;1760   		}
;;;1761   
;;;1762   
;;;1763   	if((dt___[0]=='A')&&(dt___[1]=='A'))
000f7e  f89d0010          LDRB     r0,[sp,#0x10]
000f82  2841              CMP      r0,#0x41
000f84  d06c              BEQ      |L1.4192|
000f86  e29c              B        |L1.5314|
                  |L1.3976|
000f88  f89d001e          LDRB     r0,[sp,#0x1e]         ;1421
000f8c  2852              CMP      r0,#0x52              ;1421
000f8e  d11f              BNE      |L1.4048|
000f90  2232              MOVS     r2,#0x32              ;1423
000f92  a184              ADR      r1,|L1.4516|
000f94  4620              MOV      r0,r4                 ;1423
000f96  f7fffffe          BL       __aeabi_memcpy
000f9a  f89d3016          LDRB     r3,[sp,#0x16]         ;1424
000f9e  f89d2015          LDRB     r2,[sp,#0x15]         ;1424
000fa2  e9cd2300          STRD     r2,r3,[sp,#0]         ;1424
000fa6  f89d3014          LDRB     r3,[sp,#0x14]         ;1424
000faa  f89d2018          LDRB     r2,[sp,#0x18]         ;1424
000fae  f89d1019          LDRB     r1,[sp,#0x19]         ;1424
000fb2  f89d001a          LDRB     r0,[sp,#0x1a]         ;1424
000fb6  f7fffffe          BL       datatime2str
000fba  4601              MOV      r1,r0                 ;1424
000fbc  f1040011          ADD      r0,r4,#0x11           ;1424
000fc0  2214              MOVS     r2,#0x14              ;1424
000fc2  f7fffffe          BL       __aeabi_memcpy
000fc6  2214              MOVS     r2,#0x14              ;1425
000fc8  a184              ADR      r1,|L1.4572|
000fca  4628              MOV      r0,r5                 ;1425
000fcc  f7fffffe          BL       __aeabi_memcpy
                  |L1.4048|
;;;1764   		{
;;;1765   		memcpy(&snmp_log[num][index],", не устранена  ",15);
;;;1766   		index+=15;
;;;1767   		}
;;;1768   	else 
;;;1769   		{
;;;1770   		memcpy(&snmp_log[num][index],",  устранена   ",13);
;;;1771   		index+=13;
;;;1772   			
;;;1773   		memcpy(&snmp_log[num][index],datatime2str(dt___[2],dt___[1],dt___[0],dt____[0],dt____[1],dt____[2]),19);
;;;1774   
;;;1775   
;;;1776   		    /*
;;;1777   			ptrs[4]="  0[]  0< 0>:0=:0)  ";
;;;1778   			bgnd_par(ptrs[index_set],ptrs[1+index_set],ptrs[2+index_set],ptrs[3+index_set]);
;;;1779   			int2lcd(av_data_off[4],'>',0);
;;;1780   			int2lcd(av_data_off[5],'=',0);
;;;1781   			int2lcd(av_data_off[6],')',0);
;;;1782   			int2lcd(av_data_off[2],'[',0);
;;;1783   			int2lcd(av_data_off[0],'<',0); 
;;;1784   			if(!((av_data_off[1]>=1)&&(av_data_off[1]<=12)))av_data_off[1]=1;
;;;1785   			sub_bgnd(sm_mont[av_data_off[1]],']',0);   */
;;;1786   
;;;1787   
;;;1788   
;;;1789   
;;;1790   
;;;1791    /*
;;;1792   		ptrs[0]="   Авария БПС N+    ";
;;;1793   		
;;;1794   		if(av_head[2]=='L')
;;;1795   			{
;;;1796   			ptrs[1]="     отключился     ";
;;;1797   			}
;;;1798   		else if(av_head[2]=='T')
;;;1799   			{
;;;1800   			ptrs[1]="      перегрев      ";
;;;1801   			}		
;;;1802   		else if(av_head[2]=='U')
;;;1803   			{
;;;1804   			ptrs[1]="   завышено Uвых.   ";
;;;1805   			}		
;;;1806   		else if(av_head[2]=='u')
;;;1807   			{
;;;1808   			ptrs[1]="   занижено Uвых.   ";
;;;1809   			}								
;;;1810   		
;;;1811   		
;;;1812   		ptrs[2]="  0%(  0^ 0@:0#:0$  ";
;;;1813   			
;;;1814   						
;;;1815   			}	
;;;1816   		int2lcd(av_head[1]+1,'+',0);
;;;1817   		int2lcd(av_data_on[4],'@',0);
;;;1818   		int2lcd(av_data_on[5],'#',0);
;;;1819   		int2lcd(av_data_on[6],'$',0);
;;;1820   		int2lcd(av_data_on[2],'%',0);
;;;1821   		int2lcd(av_data_on[0],'^',0); 
;;;1822   		if(!((av_data_on[1]>=1)&&(av_data_on[1]<=12)))av_data_on[1]=1;
;;;1823   		sub_bgnd(sm_mont[av_data_on[1]],'(',0);
;;;1824   		*/
;;;1825   	    }
;;;1826   
;;;1827   
;;;1828   
;;;1829   /*    	lcd_buffer[iii++]='Б';
;;;1830       	lcd_buffer[iii++]='П';
;;;1831       	lcd_buffer[iii++]='С';
;;;1832    	if(dt[1]<9)
;;;1833       		{
;;;1834       		lcd_buffer[iii++]=0x31+dt[1];
;;;1835       		lcd_buffer[iii++]=' ';
;;;1836       		}
;;;1837       	else if((dt[1]>=9)&&(dt[1]<99))
;;;1838       		{
;;;1839       		lcd_buffer[iii++]=0x30+((dt[1]+1)/10);
;;;1840       		lcd_buffer[iii++]=0x30+((dt[1]+1)%10);
;;;1841       		}
;;;1842       	else 
;;;1843       		{
;;;1844       		lcd_buffer[iii++]=' ';
;;;1845       		lcd_buffer[iii++]=' ';     		
;;;1846       		} 
;;;1847       	lcd_buffer[iii++]=' '; 
;;;1848       	lcd_buffer[iii++]=' ';
;;;1849       	
;;;1850       	if((dt_[0]==LPC_RTC->YEAR)&&(dt_[1]==LPC_RTC->MONTH)&&(dt_[2]==LPC_RTC->DOM))
;;;1851       		{
;;;1852       	    	lcd_buffer[iii++]='0';
;;;1853       		lcd_buffer[iii++]='!';
;;;1854       	    	lcd_buffer[iii++]=':'; 
;;;1855       		lcd_buffer[iii++]='0';
;;;1856       		lcd_buffer[iii++]='@';
;;;1857       		lcd_buffer[iii++]=':';
;;;1858       		lcd_buffer[iii++]='0';
;;;1859       		lcd_buffer[iii++]='#';
;;;1860       	    	int2lcd(dt__[0],'!',0);
;;;1861       		int2lcd(dt__[1],'@',0);
;;;1862       		int2lcd(dt__[2],'#',0);    		     		
;;;1863       		}	                   
;;;1864    	else      	
;;;1865       		{
;;;1866       	 	lcd_buffer[iii++]=' ';
;;;1867       		lcd_buffer[iii++]='0';
;;;1868       		lcd_buffer[iii++]='!';
;;;1869       		lcd_buffer[iii++]='@'; 
;;;1870       		lcd_buffer[iii++]=' ';
;;;1871       		lcd_buffer[iii++]=' ';
;;;1872       		lcd_buffer[iii++]='0';
;;;1873       		lcd_buffer[iii++]='#';
;;;1874       		int2lcd(dt_[2],'!',0);
;;;1875       		int2lcd(dt_[0],'#',0);   
;;;1876       		if(!((dt_[1]>=1)&&(dt_[1]<=12)))dt_[1]=1;
;;;1877   		sub_bgnd(sm_mont[dt_[1]],'@',0);  
;;;1878   		} */   	
;;;1879       	}
;;;1880     /*   	
;;;1881   else if(dt[0]=='B')
;;;1882       	{
;;;1883       	lcd_buffer[iii++]='Б';
;;;1884       	lcd_buffer[iii++]='а';
;;;1885       	lcd_buffer[iii++]='т';
;;;1886    	if(dt[1]<9)
;;;1887       		{
;;;1888       		lcd_buffer[iii++]=0x31+dt[1];
;;;1889       		lcd_buffer[iii++]=' ';
;;;1890       		}
;;;1891       	else if((dt[1]>=9)&&(dt[1]<99))
;;;1892       		{
;;;1893       		lcd_buffer[iii++]=0x30+((dt[1]+1)/10);
;;;1894       		lcd_buffer[iii++]=0x30+((dt[1]+1)%10);
;;;1895       		}
;;;1896       	else 
;;;1897       		{
;;;1898       		lcd_buffer[iii++]=' ';
;;;1899       		lcd_buffer[iii++]=' ';     		
;;;1900       		} 
;;;1901       	lcd_buffer[iii++]=' ';
;;;1902       	}     	    
;;;1903   else if(dt[0]=='I')
;;;1904       	{
;;;1905       	lcd_buffer[iii++]='И';
;;;1906       	lcd_buffer[iii++]='н';
;;;1907       	lcd_buffer[iii++]='в';
;;;1908   	if(dt[1]<9)
;;;1909       		{
;;;1910       		lcd_buffer[iii++]=0x31+dt[1];
;;;1911       		lcd_buffer[iii++]=' ';
;;;1912       		}
;;;1913       	else if((dt[1]>=9)&&(dt[1]<99))
;;;1914       		{
;;;1915       		lcd_buffer[iii++]=0x30+((dt[1]+1)/10);
;;;1916       		lcd_buffer[iii++]=0x30+((dt[1]+1)%10);
;;;1917       		}
;;;1918       	else 
;;;1919       		{
;;;1920       		lcd_buffer[iii++]=' ';
;;;1921       		lcd_buffer[iii++]=' ';     		
;;;1922       		} 
;;;1923       	lcd_buffer[iii++]=' ';
;;;1924       	} */   
;;;1925   }
000fd0  b008              ADD      sp,sp,#0x20
000fd2  e8bd87f0          POP      {r4-r10,pc}
000fd6  e7ff              B        |L1.4056|
                  |L1.4056|
000fd8  2217              MOVS     r2,#0x17              ;1433
000fda  a186              ADR      r1,|L1.4596|
000fdc  4620              MOV      r0,r4                 ;1433
000fde  f7fffffe          BL       __aeabi_memcpy
000fe2  f89d3016          LDRB     r3,[sp,#0x16]         ;1435
000fe6  f89d2015          LDRB     r2,[sp,#0x15]         ;1435
000fea  e9cd2300          STRD     r2,r3,[sp,#0]         ;1435
000fee  f89d3014          LDRB     r3,[sp,#0x14]         ;1435
000ff2  f89d2018          LDRB     r2,[sp,#0x18]         ;1435
000ff6  f89d1019          LDRB     r1,[sp,#0x19]         ;1435
000ffa  f89d001a          LDRB     r0,[sp,#0x1a]         ;1435
000ffe  f7fffffe          BL       datatime2str
001002  4601              MOV      r1,r0                 ;1435
001004  e000              B        |L1.4104|
                  |L1.4102|
001006  e03f              B        |L1.4232|
                  |L1.4104|
001008  f1040017          ADD      r0,r4,#0x17           ;1435
00100c  2213              MOVS     r2,#0x13              ;1435
00100e  f7fffffe          BL       __aeabi_memcpy
001012  f884802a          STRB     r8,[r4,#0x2a]         ;1437
001016  4857              LDR      r0,|L1.4468|
001018  f89d5010          LDRB     r5,[sp,#0x10]         ;1440
00101c  eb0010c6          ADD      r0,r0,r6,LSL #7       ;1401
001020  302b              ADDS     r0,r0,#0x2b           ;1442
001022  2d41              CMP      r5,#0x41              ;1440
001024  d103              BNE      |L1.4142|
001026  f89d1011          LDRB     r1,[sp,#0x11]         ;1440
00102a  2941              CMP      r1,#0x41              ;1440
00102c  d027              BEQ      |L1.4222|
                  |L1.4142|
00102e  a078              ADR      r0,|L1.4624|
001030  6801              LDR      r1,[r0,#0]            ;1447
001032  f8c4102b          STR      r1,[r4,#0x2b]         ;1447
001036  6841              LDR      r1,[r0,#4]            ;1447
001038  f8c4102f          STR      r1,[r4,#0x2f]         ;1447
00103c  8900              LDRH     r0,[r0,#8]            ;1447
00103e  f8a40033          STRH     r0,[r4,#0x33]         ;1447
001042  f8847035          STRB     r7,[r4,#0x35]         ;1447
001046  f89d300e          LDRB     r3,[sp,#0xe]          ;1450
00104a  f89d200d          LDRB     r2,[sp,#0xd]          ;1450
00104e  e9cd2300          STRD     r2,r3,[sp,#0]         ;1450
001052  f89d300c          LDRB     r3,[sp,#0xc]          ;1450
001056  e004              B        |L1.4194|
                  |L1.4184|
001058  e20e              B        |L1.5240|
                  |L1.4186|
00105a  e214              B        |L1.5254|
                  |L1.4188|
00105c  e21f              B        |L1.5278|
                  |L1.4190|
00105e  e225              B        |L1.5292|
                  |L1.4192|
001060  e22b              B        |L1.5306|
                  |L1.4194|
001062  f89d1011          LDRB     r1,[sp,#0x11]         ;1450
001066  f89d0012          LDRB     r0,[sp,#0x12]         ;1450
00106a  462a              MOV      r2,r5                 ;1450
00106c  f7fffffe          BL       datatime2str
001070  4601              MOV      r1,r0                 ;1450
001072  f1040036          ADD      r0,r4,#0x36           ;1450
001076  2213              MOVS     r2,#0x13              ;1450
001078  f7fffffe          BL       __aeabi_memcpy
                  |L1.4220|
00107c  e7a8              B        |L1.4048|
                  |L1.4222|
00107e  220d              MOVS     r2,#0xd               ;1442
001080  a167              ADR      r1,|L1.4640|
001082  f7fffffe          BL       __aeabi_memcpy
001086  e7a3              B        |L1.4048|
                  |L1.4232|
001088  2500              MOVS     r5,#0                 ;1457
00108a  f89d001e          LDRB     r0,[sp,#0x1e]         ;1458
00108e  2843              CMP      r0,#0x43              ;1458
001090  d14f              BNE      |L1.4402|
001092  2215              MOVS     r2,#0x15              ;1460
001094  a166              ADR      r1,|L1.4656|
001096  4620              MOV      r0,r4                 ;1460
001098  f7fffffe          BL       __aeabi_memcpy
00109c  f89d3016          LDRB     r3,[sp,#0x16]         ;1462
0010a0  f89d2015          LDRB     r2,[sp,#0x15]         ;1462
0010a4  e9cd2300          STRD     r2,r3,[sp,#0]         ;1462
0010a8  f89d3014          LDRB     r3,[sp,#0x14]         ;1462
0010ac  f89d2018          LDRB     r2,[sp,#0x18]         ;1462
0010b0  f89d1019          LDRB     r1,[sp,#0x19]         ;1462
0010b4  f89d001a          LDRB     r0,[sp,#0x1a]         ;1462
0010b8  f7fffffe          BL       datatime2str
0010bc  4601              MOV      r1,r0                 ;1462
0010be  2213              MOVS     r2,#0x13              ;1462
0010c0  4650              MOV      r0,r10                ;1462
0010c2  f7fffffe          BL       __aeabi_memcpy
0010c6  f8848028          STRB     r8,[r4,#0x28]         ;1465
0010ca  2216              MOVS     r2,#0x16              ;1468
0010cc  a15e              ADR      r1,|L1.4680|
0010ce  4648              MOV      r0,r9                 ;1468
0010d0  f7fffffe          BL       __aeabi_memcpy
0010d4  4827              LDR      r0,|L1.4468|
0010d6  f89dc010          LDRB     r12,[sp,#0x10]        ;1471
0010da  eb0010c6          ADD      r0,r0,r6,LSL #7       ;1401
0010de  303f              ADDS     r0,r0,#0x3f           ;1473
0010e0  f1bc0f41          CMP      r12,#0x41             ;1471
0010e4  d103              BNE      |L1.4334|
0010e6  f89d1011          LDRB     r1,[sp,#0x11]         ;1471
0010ea  2941              CMP      r1,#0x41              ;1471
0010ec  d026              BEQ      |L1.4412|
                  |L1.4334|
0010ee  a048              ADR      r0,|L1.4624|
0010f0  6801              LDR      r1,[r0,#0]            ;1478
0010f2  f8c4103f          STR      r1,[r4,#0x3f]         ;1478
0010f6  6841              LDR      r1,[r0,#4]            ;1478
0010f8  f8c41043          STR      r1,[r4,#0x43]         ;1478
0010fc  8900              LDRH     r0,[r0,#8]            ;1478
0010fe  f8a40047          STRH     r0,[r4,#0x47]         ;1478
001102  f8847049          STRB     r7,[r4,#0x49]         ;1478
001106  254a              MOVS     r5,#0x4a              ;1479
001108  f89d300e          LDRB     r3,[sp,#0xe]          ;1480
00110c  f89d200d          LDRB     r2,[sp,#0xd]          ;1480
001110  e9cd2300          STRD     r2,r3,[sp,#0]         ;1480
001114  f89d300c          LDRB     r3,[sp,#0xc]          ;1480
001118  f89d1011          LDRB     r1,[sp,#0x11]         ;1480
00111c  f89d0012          LDRB     r0,[sp,#0x12]         ;1480
001120  4662              MOV      r2,r12                ;1480
001122  f7fffffe          BL       datatime2str
001126  4601              MOV      r1,r0                 ;1480
001128  f104004a          ADD      r0,r4,#0x4a           ;1480
00112c  2213              MOVS     r2,#0x13              ;1480
00112e  f7fffffe          BL       __aeabi_memcpy
                  |L1.4402|
001132  f89d001e          LDRB     r0,[sp,#0x1e]         ;1484
001136  285a              CMP      r0,#0x5a              ;1484
001138  d006              BEQ      |L1.4424|
00113a  e0da              B        |L1.4850|
                  |L1.4412|
00113c  220d              MOVS     r2,#0xd               ;1473
00113e  a138              ADR      r1,|L1.4640|
001140  f7fffffe          BL       __aeabi_memcpy
001144  254c              MOVS     r5,#0x4c              ;1474
001146  e7f4              B        |L1.4402|
                  |L1.4424|
001148  e08a              B        |L1.4704|
00114a  0000              DCW      0x0000
                  |L1.4428|
                          DCD      ||.data||
                  |L1.4432|
001150  30302fff          DCB      "00/",255,237,226,"/00  00:00:00       ",0
001154  ede22f30
001158  30202030
00115c  303a3030
001160  3a303020
001164  20202020
001168  202000  
00116b  00                DCB      0
                  |L1.4460|
                          DCD      ||.bss||
                  |L1.4464|
                          DCD      sm_mont
                  |L1.4468|
                          DCD      ||.data||+0x188
                  |L1.4472|
                          DCD      ||.constdata||
                  |L1.4476|
00117c  c1cfd120          DCB      193,207,209," ",185,"      ",0
001180  b9202020
001184  20202000
                  |L1.4488|
001188  202020c0          DCB      "   ",192,226,224,240,232,255,"!!!@  ",0
00118c  e2e0f0e8
001190  ff212121
001194  40202000
                  |L1.4504|
001198  4020f4e8          DCB      "@ ",244,232,227,237,255,"  ",0
00119c  e3edff20
0011a0  2000    
0011a2  00                DCB      0
0011a3  00                DCB      0
                  |L1.4516|
0011a4  c2eaebfe          DCB      194,234,235,254,247,229,237,232,229," ",200,193,221,207,224
0011a8  f7e5ede8
0011ac  e520c8c1
0011b0  ddcfe0  
0011b3  40202020          DCB      "@                                      ",0
0011b7  20202020
0011bb  20202020
0011bf  20202020
0011c3  20202020
0011c7  20202020
0011cb  20202020
0011cf  20202020
0011d3  20202020
0011d7  20202000
0011db  00                DCB      0
                  |L1.4572|
0011dc  40202020          DCB      "@                   ",0
0011e0  20202020
0011e4  20202020
0011e8  20202020
0011ec  20202020
0011f0  00      
0011f1  00                DCB      0
0011f2  00                DCB      0
0011f3  00                DCB      0
                  |L1.4596|
0011f4  c0e2e0f0          DCB      192,226,224,240,232,255," ",239,232,242,224,254,249,229,233
0011f8  e8ff20ef
0011fc  e8f2e0fe
001200  f9e5e9  
001203  20f1e5f2          DCB      " ",241,229,242,232," @  ",0
001207  e8204020
00120b  2000    
00120d  00                DCB      0
00120e  00                DCB      0
00120f  00                DCB      0
                  |L1.4624|
001210  20f3f1f2          DCB      " ",243,241,242,240,224,237,229,237,224,"   ",0
001214  f0e0ede5
001218  ede02020
00121c  2000    
00121e  00                DCB      0
00121f  00                DCB      0
                  |L1.4640|
001220  20ede520          DCB      " ",237,229," ",243,241,242,240,224,237,229,237,224,"  ",0
001224  f3f1f2f0
001228  e0ede5ed
00122c  e0202000
                  |L1.4656|
001230  c1e0f2e0          DCB      193,224,242,224,240,229,255,".  ",192,226,224,240,232,255
001234  f0e5ff2e
001238  2020c0e2
00123c  e0f0e8ff
001240  21212120          DCB      "!!! @  ",0
001244  40202000
                  |L1.4680|
001248  c1e0f2e0          DCB      193,224,242,224,240,229,255," ",237,229," ",238,225,237,224
00124c  f0e5ff20
001250  ede520ee
001254  e1ede0  
001257  f0f3e6e5          DCB      240,243,230,229,237,224,", ",0
00125b  ede02c20
00125f  00      
                  |L1.4704|
001260  1960              ADDS     r0,r4,r5              ;1487
001262  2220              MOVS     r2,#0x20              ;1487
001264  a1ff              ADR      r1,|L1.5732|
001266  f7fffffe          BL       __aeabi_memcpy
00126a  3520              ADDS     r5,r5,#0x20           ;1488
00126c  b2ed              UXTB     r5,r5                 ;1488
00126e  f89d3016          LDRB     r3,[sp,#0x16]         ;1489
001272  f89d2015          LDRB     r2,[sp,#0x15]         ;1489
001276  e9cd2300          STRD     r2,r3,[sp,#0]         ;1489
00127a  f89d3014          LDRB     r3,[sp,#0x14]         ;1489
00127e  f89d2018          LDRB     r2,[sp,#0x18]         ;1489
001282  f89d1019          LDRB     r1,[sp,#0x19]         ;1489
001286  f89d001a          LDRB     r0,[sp,#0x1a]         ;1489
00128a  f7fffffe          BL       datatime2str
00128e  4601              MOV      r1,r0                 ;1489
001290  1960              ADDS     r0,r4,r5              ;1489
001292  2213              MOVS     r2,#0x13              ;1489
001294  f7fffffe          BL       __aeabi_memcpy
001298  3513              ADDS     r5,r5,#0x13           ;1490
00129a  b2e8              UXTB     r0,r5                 ;1490
00129c  f8048000          STRB     r8,[r4,r0]            ;1492
0012a0  1c40              ADDS     r0,r0,#1              ;1493
0012a2  b2c5              UXTB     r5,r0                 ;1493
0012a4  f89d6010          LDRB     r6,[sp,#0x10]         ;1495
0012a8  2e41              CMP      r6,#0x41              ;1495
0012aa  d103              BNE      |L1.4788|
0012ac  f89d0011          LDRB     r0,[sp,#0x11]         ;1495
0012b0  2841              CMP      r0,#0x41              ;1495
0012b2  d04a              BEQ      |L1.4938|
                  |L1.4788|
0012b4  a1f4              ADR      r1,|L1.5768|
0012b6  1960              ADDS     r0,r4,r5              ;1502
0012b8  680a              LDR      r2,[r1,#0]            ;1502
0012ba  6002              STR      r2,[r0,#0]            ;1502
0012bc  684a              LDR      r2,[r1,#4]            ;1502
0012be  6042              STR      r2,[r0,#4]            ;1502
0012c0  8909              LDRH     r1,[r1,#8]            ;1502
0012c2  8101              STRH     r1,[r0,#8]            ;1502
0012c4  7287              STRB     r7,[r0,#0xa]          ;1502
0012c6  350b              ADDS     r5,r5,#0xb            ;1503
0012c8  b2ed              UXTB     r5,r5                 ;1503
0012ca  f89d300e          LDRB     r3,[sp,#0xe]          ;1504
0012ce  f89d200d          LDRB     r2,[sp,#0xd]          ;1504
0012d2  e9cd2300          STRD     r2,r3,[sp,#0]         ;1504
0012d6  f89d300c          LDRB     r3,[sp,#0xc]          ;1504
0012da  f89d1011          LDRB     r1,[sp,#0x11]         ;1504
0012de  f89d0012          LDRB     r0,[sp,#0x12]         ;1504
0012e2  4632              MOV      r2,r6                 ;1504
0012e4  f7fffffe          BL       datatime2str
0012e8  4601              MOV      r1,r0                 ;1504
0012ea  1960              ADDS     r0,r4,r5              ;1504
0012ec  2213              MOVS     r2,#0x13              ;1504
0012ee  f7fffffe          BL       __aeabi_memcpy
                  |L1.4850|
0012f2  f89d001e          LDRB     r0,[sp,#0x1e]         ;1608
0012f6  284b              CMP      r0,#0x4b              ;1608
0012f8  f47faec0          BNE      |L1.4220|
0012fc  1960              ADDS     r0,r4,r5              ;1611
0012fe  221d              MOVS     r2,#0x1d              ;1611
001300  a1e5              ADR      r1,|L1.5784|
001302  f7fffffe          BL       __aeabi_memcpy
001306  351d              ADDS     r5,r5,#0x1d           ;1612
001308  b2ed              UXTB     r5,r5                 ;1612
00130a  f89d3016          LDRB     r3,[sp,#0x16]         ;1613
00130e  f89d2015          LDRB     r2,[sp,#0x15]         ;1613
001312  e9cd2300          STRD     r2,r3,[sp,#0]         ;1613
001316  f89d3014          LDRB     r3,[sp,#0x14]         ;1613
00131a  f89d2018          LDRB     r2,[sp,#0x18]         ;1613
00131e  f89d1019          LDRB     r1,[sp,#0x19]         ;1613
001322  f89d001a          LDRB     r0,[sp,#0x1a]         ;1613
001326  f7fffffe          BL       datatime2str
00132a  4601              MOV      r1,r0                 ;1613
00132c  1960              ADDS     r0,r4,r5              ;1613
00132e  2213              MOVS     r2,#0x13              ;1613
001330  f7fffffe          BL       __aeabi_memcpy
001334  3513              ADDS     r5,r5,#0x13           ;1614
001336  b2e8              UXTB     r0,r5                 ;1614
001338  f8048000          STRB     r8,[r4,r0]            ;1616
00133c  1c40              ADDS     r0,r0,#1              ;1617
00133e  b2c1              UXTB     r1,r0                 ;1617
001340  f89d5010          LDRB     r5,[sp,#0x10]         ;1619
001344  2d41              CMP      r5,#0x41              ;1619
001346  d008              BEQ      |L1.4954|
001348  e00b              B        |L1.4962|
                  |L1.4938|
00134a  1960              ADDS     r0,r4,r5              ;1497
00134c  220d              MOVS     r2,#0xd               ;1497
00134e  a1da              ADR      r1,|L1.5816|
001350  f7fffffe          BL       __aeabi_memcpy
001354  350d              ADDS     r5,r5,#0xd            ;1498
001356  b2ed              UXTB     r5,r5                 ;1498
001358  e7cb              B        |L1.4850|
                  |L1.4954|
00135a  f89d0011          LDRB     r0,[sp,#0x11]         ;1619
00135e  2841              CMP      r0,#0x41              ;1619
001360  d042              BEQ      |L1.5096|
                  |L1.4962|
001362  a3c9              ADR      r3,|L1.5768|
001364  1860              ADDS     r0,r4,r1              ;1627
001366  681a              LDR      r2,[r3,#0]            ;1627
001368  6002              STR      r2,[r0,#0]            ;1627
00136a  685a              LDR      r2,[r3,#4]            ;1627
00136c  6042              STR      r2,[r0,#4]            ;1627
00136e  891a              LDRH     r2,[r3,#8]            ;1627
001370  8102              STRH     r2,[r0,#8]            ;1627
001372  7287              STRB     r7,[r0,#0xa]          ;1627
001374  310b              ADDS     r1,r1,#0xb            ;1628
001376  b2ce              UXTB     r6,r1                 ;1628
001378  f89d300e          LDRB     r3,[sp,#0xe]          ;1629
00137c  f89d200d          LDRB     r2,[sp,#0xd]          ;1629
001380  e9cd2300          STRD     r2,r3,[sp,#0]         ;1629
001384  f89d300c          LDRB     r3,[sp,#0xc]          ;1629
001388  f89d1011          LDRB     r1,[sp,#0x11]         ;1629
00138c  f89d0012          LDRB     r0,[sp,#0x12]         ;1629
001390  462a              MOV      r2,r5                 ;1629
001392  f7fffffe          BL       datatime2str
001396  4601              MOV      r1,r0                 ;1629
001398  4434              ADD      r4,r4,r6              ;1629
00139a  2213              MOVS     r2,#0x13              ;1629
00139c  4620              MOV      r0,r4                 ;1629
00139e  f7fffffe          BL       __aeabi_memcpy
0013a2  2227              MOVS     r2,#0x27              ;1630
0013a4  a1c8              ADR      r1,|L1.5832|
0013a6  4620              MOV      r0,r4                 ;1630
0013a8  f7fffffe          BL       __aeabi_memcpy
0013ac  f89d001b          LDRB     r0,[sp,#0x1b]         ;1632
0013b0  f89d1017          LDRB     r1,[sp,#0x17]         ;1632
0013b4  eb002001          ADD      r0,r0,r1,LSL #8       ;1632
0013b8  b200              SXTH     r0,r0                 ;1632
0013ba  210a              MOVS     r1,#0xa               ;1634
0013bc  fb90f2f1          SDIV     r2,r0,r1              ;1634
0013c0  fb010012          MLS      r0,r1,r2,r0           ;1634
0013c4  3030              ADDS     r0,r0,#0x30           ;1634
0013c6  72a0              STRB     r0,[r4,#0xa]          ;1634
0013c8  b212              SXTH     r2,r2                 ;1635
0013ca  fb92f0f1          SDIV     r0,r2,r1              ;1636
0013ce  fb012210          MLS      r2,r1,r0,r2           ;1636
0013d2  3230              ADDS     r2,r2,#0x30           ;1636
0013d4  7222              STRB     r2,[r4,#8]            ;1636
0013d6  b200              SXTH     r0,r0                 ;1637
0013d8  b160              CBZ      r0,|L1.5108|
0013da  fb90f2f1          SDIV     r2,r0,r1              ;1638
0013de  fb010012          MLS      r0,r1,r2,r0           ;1638
0013e2  3030              ADDS     r0,r0,#0x30           ;1638
0013e4  71e0              STRB     r0,[r4,#7]            ;1638
0013e6  e006              B        |L1.5110|
                  |L1.5096|
0013e8  1860              ADDS     r0,r4,r1              ;1621
0013ea  220d              MOVS     r2,#0xd               ;1621
0013ec  a1b2              ADR      r1,|L1.5816|
0013ee  f7fffffe          BL       __aeabi_memcpy
0013f2  e5ed              B        |L1.4048|
                  |L1.5108|
0013f4  71e7              STRB     r7,[r4,#7]            ;1639
                  |L1.5110|
0013f6  f89d000a          LDRB     r0,[sp,#0xa]          ;1642
0013fa  f89d200b          LDRB     r2,[sp,#0xb]          ;1642
0013fe  eb002002          ADD      r0,r0,r2,LSL #8       ;1642
001402  b200              SXTH     r0,r0                 ;1642
001404  fb90f2f1          SDIV     r2,r0,r1              ;1644
001408  fb010012          MLS      r0,r1,r2,r0           ;1644
00140c  3030              ADDS     r0,r0,#0x30           ;1644
00140e  75a0              STRB     r0,[r4,#0x16]         ;1644
001410  b212              SXTH     r2,r2                 ;1645
001412  fb92f0f1          SDIV     r0,r2,r1              ;1646
001416  fb012210          MLS      r2,r1,r0,r2           ;1646
00141a  3230              ADDS     r2,r2,#0x30           ;1646
00141c  7522              STRB     r2,[r4,#0x14]         ;1646
00141e  b200              SXTH     r0,r0                 ;1647
001420  b130              CBZ      r0,|L1.5168|
001422  fb90f2f1          SDIV     r2,r0,r1              ;1648
001426  fb010012          MLS      r0,r1,r2,r0           ;1648
00142a  3030              ADDS     r0,r0,#0x30           ;1648
00142c  74e0              STRB     r0,[r4,#0x13]         ;1648
00142e  e000              B        |L1.5170|
                  |L1.5168|
001430  74e7              STRB     r7,[r4,#0x13]         ;1649
                  |L1.5170|
001432  f89d0008          LDRB     r0,[sp,#8]            ;1652
001436  f89d2009          LDRB     r2,[sp,#9]            ;1652
00143a  eb002002          ADD      r0,r0,r2,LSL #8       ;1652
00143e  b200              SXTH     r0,r0                 ;1652
001440  fb90f2f1          SDIV     r2,r0,r1              ;1654
001444  fb010012          MLS      r0,r1,r2,r0           ;1654
001448  3030              ADDS     r0,r0,#0x30           ;1654
00144a  f8840023          STRB     r0,[r4,#0x23]         ;1654
00144e  b210              SXTH     r0,r2                 ;1655
001450  fb90f2f1          SDIV     r2,r0,r1              ;1656
001454  fb010012          MLS      r0,r1,r2,r0           ;1656
001458  3030              ADDS     r0,r0,#0x30           ;1656
00145a  f8840021          STRB     r0,[r4,#0x21]         ;1656
00145e  b210              SXTH     r0,r2                 ;1657
001460  b138              CBZ      r0,|L1.5234|
001462  fb90f2f1          SDIV     r2,r0,r1              ;1658
001466  fb010012          MLS      r0,r1,r2,r0           ;1658
00146a  3030              ADDS     r0,r0,#0x30           ;1658
00146c  f8840020          STRB     r0,[r4,#0x20]         ;1658
001470  e5ae              B        |L1.4048|
                  |L1.5234|
001472  f8847020          STRB     r7,[r4,#0x20]         ;1659
001476  e5ab              B        |L1.4048|
                  |L1.5240|
001478  2214              MOVS     r2,#0x14              ;1738
00147a  a19e              ADR      r1,|L1.5876|
00147c  4628              MOV      r0,r5                 ;1738
00147e  f7fffffe          BL       __aeabi_memcpy
001482  2541              MOVS     r5,#0x41              ;1739
001484  e57b              B        |L1.3966|
                  |L1.5254|
001486  a0a2              ADR      r0,|L1.5904|
001488  6801              LDR      r1,[r0,#0]            ;1743
00148a  f8c41029          STR      r1,[r4,#0x29]         ;1743
00148e  6841              LDR      r1,[r0,#4]            ;1743
001490  f8c4102d          STR      r1,[r4,#0x2d]         ;1743
001494  8900              LDRH     r0,[r0,#8]            ;1743
001496  f8a40031          STRH     r0,[r4,#0x31]         ;1743
00149a  2533              MOVS     r5,#0x33              ;1744
00149c  e56f              B        |L1.3966|
                  |L1.5278|
00149e  2210              MOVS     r2,#0x10              ;1748
0014a0  a19f              ADR      r1,|L1.5920|
0014a2  4648              MOV      r0,r9                 ;1748
0014a4  f7fffffe          BL       __aeabi_memcpy
0014a8  2539              MOVS     r5,#0x39              ;1749
0014aa  e568              B        |L1.3966|
                  |L1.5292|
0014ac  2210              MOVS     r2,#0x10              ;1753
0014ae  a1a1              ADR      r1,|L1.5940|
0014b0  4648              MOV      r0,r9                 ;1753
0014b2  f7fffffe          BL       __aeabi_memcpy
0014b6  2539              MOVS     r5,#0x39              ;1754
0014b8  e561              B        |L1.3966|
                  |L1.5306|
0014ba  f89d0011          LDRB     r0,[sp,#0x11]         ;1763
0014be  2841              CMP      r0,#0x41              ;1763
0014c0  d01c              BEQ      |L1.5372|
                  |L1.5314|
0014c2  1960              ADDS     r0,r4,r5              ;1770
0014c4  220d              MOVS     r2,#0xd               ;1770
0014c6  a1a0              ADR      r1,|L1.5960|
0014c8  f7fffffe          BL       __aeabi_memcpy
0014cc  350d              ADDS     r5,r5,#0xd            ;1771
0014ce  b2ed              UXTB     r5,r5                 ;1771
0014d0  f89d300e          LDRB     r3,[sp,#0xe]          ;1773
0014d4  f89d200d          LDRB     r2,[sp,#0xd]          ;1773
0014d8  e9cd2300          STRD     r2,r3,[sp,#0]         ;1773
0014dc  f89d300c          LDRB     r3,[sp,#0xc]          ;1773
0014e0  f89d2010          LDRB     r2,[sp,#0x10]         ;1773
0014e4  f89d1011          LDRB     r1,[sp,#0x11]         ;1773
0014e8  f89d0012          LDRB     r0,[sp,#0x12]         ;1773
0014ec  f7fffffe          BL       datatime2str
0014f0  4601              MOV      r1,r0                 ;1773
0014f2  1960              ADDS     r0,r4,r5              ;1773
0014f4  2213              MOVS     r2,#0x13              ;1773
0014f6  f7fffffe          BL       __aeabi_memcpy
0014fa  e569              B        |L1.4048|
                  |L1.5372|
0014fc  1960              ADDS     r0,r4,r5              ;1765
0014fe  220f              MOVS     r2,#0xf               ;1765
001500  a195              ADR      r1,|L1.5976|
001502  f7fffffe          BL       __aeabi_memcpy
001506  e563              B        |L1.4048|
;;;1926   
                          ENDP

                  snmp_trap_send PROC
;;;1927   //-----------------------------------------------
;;;1928   void snmp_trap_send(char* str, signed short in0, signed short in1, signed short in2)
001508  e92d41f0          PUSH     {r4-r8,lr}
;;;1929   {
;;;1930   for(snmp_trap_send_i=0;snmp_trap_send_i<100;snmp_trap_send_i++)
00150c  4f97              LDR      r7,|L1.5996|
00150e  2500              MOVS     r5,#0
001510  73fd              STRB     r5,[r7,#0xf]
;;;1931   	{
;;;1932   	snmp_spc_trap_message[snmp_trap_send_i]=0;
001512  4e97              LDR      r6,|L1.6000|
                  |L1.5396|
001514  7bfc              LDRB     r4,[r7,#0xf]  ; snmp_trap_send_i
001516  5535              STRB     r5,[r6,r4]
001518  1c64              ADDS     r4,r4,#1              ;1930
00151a  b2e4              UXTB     r4,r4                 ;1930
00151c  73fc              STRB     r4,[r7,#0xf]          ;1930
00151e  2c64              CMP      r4,#0x64              ;1930
001520  d3f8              BCC      |L1.5396|
;;;1933   	}
;;;1934   
;;;1935   
;;;1936   obj[0] = 0;
001522  f8dfc250          LDR      r12,|L1.6004|
001526  f8ac5000          STRH     r5,[r12,#0]
;;;1937   snmp_trap_send_ii=1;
00152a  f04f0801          MOV      r8,#1
00152e  f8878010          STRB     r8,[r7,#0x10]
;;;1938   if(str!=0)
001532  b198              CBZ      r0,|L1.5468|
;;;1939   	{
;;;1940   	obj[0]++;
001534  f8ac8000          STRH     r8,[r12,#0]
;;;1941   	for(snmp_trap_send_i=0;snmp_trap_send_i<100&&(str[snmp_trap_send_i]);snmp_trap_send_i++)
001538  73fd              STRB     r5,[r7,#0xf]
00153a  e002              B        |L1.5442|
                  |L1.5436|
;;;1942   		{
;;;1943   		snmp_spc_trap_message[snmp_trap_send_i]=str[snmp_trap_send_i];
00153c  5535              STRB     r5,[r6,r4]
00153e  1c64              ADDS     r4,r4,#1              ;1941
001540  73fc              STRB     r4,[r7,#0xf]          ;1941
                  |L1.5442|
001542  7bfc              LDRB     r4,[r7,#0xf]          ;1941  ; snmp_trap_send_i
001544  2c64              CMP      r4,#0x64              ;1941
001546  d202              BCS      |L1.5454|
001548  5d05              LDRB     r5,[r0,r4]            ;1941
00154a  2d00              CMP      r5,#0                 ;1941
00154c  d1f6              BNE      |L1.5436|
                  |L1.5454|
;;;1944   		}
;;;1945   	obj[snmp_trap_send_ii] = 7;
00154e  2007              MOVS     r0,#7
001550  f82c0018          STRH     r0,[r12,r8,LSL #1]
;;;1946   	snmp_trap_send_ii++;
001554  f1080801          ADD      r8,r8,#1
001558  f8878010          STRB     r8,[r7,#0x10]
                  |L1.5468|
;;;1947   	}
;;;1948   if(in0!=0xffff)
00155c  f64f74ff          MOV      r4,#0xffff
001560  42a1              CMP      r1,r4
001562  d00b              BEQ      |L1.5500|
;;;1949   	{
;;;1950   	obj[0]++;
001564  f8bc0000          LDRH     r0,[r12,#0]  ; obj
001568  1c40              ADDS     r0,r0,#1
00156a  f8ac0000          STRH     r0,[r12,#0]
;;;1951   	snmp_spc_trap_value_0=in0;
00156e  85f9              STRH     r1,[r7,#0x2e]
;;;1952   	obj[snmp_trap_send_ii] = 8;
001570  7c38              LDRB     r0,[r7,#0x10]  ; snmp_trap_send_ii
001572  2108              MOVS     r1,#8
001574  f82c1010          STRH     r1,[r12,r0,LSL #1]
;;;1953   	snmp_trap_send_ii++;
001578  1c40              ADDS     r0,r0,#1
00157a  7438              STRB     r0,[r7,#0x10]
                  |L1.5500|
;;;1954   	}
;;;1955   if(in1!=0xffff)
00157c  42a2              CMP      r2,r4
00157e  d00b              BEQ      |L1.5528|
;;;1956   	{
;;;1957   	obj[0]++;
001580  f8bc0000          LDRH     r0,[r12,#0]  ; obj
001584  1c40              ADDS     r0,r0,#1
001586  f8ac0000          STRH     r0,[r12,#0]
;;;1958   	snmp_spc_trap_value_1=in1;
00158a  863a              STRH     r2,[r7,#0x30]
;;;1959   	obj[snmp_trap_send_ii] = 9;
00158c  7c38              LDRB     r0,[r7,#0x10]  ; snmp_trap_send_ii
00158e  2109              MOVS     r1,#9
001590  f82c1010          STRH     r1,[r12,r0,LSL #1]
;;;1960   	snmp_trap_send_ii++;
001594  1c40              ADDS     r0,r0,#1
001596  7438              STRB     r0,[r7,#0x10]
                  |L1.5528|
;;;1961   	}
;;;1962   if(in2!=0xffff)
001598  42a3              CMP      r3,r4
00159a  d00b              BEQ      |L1.5556|
;;;1963   	{
;;;1964   	obj[0]++;
00159c  f8bc0000          LDRH     r0,[r12,#0]  ; obj
0015a0  1c40              ADDS     r0,r0,#1
0015a2  f8ac0000          STRH     r0,[r12,#0]
;;;1965   	snmp_spc_trap_value_2=in2;
0015a6  867b              STRH     r3,[r7,#0x32]
;;;1966   	obj[snmp_trap_send_ii] = 10;
0015a8  7c38              LDRB     r0,[r7,#0x10]  ; snmp_trap_send_ii
0015aa  210a              MOVS     r1,#0xa
0015ac  f82c1010          STRH     r1,[r12,r0,LSL #1]
;;;1967   	snmp_trap_send_ii++;
0015b0  1c40              ADDS     r0,r0,#1
0015b2  7438              STRB     r0,[r7,#0x10]
                  |L1.5556|
;;;1968   	}
;;;1969   
;;;1970   
;;;1971   if((ETH_TRAP1_IP_1!=255)&&(ETH_TRAP1_IP_2!=255)&&(ETH_TRAP1_IP_3!=255)&&(ETH_TRAP1_IP_4!=255))
0015b4  4870              LDR      r0,|L1.6008|
;;;1972   	{
;;;1973   	temp_ip[0]= ETH_TRAP1_IP_1;
0015b6  4c6d              LDR      r4,|L1.5996|
0015b8  f9b00000          LDRSH    r0,[r0,#0]            ;1971  ; ETH_TRAP1_IP_1
0015bc  34e0              ADDS     r4,r4,#0xe0
0015be  28ff              CMP      r0,#0xff              ;1971
0015c0  d018              BEQ      |L1.5620|
0015c2  496e              LDR      r1,|L1.6012|
0015c4  f9b11000          LDRSH    r1,[r1,#0]            ;1971  ; ETH_TRAP1_IP_2
0015c8  29ff              CMP      r1,#0xff              ;1971
0015ca  d013              BEQ      |L1.5620|
0015cc  4a6c              LDR      r2,|L1.6016|
0015ce  f9b22000          LDRSH    r2,[r2,#0]            ;1971  ; ETH_TRAP1_IP_3
0015d2  2aff              CMP      r2,#0xff              ;1971
0015d4  d00e              BEQ      |L1.5620|
0015d6  4b6b              LDR      r3,|L1.6020|
0015d8  f9b33000          LDRSH    r3,[r3,#0]            ;1971  ; ETH_TRAP1_IP_4
0015dc  2bff              CMP      r3,#0xff              ;1971
0015de  d009              BEQ      |L1.5620|
0015e0  7020              STRB     r0,[r4,#0]
;;;1974   	temp_ip[1]= ETH_TRAP1_IP_2;
0015e2  7061              STRB     r1,[r4,#1]
;;;1975   	temp_ip[2]= ETH_TRAP1_IP_3;
0015e4  70a2              STRB     r2,[r4,#2]
;;;1976   	temp_ip[3]= ETH_TRAP1_IP_4;
0015e6  70e3              STRB     r3,[r4,#3]
;;;1977   	snmp_trap (temp_ip, 6, 3, obj);
0015e8  4b62              LDR      r3,|L1.6004|
0015ea  2203              MOVS     r2,#3
0015ec  2106              MOVS     r1,#6
0015ee  4620              MOV      r0,r4
0015f0  f7fffffe          BL       snmp_trap
                  |L1.5620|
;;;1978   	}
;;;1979   if((ETH_TRAP2_IP_1!=255)&&(ETH_TRAP2_IP_2!=255)&&(ETH_TRAP2_IP_3!=255)&&(ETH_TRAP2_IP_4!=255))
0015f4  4864              LDR      r0,|L1.6024|
0015f6  f9b01000          LDRSH    r1,[r0,#0]  ; ETH_TRAP2_IP_1
0015fa  29ff              CMP      r1,#0xff
0015fc  d019              BEQ      |L1.5682|
0015fe  4863              LDR      r0,|L1.6028|
001600  f9b02000          LDRSH    r2,[r0,#0]  ; ETH_TRAP2_IP_2
001604  2aff              CMP      r2,#0xff
001606  d014              BEQ      |L1.5682|
001608  4861              LDR      r0,|L1.6032|
00160a  f9b00000          LDRSH    r0,[r0,#0]  ; ETH_TRAP2_IP_3
00160e  28ff              CMP      r0,#0xff
001610  d00f              BEQ      |L1.5682|
001612  4b60              LDR      r3,|L1.6036|
001614  f9b33000          LDRSH    r3,[r3,#0]  ; ETH_TRAP2_IP_4
001618  2bff              CMP      r3,#0xff
00161a  d00a              BEQ      |L1.5682|
;;;1980   	{
;;;1981   	temp_ip[0]= ETH_TRAP2_IP_1;
00161c  7021              STRB     r1,[r4,#0]
;;;1982   	temp_ip[1]= ETH_TRAP2_IP_2;
00161e  7062              STRB     r2,[r4,#1]
;;;1983   	temp_ip[2]= ETH_TRAP2_IP_3;
001620  70a0              STRB     r0,[r4,#2]
;;;1984   	temp_ip[3]= ETH_TRAP2_IP_4;
001622  70e3              STRB     r3,[r4,#3]
;;;1985   	snmp_trap (temp_ip, 6, 3, obj);
001624  4851              LDR      r0,|L1.5996|
001626  4b53              LDR      r3,|L1.6004|
001628  2203              MOVS     r2,#3
00162a  2106              MOVS     r1,#6
00162c  30e0              ADDS     r0,r0,#0xe0
00162e  f7fffffe          BL       snmp_trap
                  |L1.5682|
;;;1986   	}
;;;1987   
;;;1988   if((ETH_TRAP3_IP_1!=255)&&(ETH_TRAP3_IP_2!=255)&&(ETH_TRAP3_IP_3!=255)&&(ETH_TRAP3_IP_4!=255))
001632  4859              LDR      r0,|L1.6040|
001634  f9b01000          LDRSH    r1,[r0,#0]  ; ETH_TRAP3_IP_1
001638  29ff              CMP      r1,#0xff
00163a  d012              BEQ      |L1.5730|
00163c  4857              LDR      r0,|L1.6044|
00163e  f9b02000          LDRSH    r2,[r0,#0]  ; ETH_TRAP3_IP_2
001642  2aff              CMP      r2,#0xff
001644  d00d              BEQ      |L1.5730|
001646  4856              LDR      r0,|L1.6048|
001648  f9b03000          LDRSH    r3,[r0,#0]  ; ETH_TRAP3_IP_3
00164c  2bff              CMP      r3,#0xff
00164e  d008              BEQ      |L1.5730|
001650  4854              LDR      r0,|L1.6052|
001652  f9b00000          LDRSH    r0,[r0,#0]  ; ETH_TRAP3_IP_4
001656  28ff              CMP      r0,#0xff
001658  d003              BEQ      |L1.5730|
;;;1989   	{
;;;1990   	temp_ip[0]= ETH_TRAP3_IP_1;
00165a  7021              STRB     r1,[r4,#0]
;;;1991   	temp_ip[1]= ETH_TRAP3_IP_2;
00165c  7062              STRB     r2,[r4,#1]
;;;1992   	temp_ip[2]= ETH_TRAP3_IP_3;
00165e  70a3              STRB     r3,[r4,#2]
;;;1993   	temp_ip[3]= ETH_TRAP3_IP_4;
001660  e0a2              B        |L1.6056|
                  |L1.5730|
001662  e0a8              B        |L1.6070|
                  |L1.5732|
001664  c1e0f2e0          DCB      193,224,242,224,240,229,255,".  ",194,251,240,224,226,237
001668  f0e5ff2e
00166c  2020c2fb
001670  f0e0e2ed
001674  e8e2e0fe          DCB      232,226,224,254,249,232,233," ",231,224,240,255,228," @ "
001678  f9e8e920
00167c  e7e0f0ff
001680  e4204020
001684  2000              DCB      " ",0
001686  00                DCB      0
001687  00                DCB      0
                  |L1.5768|
001688  20e7e0e2          DCB      " ",231,224,226,229,240,248,229,237,"   ",0
00168c  e5f0f8e5
001690  ed202020
001694  00      
001695  00                DCB      0
001696  00                DCB      0
001697  00                DCB      0
                  |L1.5784|
001698  c1e0f2e0          DCB      193,224,242,224,240,229,255,".  ",202,238,237,242,240,238
00169c  f0e5ff2e
0016a0  2020caee
0016a4  edf2f0ee
0016a8  ebfc20e5          DCB      235,252," ",229,236,234,238,241,242,232," @  ",0
0016ac  eceaeef1
0016b0  f2e82040
0016b4  202000  
0016b7  00                DCB      0
                  |L1.5816|
0016b8  20ede520          DCB      " ",237,229," ",231,224,226,229,240,248,229,237,"  ",0
0016bc  e7e0e2e5
0016c0  f0f8e5ed
0016c4  202000  
0016c7  00                DCB      0
                  |L1.5832|
0016c8  2c2055ed          DCB      ", U",237,224,247,"   , ",194,", U",234,238,237,"   , ",194
0016cc  e0f72020
0016d0  202c20c2
0016d4  2c2055ea
0016d8  eeed2020
0016dc  202c20c2
0016e0  2c2043e1          DCB      ", C",225,224,242,"    , ",192,"*",247," ",0
0016e4  e0f22020
0016e8  20202c20
0016ec  c02af720
0016f0  00      
0016f1  00                DCB      0
0016f2  00                DCB      0
0016f3  00                DCB      0
                  |L1.5876|
0016f4  40eef2ea          DCB      "@",238,242,234,235,254,247,232,235,241,255,"           "
0016f8  ebfef7e8
0016fc  ebf1ff20
001700  20202020
001704  20202020
001708  2020    
00170a  202000            DCB      "  ",0
00170d  00                DCB      0
00170e  00                DCB      0
00170f  00                DCB      0
                  |L1.5904|
001710  4020efe5          DCB      "@ ",239,229,240,229,227,240,229,226,"   ",0
001714  f0e5e3f0
001718  e5e22020
00171c  2000    
00171e  00                DCB      0
00171f  00                DCB      0
                  |L1.5920|
001720  4020e7e0          DCB      "@ ",231,224,226,251,248,229,237,238," U",226,251,245,"."
001724  e2fbf8e5
001728  edee2055
00172c  e2fbf52e
001730  202000            DCB      "  ",0
001733  00                DCB      0
                  |L1.5940|
001734  4020e7e0          DCB      "@ ",231,224,237,232,230,229,237,238," U",226,251,245,"."
001738  ede8e6e5
00173c  edee2055
001740  e2fbf52e
001744  202000            DCB      "  ",0
001747  00                DCB      0
                  |L1.5960|
001748  2c2020f3          DCB      ",  ",243,241,242,240,224,237,229,237,224,"   ",0
00174c  f1f2f0e0
001750  ede5ede0
001754  20202000
                  |L1.5976|
001758  2c20ede5          DCB      ", ",237,229," ",243,241,242,240,224,237,229,237,224,"  "
00175c  20f3f1f2
001760  f0e0ede5
001764  ede02020
001768  00                DCB      0
001769  00                DCB      0
00176a  00                DCB      0
00176b  00                DCB      0
                  |L1.5996|
                          DCD      ||.data||
                  |L1.6000|
                          DCD      ||.bss||+0xc8
                  |L1.6004|
                          DCD      ||.bss||+0x266
                  |L1.6008|
                          DCD      ETH_TRAP1_IP_1
                  |L1.6012|
                          DCD      ETH_TRAP1_IP_2
                  |L1.6016|
                          DCD      ETH_TRAP1_IP_3
                  |L1.6020|
                          DCD      ETH_TRAP1_IP_4
                  |L1.6024|
                          DCD      ETH_TRAP2_IP_1
                  |L1.6028|
                          DCD      ETH_TRAP2_IP_2
                  |L1.6032|
                          DCD      ETH_TRAP2_IP_3
                  |L1.6036|
                          DCD      ETH_TRAP2_IP_4
                  |L1.6040|
                          DCD      ETH_TRAP3_IP_1
                  |L1.6044|
                          DCD      ETH_TRAP3_IP_2
                  |L1.6048|
                          DCD      ETH_TRAP3_IP_3
                  |L1.6052|
                          DCD      ETH_TRAP3_IP_4
                  |L1.6056|
0017a8  70e0              STRB     r0,[r4,#3]
;;;1994   	snmp_trap (temp_ip, 6, 3, obj);
0017aa  4ba7              LDR      r3,|L1.6728|
0017ac  2203              MOVS     r2,#3
0017ae  2106              MOVS     r1,#6
0017b0  48a6              LDR      r0,|L1.6732|
0017b2  f7fffffe          BL       snmp_trap
                  |L1.6070|
;;;1995   	}
;;;1996   
;;;1997   if((ETH_TRAP4_IP_1!=255)&&(ETH_TRAP4_IP_2!=255)&&(ETH_TRAP4_IP_3!=255)&&(ETH_TRAP4_IP_4!=255))
0017b6  48a6              LDR      r0,|L1.6736|
0017b8  f9b03000          LDRSH    r3,[r0,#0]  ; ETH_TRAP4_IP_1
0017bc  2bff              CMP      r3,#0xff
0017be  d018              BEQ      |L1.6130|
0017c0  48a4              LDR      r0,|L1.6740|
0017c2  f9b00000          LDRSH    r0,[r0,#0]  ; ETH_TRAP4_IP_2
0017c6  28ff              CMP      r0,#0xff
0017c8  d013              BEQ      |L1.6130|
0017ca  49a3              LDR      r1,|L1.6744|
0017cc  f9b11000          LDRSH    r1,[r1,#0]  ; ETH_TRAP4_IP_3
0017d0  29ff              CMP      r1,#0xff
0017d2  d00e              BEQ      |L1.6130|
0017d4  4aa1              LDR      r2,|L1.6748|
0017d6  f9b22000          LDRSH    r2,[r2,#0]  ; ETH_TRAP4_IP_4
0017da  2aff              CMP      r2,#0xff
0017dc  d009              BEQ      |L1.6130|
;;;1998   	{
;;;1999   	temp_ip[0]= ETH_TRAP4_IP_1;
0017de  7023              STRB     r3,[r4,#0]
;;;2000   	temp_ip[1]= ETH_TRAP4_IP_2;
0017e0  7060              STRB     r0,[r4,#1]
;;;2001   	temp_ip[2]= ETH_TRAP4_IP_3;
0017e2  70a1              STRB     r1,[r4,#2]
;;;2002   	temp_ip[3]= ETH_TRAP4_IP_4;
0017e4  70e2              STRB     r2,[r4,#3]
;;;2003   	snmp_trap (temp_ip, 6, 3, obj);
0017e6  4b98              LDR      r3,|L1.6728|
0017e8  2203              MOVS     r2,#3
0017ea  2106              MOVS     r1,#6
0017ec  4897              LDR      r0,|L1.6732|
0017ee  f7fffffe          BL       snmp_trap
                  |L1.6130|
;;;2004   	}
;;;2005   
;;;2006   if((ETH_TRAP5_IP_1!=255)&&(ETH_TRAP5_IP_2!=255)&&(ETH_TRAP5_IP_3!=255)&&(ETH_TRAP5_IP_4!=255))
0017f2  489b              LDR      r0,|L1.6752|
0017f4  f9b02000          LDRSH    r2,[r0,#0]  ; ETH_TRAP5_IP_1
0017f8  2aff              CMP      r2,#0xff
0017fa  d01a              BEQ      |L1.6194|
0017fc  4899              LDR      r0,|L1.6756|
0017fe  f9b01000          LDRSH    r1,[r0,#0]  ; ETH_TRAP5_IP_2
001802  29ff              CMP      r1,#0xff
001804  d015              BEQ      |L1.6194|
001806  4898              LDR      r0,|L1.6760|
001808  f9b00000          LDRSH    r0,[r0,#0]  ; ETH_TRAP5_IP_3
00180c  28ff              CMP      r0,#0xff
00180e  d010              BEQ      |L1.6194|
001810  4b96              LDR      r3,|L1.6764|
001812  f9b33000          LDRSH    r3,[r3,#0]  ; ETH_TRAP5_IP_4
001816  2bff              CMP      r3,#0xff
001818  d00b              BEQ      |L1.6194|
;;;2007   	{
;;;2008   	temp_ip[0]= ETH_TRAP5_IP_1;
00181a  7022              STRB     r2,[r4,#0]
;;;2009   	temp_ip[1]= ETH_TRAP5_IP_2;
00181c  7061              STRB     r1,[r4,#1]
;;;2010   	temp_ip[2]= ETH_TRAP5_IP_3;
00181e  70a0              STRB     r0,[r4,#2]
;;;2011   	temp_ip[3]= ETH_TRAP5_IP_4;
001820  70e3              STRB     r3,[r4,#3]
;;;2012   	snmp_trap (temp_ip, 6, 3, obj);
001822  e8bd41f0          POP      {r4-r8,lr}
001826  2203              MOVS     r2,#3
001828  4b87              LDR      r3,|L1.6728|
00182a  2106              MOVS     r1,#6
00182c  4887              LDR      r0,|L1.6732|
00182e  f7ffbffe          B.W      snmp_trap
                  |L1.6194|
;;;2013   	}			
;;;2014   }
001832  e8bd81f0          POP      {r4-r8,pc}
;;;2015   
                          ENDP

                  snmp_klimat_settings_box_alarm_write PROC
;;;2016   //-----------------------------------------------
;;;2017   void snmp_klimat_settings_box_alarm_write(int mode)
001836  2801              CMP      r0,#1
;;;2018   {
;;;2019   if(mode==MIB_WRITE)
001838  d106              BNE      |L1.6216|
;;;2020   	{
;;;2021        lc640_write_int(EE_TBOXMAX,snmp_klimat_settings_box_alarm);
00183a  4884              LDR      r0,|L1.6732|
00183c  38e0              SUBS     r0,r0,#0xe0
00183e  f9b01078          LDRSH    r1,[r0,#0x78]  ; snmp_klimat_settings_box_alarm
001842  20d0              MOVS     r0,#0xd0
001844  f7ffbffe          B.W      lc640_write_int
                  |L1.6216|
;;;2022   	}
;;;2023   }
001848  4770              BX       lr
;;;2024   //-----------------------------------------------
                          ENDP

                  snmp_klimat_settings_vent_on_write PROC
;;;2025   void snmp_klimat_settings_vent_on_write(int mode)
00184a  2801              CMP      r0,#1
;;;2026   {
;;;2027   if(mode==MIB_WRITE)
00184c  d106              BNE      |L1.6236|
;;;2028   	{
;;;2029        lc640_write_int(EE_TBOXVENTON,snmp_klimat_settings_vent_on);
00184e  487f              LDR      r0,|L1.6732|
001850  38e0              SUBS     r0,r0,#0xe0
001852  f9b0107a          LDRSH    r1,[r0,#0x7a]  ; snmp_klimat_settings_vent_on
001856  20f4              MOVS     r0,#0xf4
001858  f7ffbffe          B.W      lc640_write_int
                  |L1.6236|
;;;2030   	}
;;;2031   }
00185c  4770              BX       lr
;;;2032   //-----------------------------------------------
                          ENDP

                  snmp_klimat_settings_vent_off_write PROC
;;;2033   void snmp_klimat_settings_vent_off_write(int mode)
00185e  2801              CMP      r0,#1
;;;2034   {
;;;2035   if(mode==MIB_WRITE)
001860  d106              BNE      |L1.6256|
;;;2036   	{
;;;2037        lc640_write_int(EE_TBOXVENTOFF,snmp_klimat_settings_vent_off);
001862  487a              LDR      r0,|L1.6732|
001864  38e0              SUBS     r0,r0,#0xe0
001866  f9b0107c          LDRSH    r1,[r0,#0x7c]  ; snmp_klimat_settings_vent_off
00186a  20f6              MOVS     r0,#0xf6
00186c  f7ffbffe          B.W      lc640_write_int
                  |L1.6256|
;;;2038   	}
;;;2039   }
001870  4770              BX       lr
;;;2040   //-----------------------------------------------
                          ENDP

                  snmp_klimat_settings_warm_on_write PROC
;;;2041   void snmp_klimat_settings_warm_on_write(int mode)
001872  2801              CMP      r0,#1
;;;2042   {
;;;2043   if(mode==MIB_WRITE)
001874  d106              BNE      |L1.6276|
;;;2044   	{
;;;2045        lc640_write_int(EE_TBOXWARMON,snmp_klimat_settings_warm_on);
001876  4875              LDR      r0,|L1.6732|
001878  38e0              SUBS     r0,r0,#0xe0
00187a  f9b0107e          LDRSH    r1,[r0,#0x7e]  ; snmp_klimat_settings_warm_on
00187e  20f8              MOVS     r0,#0xf8
001880  f7ffbffe          B.W      lc640_write_int
                  |L1.6276|
;;;2046   	}
;;;2047   }
001884  4770              BX       lr
;;;2048   //-----------------------------------------------
                          ENDP

                  snmp_klimat_settings_warm_off_write PROC
;;;2049   void snmp_klimat_settings_warm_off_write(int mode)
001886  2801              CMP      r0,#1
;;;2050   {
;;;2051   if(mode==MIB_WRITE)
001888  d106              BNE      |L1.6296|
;;;2052   	{
;;;2053        lc640_write_int(EE_TBOXWARMOFF,snmp_klimat_settings_warm_off);
00188a  4870              LDR      r0,|L1.6732|
00188c  3860              SUBS     r0,r0,#0x60
00188e  f9b01000          LDRSH    r1,[r0,#0]  ; snmp_klimat_settings_warm_off
001892  20fa              MOVS     r0,#0xfa
001894  f7ffbffe          B.W      lc640_write_int
                  |L1.6296|
;;;2054   	}
;;;2055   }
001898  4770              BX       lr
;;;2056   //-----------------------------------------------
                          ENDP

                  snmp_klimat_settings_load_on_write PROC
;;;2057   void snmp_klimat_settings_load_on_write(int mode)
00189a  2801              CMP      r0,#1
;;;2058   {
;;;2059   if(mode==MIB_WRITE)
00189c  d106              BNE      |L1.6316|
;;;2060   	{
;;;2061        lc640_write_int(EE_TLOADENABLE,snmp_klimat_settings_load_on);
00189e  486b              LDR      r0,|L1.6732|
0018a0  3860              SUBS     r0,r0,#0x60
0018a2  f9b01002          LDRSH    r1,[r0,#2]  ; snmp_klimat_settings_load_on
0018a6  20d8              MOVS     r0,#0xd8
0018a8  f7ffbffe          B.W      lc640_write_int
                  |L1.6316|
;;;2062   	}
;;;2063   }
0018ac  4770              BX       lr
;;;2064   //-----------------------------------------------
                          ENDP

                  snmp_klimat_settings_load_off_write PROC
;;;2065   void snmp_klimat_settings_load_off_write(int mode)
0018ae  2801              CMP      r0,#1
;;;2066   {
;;;2067   if(mode==MIB_WRITE)
0018b0  d106              BNE      |L1.6336|
;;;2068   	{
;;;2069        lc640_write_int(EE_TLOADDISABLE,snmp_klimat_settings_load_off);
0018b2  4866              LDR      r0,|L1.6732|
0018b4  3860              SUBS     r0,r0,#0x60
0018b6  f9b01004          LDRSH    r1,[r0,#4]  ; snmp_klimat_settings_load_off
0018ba  20d6              MOVS     r0,#0xd6
0018bc  f7ffbffe          B.W      lc640_write_int
                  |L1.6336|
;;;2070   	}
;;;2071   }
0018c0  4770              BX       lr
;;;2072   //-----------------------------------------------
                          ENDP

                  snmp_klimat_settings_batt_on_write PROC
;;;2073   void snmp_klimat_settings_batt_on_write(int mode)
0018c2  2801              CMP      r0,#1
;;;2074   {
;;;2075   if(mode==MIB_WRITE)
0018c4  d106              BNE      |L1.6356|
;;;2076   	{
;;;2077        lc640_write_int(EE_TBATENABLE,snmp_klimat_settings_batt_on);
0018c6  4861              LDR      r0,|L1.6732|
0018c8  3860              SUBS     r0,r0,#0x60
0018ca  f9b01006          LDRSH    r1,[r0,#6]  ; snmp_klimat_settings_batt_on
0018ce  20dc              MOVS     r0,#0xdc
0018d0  f7ffbffe          B.W      lc640_write_int
                  |L1.6356|
;;;2078   	}
;;;2079   }
0018d4  4770              BX       lr
;;;2080   //-----------------------------------------------
                          ENDP

                  snmp_klimat_settings_batt_off_write PROC
;;;2081   void snmp_klimat_settings_batt_off_write(int mode)
0018d6  2801              CMP      r0,#1
;;;2082   {
;;;2083   if(mode==MIB_WRITE)
0018d8  d106              BNE      |L1.6376|
;;;2084   	{
;;;2085        lc640_write_int(EE_TBATDISABLE,snmp_klimat_settings_batt_off);
0018da  485c              LDR      r0,|L1.6732|
0018dc  3860              SUBS     r0,r0,#0x60
0018de  f9b01008          LDRSH    r1,[r0,#8]  ; snmp_klimat_settings_batt_off
0018e2  20da              MOVS     r0,#0xda
0018e4  f7ffbffe          B.W      lc640_write_int
                  |L1.6376|
;;;2086   	}
;;;2087   }
0018e8  4770              BX       lr
;;;2088   
                          ENDP

                  snmp_warm_sign_write PROC
;;;2090   //-----------------------------------------------
;;;2091   void snmp_warm_sign_write(int mode)
0018ea  2801              CMP      r0,#1
;;;2092   {
;;;2093   if(mode==MIB_WRITE)
0018ec  d10c              BNE      |L1.6408|
;;;2094   	{
;;;2095        if(snmp_warm_sign==1)lc640_write_int(EE_TELECORE2017_KLIMAT_WARM_SIGNAL,1);
0018ee  4857              LDR      r0,|L1.6732|
0018f0  38e0              SUBS     r0,r0,#0xe0
0018f2  7801              LDRB     r1,[r0,#0]  ; snmp_warm_sign
0018f4  f44f7082          MOV      r0,#0x104
0018f8  2901              CMP      r1,#1
0018fa  d002              BEQ      |L1.6402|
;;;2096   	 else lc640_write_int(EE_TELECORE2017_KLIMAT_WARM_SIGNAL,0);
0018fc  2100              MOVS     r1,#0
0018fe  f7ffbffe          B.W      lc640_write_int
                  |L1.6402|
001902  2101              MOVS     r1,#1                 ;2095
001904  f7ffbffe          B.W      lc640_write_int
                  |L1.6408|
;;;2097   	}
;;;2098   }
001908  4770              BX       lr
;;;2099   
                          ENDP

                  snmp_cool_sign_write PROC
;;;2100   //-----------------------------------------------
;;;2101   void snmp_cool_sign_write(int mode)
00190a  2801              CMP      r0,#1
;;;2102   {
;;;2103   if(mode==MIB_WRITE)
00190c  d10c              BNE      |L1.6440|
;;;2104   	{
;;;2105       if(snmp_cool_sign==1)lc640_write_int(EE_TELECORE2017_KLIMAT_VENT_SIGNAL,1);
00190e  484f              LDR      r0,|L1.6732|
001910  38e0              SUBS     r0,r0,#0xe0
001912  7841              LDRB     r1,[r0,#1]  ; snmp_cool_sign
001914  f44f708a          MOV      r0,#0x114
001918  2901              CMP      r1,#1
00191a  d002              BEQ      |L1.6434|
;;;2106   	else lc640_write_int(EE_TELECORE2017_KLIMAT_VENT_SIGNAL,0);
00191c  2100              MOVS     r1,#0
00191e  f7ffbffe          B.W      lc640_write_int
                  |L1.6434|
001922  2101              MOVS     r1,#1                 ;2105
001924  f7ffbffe          B.W      lc640_write_int
                  |L1.6440|
;;;2107   	}
;;;2108   }
001928  4770              BX       lr
;;;2109   
                          ENDP

                  snmp_warm_on_temper_write PROC
;;;2110   //-----------------------------------------------
;;;2111   void snmp_warm_on_temper_write(int mode)
00192a  2801              CMP      r0,#1
;;;2112   {
;;;2113   if(mode==MIB_WRITE)
00192c  d107              BNE      |L1.6462|
;;;2114   	{
;;;2115        lc640_write_int(EE_TELECORE2017_KLIMAT_WARM_ON,snmp_warm_on_temper);
00192e  4847              LDR      r0,|L1.6732|
001930  38e0              SUBS     r0,r0,#0xe0
001932  f9901002          LDRSB    r1,[r0,#2]  ; snmp_warm_on_temper
001936  f44f7083          MOV      r0,#0x106
00193a  f7ffbffe          B.W      lc640_write_int
                  |L1.6462|
;;;2116   	}
;;;2117   }
00193e  4770              BX       lr
;;;2118   
                          ENDP

                  snmp_warm_off_temper_write PROC
;;;2119   //-----------------------------------------------
;;;2120   void snmp_warm_off_temper_write(int mode)
001940  2801              CMP      r0,#1
;;;2121   {
;;;2122   if(mode==MIB_WRITE)
001942  d107              BNE      |L1.6484|
;;;2123   	{
;;;2124        lc640_write_int(EE_TELECORE2017_KLIMAT_WARM_OFF,snmp_warm_off_temper);
001944  4841              LDR      r0,|L1.6732|
001946  38e0              SUBS     r0,r0,#0xe0
001948  f9901003          LDRSB    r1,[r0,#3]  ; snmp_warm_off_temper
00194c  f44f7084          MOV      r0,#0x108
001950  f7ffbffe          B.W      lc640_write_int
                  |L1.6484|
;;;2125   	}
;;;2126   }
001954  4770              BX       lr
;;;2127   
                          ENDP

                  snmp_warm_q_write PROC
;;;2128   //-----------------------------------------------
;;;2129   void snmp_warm_q_write(int mode)
001956  2801              CMP      r0,#1
;;;2130   {
;;;2131   if(mode==MIB_WRITE)
001958  d107              BNE      |L1.6506|
;;;2132   	{
;;;2133        lc640_write_int(EE_TELECORE2017_KLIMAT_CAP,snmp_warm_q);
00195a  483c              LDR      r0,|L1.6732|
00195c  38e0              SUBS     r0,r0,#0xe0
00195e  f9901004          LDRSB    r1,[r0,#4]  ; snmp_warm_q
001962  f44f7085          MOV      r0,#0x10a
001966  f7ffbffe          B.W      lc640_write_int
                  |L1.6506|
;;;2134   	}
;;;2135   }
00196a  4770              BX       lr
;;;2136   
                          ENDP

                  snmp_cool_100_temper_write PROC
;;;2137   //-----------------------------------------------
;;;2138   void snmp_cool_100_temper_write(int mode)
00196c  2801              CMP      r0,#1
;;;2139   {
;;;2140   if(mode==MIB_WRITE)
00196e  d107              BNE      |L1.6528|
;;;2141   	{
;;;2142        lc640_write_int(EE_TELECORE2017_KLIMAT_VENT_ON100,snmp_cool_100_temper);
001970  4836              LDR      r0,|L1.6732|
001972  38e0              SUBS     r0,r0,#0xe0
001974  f9901005          LDRSB    r1,[r0,#5]  ; snmp_cool_100_temper
001978  f44f70a3          MOV      r0,#0x146
00197c  f7ffbffe          B.W      lc640_write_int
                  |L1.6528|
;;;2143   	}
;;;2144   }
001980  4770              BX       lr
;;;2145   
                          ENDP

                  snmp_cool_80_temper_write PROC
;;;2146   //-----------------------------------------------
;;;2147   void snmp_cool_80_temper_write(int mode)
001982  2801              CMP      r0,#1
;;;2148   {
;;;2149   if(mode==MIB_WRITE)
001984  d107              BNE      |L1.6550|
;;;2150   	{
;;;2151        lc640_write_int(EE_TELECORE2017_KLIMAT_VENT_ON80,snmp_cool_80_temper);
001986  4831              LDR      r0,|L1.6732|
001988  38e0              SUBS     r0,r0,#0xe0
00198a  f9901006          LDRSB    r1,[r0,#6]  ; snmp_cool_80_temper
00198e  f44f70a2          MOV      r0,#0x144
001992  f7ffbffe          B.W      lc640_write_int
                  |L1.6550|
;;;2152   	}
;;;2153   }
001996  4770              BX       lr
;;;2154   
                          ENDP

                  snmp_cool_60_temper_write PROC
;;;2155   //-----------------------------------------------
;;;2156   void snmp_cool_60_temper_write(int mode)
001998  2801              CMP      r0,#1
;;;2157   {
;;;2158   if(mode==MIB_WRITE)
00199a  d107              BNE      |L1.6572|
;;;2159   	{
;;;2160        lc640_write_int(EE_TELECORE2017_KLIMAT_VENT_ON60,snmp_cool_60_temper);
00199c  482b              LDR      r0,|L1.6732|
00199e  38e0              SUBS     r0,r0,#0xe0
0019a0  f9901007          LDRSB    r1,[r0,#7]  ; snmp_cool_60_temper
0019a4  f44f70a1          MOV      r0,#0x142
0019a8  f7ffbffe          B.W      lc640_write_int
                  |L1.6572|
;;;2161   	}
;;;2162   }
0019ac  4770              BX       lr
;;;2163   
                          ENDP

                  snmp_cool_40_temper_write PROC
;;;2164   //-----------------------------------------------
;;;2165   void snmp_cool_40_temper_write(int mode)
0019ae  2801              CMP      r0,#1
;;;2166   {
;;;2167   if(mode==MIB_WRITE)
0019b0  d107              BNE      |L1.6594|
;;;2168   	{
;;;2169        lc640_write_int(EE_TELECORE2017_KLIMAT_VENT_ON40,snmp_cool_40_temper);
0019b2  4826              LDR      r0,|L1.6732|
0019b4  38e0              SUBS     r0,r0,#0xe0
0019b6  f9901008          LDRSB    r1,[r0,#8]  ; snmp_cool_40_temper
0019ba  f44f70a0          MOV      r0,#0x140
0019be  f7ffbffe          B.W      lc640_write_int
                  |L1.6594|
;;;2170   	}
;;;2171   }
0019c2  4770              BX       lr
;;;2172   
                          ENDP

                  snmp_cool_20_temper_write PROC
;;;2173   //-----------------------------------------------
;;;2174   void snmp_cool_20_temper_write(int mode)
0019c4  2801              CMP      r0,#1
;;;2175   {
;;;2176   if(mode==MIB_WRITE)
0019c6  d107              BNE      |L1.6616|
;;;2177   	{
;;;2178        lc640_write_int(EE_TELECORE2017_KLIMAT_VENT_ON20,snmp_cool_20_temper);
0019c8  4820              LDR      r0,|L1.6732|
0019ca  38e0              SUBS     r0,r0,#0xe0
0019cc  f9901009          LDRSB    r1,[r0,#9]  ; snmp_cool_20_temper
0019d0  f44f709f          MOV      r0,#0x13e
0019d4  f7ffbffe          B.W      lc640_write_int
                  |L1.6616|
;;;2179   	}
;;;2180   }
0019d8  4770              BX       lr
;;;2181   
                          ENDP

                  snmp_cool_100_dtemper_write PROC
;;;2182   //-----------------------------------------------
;;;2183   void snmp_cool_100_dtemper_write(int mode)
0019da  2801              CMP      r0,#1
;;;2184   {
;;;2185   if(mode==MIB_WRITE)
0019dc  d107              BNE      |L1.6638|
;;;2186   	{
;;;2187        lc640_write_int(EE_TELECORE2017_KLIMAT_DVENT_ON100,snmp_cool_100_dtemper);
0019de  481b              LDR      r0,|L1.6732|
0019e0  38e0              SUBS     r0,r0,#0xe0
0019e2  f990100a          LDRSB    r1,[r0,#0xa]  ; snmp_cool_100_dtemper
0019e6  f44f70a9          MOV      r0,#0x152
0019ea  f7ffbffe          B.W      lc640_write_int
                  |L1.6638|
;;;2188   	}
;;;2189   }
0019ee  4770              BX       lr
;;;2190   
                          ENDP

                  snmp_cool_80_dtemper_write PROC
;;;2191   //-----------------------------------------------
;;;2192   void snmp_cool_80_dtemper_write(int mode)
0019f0  2801              CMP      r0,#1
;;;2193   {
;;;2194   if(mode==MIB_WRITE)
0019f2  d107              BNE      |L1.6660|
;;;2195   	{
;;;2196        lc640_write_int(EE_TELECORE2017_KLIMAT_DVENT_ON80,snmp_cool_80_dtemper);
0019f4  4815              LDR      r0,|L1.6732|
0019f6  38e0              SUBS     r0,r0,#0xe0
0019f8  f990100b          LDRSB    r1,[r0,#0xb]  ; snmp_cool_80_dtemper
0019fc  f44f70a8          MOV      r0,#0x150
001a00  f7ffbffe          B.W      lc640_write_int
                  |L1.6660|
;;;2197   	}
;;;2198   }
001a04  4770              BX       lr
;;;2199   
                          ENDP

                  snmp_cool_60_dtemper_write PROC
;;;2200   //-----------------------------------------------
;;;2201   void snmp_cool_60_dtemper_write(int mode)
001a06  2801              CMP      r0,#1
;;;2202   {
;;;2203   if(mode==MIB_WRITE)
001a08  d107              BNE      |L1.6682|
;;;2204   	{
;;;2205        lc640_write_int(EE_TELECORE2017_KLIMAT_DVENT_ON60,snmp_cool_60_dtemper);
001a0a  4810              LDR      r0,|L1.6732|
001a0c  38e0              SUBS     r0,r0,#0xe0
001a0e  f990100c          LDRSB    r1,[r0,#0xc]  ; snmp_cool_60_dtemper
001a12  f44f70a7          MOV      r0,#0x14e
001a16  f7ffbffe          B.W      lc640_write_int
                  |L1.6682|
;;;2206   	}
;;;2207   }
001a1a  4770              BX       lr
;;;2208   
                          ENDP

                  snmp_cool_40_dtemper_write PROC
;;;2209   //-----------------------------------------------
;;;2210   void snmp_cool_40_dtemper_write(int mode)
001a1c  2801              CMP      r0,#1
;;;2211   {
;;;2212   if(mode==MIB_WRITE)
001a1e  d107              BNE      |L1.6704|
;;;2213   	{
;;;2214        lc640_write_int(EE_TELECORE2017_KLIMAT_DVENT_ON40,snmp_cool_40_dtemper);
001a20  480a              LDR      r0,|L1.6732|
001a22  38e0              SUBS     r0,r0,#0xe0
001a24  f990100d          LDRSB    r1,[r0,#0xd]  ; snmp_cool_40_dtemper
001a28  f44f70a6          MOV      r0,#0x14c
001a2c  f7ffbffe          B.W      lc640_write_int
                  |L1.6704|
;;;2215   	}
;;;2216   }
001a30  4770              BX       lr
;;;2217   
                          ENDP

                  snmp_cool_20_dtemper_write PROC
;;;2218   //-----------------------------------------------
;;;2219   void snmp_cool_20_dtemper_write(int mode)
001a32  2801              CMP      r0,#1
;;;2220   {
;;;2221   if(mode==MIB_WRITE)
001a34  d107              BNE      |L1.6726|
;;;2222   	{
;;;2223        lc640_write_int(EE_TELECORE2017_KLIMAT_DVENT_ON20,snmp_cool_20_dtemper);
001a36  4805              LDR      r0,|L1.6732|
001a38  38e0              SUBS     r0,r0,#0xe0
001a3a  f990100e          LDRSB    r1,[r0,#0xe]  ; snmp_cool_20_dtemper
001a3e  f44f70a5          MOV      r0,#0x14a
001a42  f7ffbffe          B.W      lc640_write_int
                  |L1.6726|
;;;2224   	}
;;;2225   }
001a46  4770              BX       lr
;;;2226   
                          ENDP

                  |L1.6728|
                          DCD      ||.bss||+0x266
                  |L1.6732|
                          DCD      ||.data||+0xe0
                  |L1.6736|
                          DCD      ETH_TRAP4_IP_1
                  |L1.6740|
                          DCD      ETH_TRAP4_IP_2
                  |L1.6744|
                          DCD      ETH_TRAP4_IP_3
                  |L1.6748|
                          DCD      ETH_TRAP4_IP_4
                  |L1.6752|
                          DCD      ETH_TRAP5_IP_1
                  |L1.6756|
                          DCD      ETH_TRAP5_IP_2
                  |L1.6760|
                          DCD      ETH_TRAP5_IP_3
                  |L1.6764|
                          DCD      ETH_TRAP5_IP_4

                          AREA ||.bss||, DATA, NOINIT, ALIGN=1

                  temp_str
                          %        20
                  snmp_location
                          %        100
                  snmp_bps_number
                          %        16
                  snmp_bps_voltage
                          %        16
                  snmp_bps_current
                          %        16
                  snmp_bps_temperature
                          %        16
                  snmp_bps_stat
                          %        16
                  snmp_spc_trap_message
                          %        100
                  snmp_avt_number
                          %        12
                  snmp_avt_stat
                          %        12
                  snmp_sk_name
                          %        80
                  snmp_lakb_number
                          %        14
                  snmp_lakb_voltage
                          %        14
                  snmp_lakb_max_cell_voltage
                          %        14
                  snmp_lakb_min_cell_voltage
                          %        14
                  snmp_lakb_max_cell_temperature
                          %        14
                  snmp_lakb_min_cell_temperature
                          %        14
                  snmp_lakb_ch_curr
                          %        14
                  snmp_lakb_dsch_curr
                          %        14
                  snmp_lakb_rat_cap
                          %        14
                  snmp_lakb_soh
                          %        14
                  snmp_lakb_soc
                          %        14
                  snmp_lakb_cclv
                          %        14
                  snmp_lakb_rbt
                          %        14
                  snmp_lakb_flags1
                          %        14
                  snmp_lakb_flags2
                          %        14
                  obj
                          %        20

                          AREA ||area_number.4||, DATA, NOINIT, ALIGN=0

                          EXPORTAS ||area_number.4||, ||.bss||
                  snmp_community
                          %        10

                          AREA ||area_number.5||, DATA, NOINIT, ALIGN=0

                          EXPORTAS ||area_number.5||, ||.bss||
                  snmp_lakb_damp1
                          %        450

                          AREA ||area_number.6||, DATA, NOINIT, ALIGN=0

                          EXPORTAS ||area_number.6||, ||.bss||
                  snmp_lakb_damp2
                          %        100

                          AREA ||.constdata||, DATA, READONLY, ALIGN=2

000000  20202020          DCB      0x20,0x20,0x20,0x20
000004  20202020          DCB      0x20,0x20,0x20,0x20
000008  20202020          DCB      0x20,0x20,0x20,0x20
00000c  20202020          DCB      0x20,0x20,0x20,0x20
000010  20202020          DCB      0x20,0x20,0x20,0x20
000014  20202020          DCB      0x20,0x20,0x20,0x20
000018  20202020          DCB      0x20,0x20,0x20,0x20
00001c  20202020          DCB      0x20,0x20,0x20,0x20
000020  20202020          DCB      0x20,0x20,0x20,0x20
000024  20202020          DCB      0x20,0x20,0x20,0x20
000028  20202020          DCB      0x20,0x20,0x20,0x20
00002c  20202020          DCB      0x20,0x20,0x20,0x20
000030  20202020          DCB      0x20,0x20,0x20,0x20
000034  20202020          DCB      0x20,0x20,0x20,0x20
000038  20202020          DCB      0x20,0x20,0x20,0x20
00003c  20202020          DCB      0x20,0x20,0x20,0x20
000040  20202020          DCB      0x20,0x20,0x20,0x20
000044  20202020          DCB      0x20,0x20,0x20,0x20
000048  20202020          DCB      0x20,0x20,0x20,0x20
00004c  20202020          DCB      0x20,0x20,0x20,0x20
000050  00                DCB      0x00

                          AREA ||.data||, DATA, ALIGN=2

                  snmp_warm_sign
000000  00                DCB      0x00
                  snmp_cool_sign
000001  00                DCB      0x00
                  snmp_warm_on_temper
000002  00                DCB      0x00
                  snmp_warm_off_temper
000003  00                DCB      0x00
                  snmp_warm_q
000004  00                DCB      0x00
                  snmp_cool_100_temper
000005  00                DCB      0x00
                  snmp_cool_80_temper
000006  00                DCB      0x00
                  snmp_cool_60_temper
000007  00                DCB      0x00
                  snmp_cool_40_temper
000008  00                DCB      0x00
                  snmp_cool_20_temper
000009  00                DCB      0x00
                  snmp_cool_100_dtemper
00000a  00                DCB      0x00
                  snmp_cool_80_dtemper
00000b  00                DCB      0x00
                  snmp_cool_60_dtemper
00000c  00                DCB      0x00
                  snmp_cool_40_dtemper
00000d  00                DCB      0x00
                  snmp_cool_20_dtemper
00000e  00                DCB      0x00
                  snmp_trap_send_i
00000f  00                DCB      0x00
                  snmp_trap_send_ii
000010  0000              DCB      0x00,0x00
                  snmp_numofbat
000012  0000              DCB      0x00,0x00
                  snmp_numofbps
000014  0000              DCB      0x00,0x00
                  snmp_numofinv
000016  0000              DCB      0x00,0x00
                  snmp_numofavt
000018  0000              DCB      0x00,0x00
                  snmp_numofdt
00001a  0000              DCB      0x00,0x00
                  snmp_numofsk
00001c  0000              DCB      0x00,0x00
                  snmp_numofevents
00001e  0000              DCB      0x00,0x00
                  snmp_mains_power_voltage
000020  0000              DCB      0x00,0x00
                  snmp_mains_power_frequency
000022  0000              DCB      0x00,0x00
                  snmp_mains_power_voltage_phaseA
000024  0000              DCB      0x00,0x00
                  snmp_mains_power_voltage_phaseB
000026  0000              DCB      0x00,0x00
                  snmp_mains_power_voltage_phaseC
000028  0000              DCB      0x00,0x00
                  snmp_load_voltage
00002a  0000              DCB      0x00,0x00
                  snmp_load_current
00002c  0000              DCB      0x00,0x00
                  snmp_spc_trap_value_0
00002e  0000              DCB      0x00,0x00
                  snmp_spc_trap_value_1
000030  0000              DCB      0x00,0x00
                  snmp_spc_trap_value_2
000032  0000              DCB      0x00,0x00
                  snmp_energy_vvod_phase_a
000034  0000              DCB      0x00,0x00
                  snmp_energy_vvod_phase_b
000036  0000              DCB      0x00,0x00
                  snmp_energy_vvod_phase_c
000038  0000              DCB      0x00,0x00
                  snmp_energy_pes_phase_a
00003a  0000              DCB      0x00,0x00
                  snmp_energy_pes_phase_b
00003c  0000              DCB      0x00,0x00
                  snmp_energy_pes_phase_c
00003e  0000              DCB      0x00,0x00
                  snmp_energy_input_voltage
000040  0000              DCB      0x00,0x00
                  snmp_energy_current_energy
000042  0000              DCB      0x00,0x00
                  snmp_command
000044  0000              DCB      0x00,0x00
                  snmp_command_parametr
000046  0000              DCB      0x00,0x00
                  snmp_zv_en
000048  0000              DCB      0x00,0x00
                  snmp_alarm_auto_disable
00004a  0000              DCB      0x00,0x00
                  snmp_bat_test_time
00004c  0000              DCB      0x00,0x00
                  snmp_u_max
00004e  0000              DCB      0x00,0x00
                  snmp_u_min
000050  0000              DCB      0x00,0x00
                  snmp_u_0_grad
000052  0000              DCB      0x00,0x00
                  snmp_u_20_grad
000054  0000              DCB      0x00,0x00
                  snmp_u_sign
000056  0000              DCB      0x00,0x00
                  snmp_u_min_power
000058  0000              DCB      0x00,0x00
                  snmp_u_withouth_bat
00005a  0000              DCB      0x00,0x00
                  snmp_control_current
00005c  0000              DCB      0x00,0x00
                  snmp_max_charge_current
00005e  0000              DCB      0x00,0x00
                  snmp_max_current
000060  0000              DCB      0x00,0x00
                  snmp_min_current
000062  0000              DCB      0x00,0x00
                  snmp_uvz
000064  0000              DCB      0x00,0x00
                  snmp_powerup_psu_timeout
000066  0000              DCB      0x00,0x00
                  snmp_max_temperature
000068  0000              DCB      0x00,0x00
                  snmp_tsign_bat
00006a  0000              DCB      0x00,0x00
                  snmp_tmax_bat
00006c  0000              DCB      0x00,0x00
                  snmp_tsign_bps
00006e  0000              DCB      0x00,0x00
                  snmp_tmax_bps
000070  0000              DCB      0x00,0x00
                  snmp_bat_part_alarm
000072  0000              DCB      0x00,0x00
                  snmp_power_cnt_adress
000074  0000              DCB      0x00,0x00
                  snmp_klimat_box_temper
000076  0000              DCB      0x00,0x00
                  snmp_klimat_settings_box_alarm
000078  0000              DCB      0x00,0x00
                  snmp_klimat_settings_vent_on
00007a  0000              DCB      0x00,0x00
                  snmp_klimat_settings_vent_off
00007c  0000              DCB      0x00,0x00
                  snmp_klimat_settings_warm_on
00007e  0000              DCB      0x00,0x00
                  snmp_klimat_settings_warm_off
000080  0000              DCB      0x00,0x00
                  snmp_klimat_settings_load_on
000082  0000              DCB      0x00,0x00
                  snmp_klimat_settings_load_off
000084  0000              DCB      0x00,0x00
                  snmp_klimat_settings_batt_on
000086  0000              DCB      0x00,0x00
                  snmp_klimat_settings_batt_off
000088  0000              DCB      0x00,0x00
                  snmp_dt_ext
00008a  0000              DCB      0x00,0x00
                  snmp_dt_msan
00008c  0000              DCB      0x00,0x00
                  snmp_dt_epu
00008e  0000              DCB      0x00,0x00
                  snmp_dt_number
000090  000000            DCB      0x00,0x00,0x00
                  snmp_dt_error
000093  00                DCB      0x00
000094  0000              DCB      0x00,0x00
                  snmp_lakb_cell_temperature_1
000096  0000              DCB      0x00,0x00
000098  00                DCB      0x00
                  snmp_lakb_cell_temperature_2
000099  000000            DCB      0x00,0x00,0x00
                  snmp_lakb_cell_temperature_3
00009c  000000            DCB      0x00,0x00,0x00
                  snmp_lakb_cell_temperature_4
00009f  00                DCB      0x00
0000a0  0000              DCB      0x00,0x00
                  snmp_lakb_cell_temperature_ambient
0000a2  0000              DCB      0x00,0x00
0000a4  00                DCB      0x00
                  snmp_lakb_cell_temperature_power
0000a5  000000            DCB      0x00,0x00,0x00
                  snmp_sernum
                          DCD      0x00000000
                  snmp_bat_number
                          DCD      0x00000000
                  snmp_bat_voltage
                          DCD      0x00000000
                  snmp_bat_current
                          DCD      0x00000000
                  snmp_bat_temperature
                          DCD      0x00000000
                  snmp_bat_capacity
                          DCD      0x00000000
                  snmp_bat_charge
                          DCD      0x00000000
                  snmp_bat_status
                          DCD      0x00000000
                  snmp_bat_part_voltage
                          DCD      0x00000000
                  snmp_energy_total_energy
                          DCD      0x00000000
                  snmp_sk_number
                          DCD      0x00000000
                  snmp_sk_aktiv
                          DCD      0x00000000
                  snmp_sk_alarm_aktiv
                          DCD      0x00000000
                  snmp_sk_alarm
                          DCD      0x00000000
                  temp_ip
                          DCD      0x00000000
                  snmp_inv_number
                          DCD      0x00000000
0000e8  0000              DCB      0x00,0x00
                  snmp_inv_voltage
0000ea  0000              DCB      0x00,0x00
                          DCD      0x00000000
                  snmp_inv_current
                          DCD      0x00000000
0000f4  0000              DCB      0x00,0x00
                  snmp_inv_temperature
0000f6  0000              DCB      0x00,0x00
                          DCD      0x00000000
                  snmp_inv_stat
                          DCD      0x00000000
000100  0000              DCB      0x00,0x00
                  snmp_dt_temper
000102  0000              DCB      0x00,0x00
                          DCD      0x00000000
                  snmp_makb_connect_status
                          %        8
                  snmp_makb_voltage0
                          %        8
                  snmp_makb_voltage1
                          %        8
                  snmp_makb_voltage2
                          %        8
                  snmp_makb_voltage3
                          %        8
                  snmp_makb_voltage4
                          %        8
                  snmp_makb_temper0
                          %        8
                  snmp_makb_temper1
                          %        8
                  snmp_makb_temper2
                          %        8
                  snmp_makb_temper3
                          %        8
                  snmp_makb_temper4
                          %        8
                  snmp_makb_temper0_stat
                          %        8
                  snmp_makb_temper1_stat
                          %        8
                  snmp_makb_temper2_stat
                          %        8
                  snmp_makb_temper3_stat
                          %        8
                  snmp_makb_temper4_stat
                          %        8
                  snmp_log
000188  30314061          DCB      0x30,0x31,0x40,0x61
00018c  62636440          DCB      0x62,0x63,0x64,0x40
000190  65666768          DCB      0x65,0x66,0x67,0x68
000194  40696a6b          DCB      0x40,0x69,0x6a,0x6b
000198  6c403031          DCB      0x6c,0x40,0x30,0x31
00019c  40202020          DCB      0x40,0x20,0x20,0x20
0001a0  20202020          DCB      0x20,0x20,0x20,0x20
0001a4  20000000          DCB      0x20,0x00,0x00,0x00
                          %        96
000208  30324061          DCB      0x30,0x32,0x40,0x61
00020c  62636440          DCB      0x62,0x63,0x64,0x40
000210  65666768          DCB      0x65,0x66,0x67,0x68
000214  40696a6b          DCB      0x40,0x69,0x6a,0x6b
000218  6c403032          DCB      0x6c,0x40,0x30,0x32
00021c  40202020          DCB      0x40,0x20,0x20,0x20
000220  20202020          DCB      0x20,0x20,0x20,0x20
000224  20000000          DCB      0x20,0x00,0x00,0x00
                          %        96
000288  30334061          DCB      0x30,0x33,0x40,0x61
00028c  62636440          DCB      0x62,0x63,0x64,0x40
000290  65666768          DCB      0x65,0x66,0x67,0x68
000294  40696a6b          DCB      0x40,0x69,0x6a,0x6b
000298  6c403033          DCB      0x6c,0x40,0x30,0x33
00029c  40202020          DCB      0x40,0x20,0x20,0x20
0002a0  20202020          DCB      0x20,0x20,0x20,0x20
0002a4  20000000          DCB      0x20,0x00,0x00,0x00
                          %        96
000308  30344061          DCB      0x30,0x34,0x40,0x61
00030c  62636440          DCB      0x62,0x63,0x64,0x40
000310  65666768          DCB      0x65,0x66,0x67,0x68
000314  40696a6b          DCB      0x40,0x69,0x6a,0x6b
000318  6c403034          DCB      0x6c,0x40,0x30,0x34
00031c  40202020          DCB      0x40,0x20,0x20,0x20
000320  20202020          DCB      0x20,0x20,0x20,0x20
000324  20000000          DCB      0x20,0x00,0x00,0x00
                          %        96
000388  30354061          DCB      0x30,0x35,0x40,0x61
00038c  62636440          DCB      0x62,0x63,0x64,0x40
000390  65666768          DCB      0x65,0x66,0x67,0x68
000394  40696a6b          DCB      0x40,0x69,0x6a,0x6b
000398  6c403035          DCB      0x6c,0x40,0x30,0x35
00039c  40202020          DCB      0x40,0x20,0x20,0x20
0003a0  20202020          DCB      0x20,0x20,0x20,0x20
0003a4  20000000          DCB      0x20,0x00,0x00,0x00
                          %        96
000408  30364061          DCB      0x30,0x36,0x40,0x61
00040c  62636440          DCB      0x62,0x63,0x64,0x40
000410  65666768          DCB      0x65,0x66,0x67,0x68
000414  40696a6b          DCB      0x40,0x69,0x6a,0x6b
000418  6c403036          DCB      0x6c,0x40,0x30,0x36
00041c  40202020          DCB      0x40,0x20,0x20,0x20
000420  20202020          DCB      0x20,0x20,0x20,0x20
000424  20000000          DCB      0x20,0x00,0x00,0x00
                          %        96
000488  30374061          DCB      0x30,0x37,0x40,0x61
00048c  62636440          DCB      0x62,0x63,0x64,0x40
000490  65666768          DCB      0x65,0x66,0x67,0x68
000494  40696a6b          DCB      0x40,0x69,0x6a,0x6b
000498  6c403037          DCB      0x6c,0x40,0x30,0x37
00049c  40202020          DCB      0x40,0x20,0x20,0x20
0004a0  20202020          DCB      0x20,0x20,0x20,0x20
0004a4  20000000          DCB      0x20,0x00,0x00,0x00
                          %        96
000508  30384061          DCB      0x30,0x38,0x40,0x61
00050c  62636440          DCB      0x62,0x63,0x64,0x40
000510  65666768          DCB      0x65,0x66,0x67,0x68
000514  40696a6b          DCB      0x40,0x69,0x6a,0x6b
000518  6c403038          DCB      0x6c,0x40,0x30,0x38
00051c  40202020          DCB      0x40,0x20,0x20,0x20
000520  20202020          DCB      0x20,0x20,0x20,0x20
000524  20000000          DCB      0x20,0x00,0x00,0x00
                          %        96
000588  30394061          DCB      0x30,0x39,0x40,0x61
00058c  62636440          DCB      0x62,0x63,0x64,0x40
000590  65666768          DCB      0x65,0x66,0x67,0x68
000594  40696a6b          DCB      0x40,0x69,0x6a,0x6b
000598  6c403039          DCB      0x6c,0x40,0x30,0x39
00059c  40202020          DCB      0x40,0x20,0x20,0x20
0005a0  20202020          DCB      0x20,0x20,0x20,0x20
0005a4  20000000          DCB      0x20,0x00,0x00,0x00
                          %        96
000608  31304061          DCB      0x31,0x30,0x40,0x61
00060c  62636440          DCB      0x62,0x63,0x64,0x40
000610  65666768          DCB      0x65,0x66,0x67,0x68
000614  40696a6b          DCB      0x40,0x69,0x6a,0x6b
000618  6c403130          DCB      0x6c,0x40,0x31,0x30
00061c  40202020          DCB      0x40,0x20,0x20,0x20
000620  20202020          DCB      0x20,0x20,0x20,0x20
000624  20000000          DCB      0x20,0x00,0x00,0x00
                          %        96
000688  31314061          DCB      0x31,0x31,0x40,0x61
00068c  62636440          DCB      0x62,0x63,0x64,0x40
000690  65666768          DCB      0x65,0x66,0x67,0x68
000694  40696a6b          DCB      0x40,0x69,0x6a,0x6b
000698  6c403131          DCB      0x6c,0x40,0x31,0x31
00069c  40202020          DCB      0x40,0x20,0x20,0x20
0006a0  20202020          DCB      0x20,0x20,0x20,0x20
0006a4  20000000          DCB      0x20,0x00,0x00,0x00
                          %        96
000708  31324061          DCB      0x31,0x32,0x40,0x61
00070c  62636440          DCB      0x62,0x63,0x64,0x40
000710  65666768          DCB      0x65,0x66,0x67,0x68
000714  40696a6b          DCB      0x40,0x69,0x6a,0x6b
000718  6c403132          DCB      0x6c,0x40,0x31,0x32
00071c  40202020          DCB      0x40,0x20,0x20,0x20
000720  20202020          DCB      0x20,0x20,0x20,0x20
000724  20000000          DCB      0x20,0x00,0x00,0x00
                          %        96
000788  31334061          DCB      0x31,0x33,0x40,0x61
00078c  62636440          DCB      0x62,0x63,0x64,0x40
000790  65666768          DCB      0x65,0x66,0x67,0x68
000794  40696a6b          DCB      0x40,0x69,0x6a,0x6b
000798  6c403133          DCB      0x6c,0x40,0x31,0x33
00079c  40202020          DCB      0x40,0x20,0x20,0x20
0007a0  20202020          DCB      0x20,0x20,0x20,0x20
0007a4  20000000          DCB      0x20,0x00,0x00,0x00
                          %        96
000808  31344061          DCB      0x31,0x34,0x40,0x61
00080c  62636440          DCB      0x62,0x63,0x64,0x40
000810  65666768          DCB      0x65,0x66,0x67,0x68
000814  40696a6b          DCB      0x40,0x69,0x6a,0x6b
000818  6c403134          DCB      0x6c,0x40,0x31,0x34
00081c  40202020          DCB      0x40,0x20,0x20,0x20
000820  20202020          DCB      0x20,0x20,0x20,0x20
000824  20000000          DCB      0x20,0x00,0x00,0x00
                          %        96
000888  31354061          DCB      0x31,0x35,0x40,0x61
00088c  62636440          DCB      0x62,0x63,0x64,0x40
000890  65666768          DCB      0x65,0x66,0x67,0x68
000894  40696a6b          DCB      0x40,0x69,0x6a,0x6b
000898  6c403135          DCB      0x6c,0x40,0x31,0x35
00089c  40202020          DCB      0x40,0x20,0x20,0x20
0008a0  20202020          DCB      0x20,0x20,0x20,0x20
0008a4  20000000          DCB      0x20,0x00,0x00,0x00
                          %        96
000908  31364061          DCB      0x31,0x36,0x40,0x61
00090c  62636440          DCB      0x62,0x63,0x64,0x40
000910  65666768          DCB      0x65,0x66,0x67,0x68
000914  40696a6b          DCB      0x40,0x69,0x6a,0x6b
000918  6c403136          DCB      0x6c,0x40,0x31,0x36
00091c  40202020          DCB      0x40,0x20,0x20,0x20
000920  20202020          DCB      0x20,0x20,0x20,0x20
000924  20000000          DCB      0x20,0x00,0x00,0x00
                          %        96
000988  31374061          DCB      0x31,0x37,0x40,0x61
00098c  62636440          DCB      0x62,0x63,0x64,0x40
000990  65666768          DCB      0x65,0x66,0x67,0x68
000994  40696a6b          DCB      0x40,0x69,0x6a,0x6b
000998  6c403137          DCB      0x6c,0x40,0x31,0x37
00099c  40202020          DCB      0x40,0x20,0x20,0x20
0009a0  20202020          DCB      0x20,0x20,0x20,0x20
0009a4  20000000          DCB      0x20,0x00,0x00,0x00
                          %        96
000a08  31384061          DCB      0x31,0x38,0x40,0x61
000a0c  62636440          DCB      0x62,0x63,0x64,0x40
000a10  65666768          DCB      0x65,0x66,0x67,0x68
000a14  40696a6b          DCB      0x40,0x69,0x6a,0x6b
000a18  6c403138          DCB      0x6c,0x40,0x31,0x38
000a1c  40202020          DCB      0x40,0x20,0x20,0x20
000a20  20202020          DCB      0x20,0x20,0x20,0x20
000a24  20000000          DCB      0x20,0x00,0x00,0x00
                          %        96
000a88  31394061          DCB      0x31,0x39,0x40,0x61
000a8c  62636440          DCB      0x62,0x63,0x64,0x40
000a90  65666768          DCB      0x65,0x66,0x67,0x68
000a94  40696a6b          DCB      0x40,0x69,0x6a,0x6b
000a98  6c403139          DCB      0x6c,0x40,0x31,0x39
000a9c  40202020          DCB      0x40,0x20,0x20,0x20
000aa0  20202020          DCB      0x20,0x20,0x20,0x20
000aa4  20000000          DCB      0x20,0x00,0x00,0x00
                          %        96
000b08  32304061          DCB      0x32,0x30,0x40,0x61
000b0c  62636440          DCB      0x62,0x63,0x64,0x40
000b10  65666768          DCB      0x65,0x66,0x67,0x68
000b14  40696a6b          DCB      0x40,0x69,0x6a,0x6b
000b18  6c403230          DCB      0x6c,0x40,0x32,0x30
000b1c  40202020          DCB      0x40,0x20,0x20,0x20
000b20  20202020          DCB      0x20,0x20,0x20,0x20
000b24  20000000          DCB      0x20,0x00,0x00,0x00
                          %        96
000b88  32314061          DCB      0x32,0x31,0x40,0x61
000b8c  62636440          DCB      0x62,0x63,0x64,0x40
000b90  65666768          DCB      0x65,0x66,0x67,0x68
000b94  40696a6b          DCB      0x40,0x69,0x6a,0x6b
000b98  6c403231          DCB      0x6c,0x40,0x32,0x31
000b9c  40202020          DCB      0x40,0x20,0x20,0x20
000ba0  20202020          DCB      0x20,0x20,0x20,0x20
000ba4  20000000          DCB      0x20,0x00,0x00,0x00
                          %        96
000c08  32324061          DCB      0x32,0x32,0x40,0x61
000c0c  62636440          DCB      0x62,0x63,0x64,0x40
000c10  65666768          DCB      0x65,0x66,0x67,0x68
000c14  40696a6b          DCB      0x40,0x69,0x6a,0x6b
000c18  6c403232          DCB      0x6c,0x40,0x32,0x32
000c1c  40202020          DCB      0x40,0x20,0x20,0x20
000c20  20202020          DCB      0x20,0x20,0x20,0x20
000c24  20000000          DCB      0x20,0x00,0x00,0x00
                          %        96
000c88  32334061          DCB      0x32,0x33,0x40,0x61
000c8c  62636440          DCB      0x62,0x63,0x64,0x40
000c90  65666768          DCB      0x65,0x66,0x67,0x68
000c94  40696a6b          DCB      0x40,0x69,0x6a,0x6b
000c98  6c403233          DCB      0x6c,0x40,0x32,0x33
000c9c  40202020          DCB      0x40,0x20,0x20,0x20
000ca0  20202020          DCB      0x20,0x20,0x20,0x20
000ca4  20000000          DCB      0x20,0x00,0x00,0x00
                          %        96
000d08  32344061          DCB      0x32,0x34,0x40,0x61
000d0c  62636440          DCB      0x62,0x63,0x64,0x40
000d10  65666768          DCB      0x65,0x66,0x67,0x68
000d14  40696a6b          DCB      0x40,0x69,0x6a,0x6b
000d18  6c403234          DCB      0x6c,0x40,0x32,0x34
000d1c  40202020          DCB      0x40,0x20,0x20,0x20
000d20  20202020          DCB      0x20,0x20,0x20,0x20
000d24  20000000          DCB      0x20,0x00,0x00,0x00
                          %        96
000d88  32354061          DCB      0x32,0x35,0x40,0x61
000d8c  62636440          DCB      0x62,0x63,0x64,0x40
000d90  65666768          DCB      0x65,0x66,0x67,0x68
000d94  40696a6b          DCB      0x40,0x69,0x6a,0x6b
000d98  6c403235          DCB      0x6c,0x40,0x32,0x35
000d9c  40202020          DCB      0x40,0x20,0x20,0x20
000da0  20202020          DCB      0x20,0x20,0x20,0x20
000da4  20000000          DCB      0x20,0x00,0x00,0x00
                          %        96
000e08  32364061          DCB      0x32,0x36,0x40,0x61
000e0c  62636440          DCB      0x62,0x63,0x64,0x40
000e10  65666768          DCB      0x65,0x66,0x67,0x68
000e14  40696a6b          DCB      0x40,0x69,0x6a,0x6b
000e18  6c403236          DCB      0x6c,0x40,0x32,0x36
000e1c  40202020          DCB      0x40,0x20,0x20,0x20
000e20  20202020          DCB      0x20,0x20,0x20,0x20
000e24  20000000          DCB      0x20,0x00,0x00,0x00
                          %        96
000e88  32374061          DCB      0x32,0x37,0x40,0x61
000e8c  62636440          DCB      0x62,0x63,0x64,0x40
000e90  65666768          DCB      0x65,0x66,0x67,0x68
000e94  40696a6b          DCB      0x40,0x69,0x6a,0x6b
000e98  6c403237          DCB      0x6c,0x40,0x32,0x37
000e9c  40202020          DCB      0x40,0x20,0x20,0x20
000ea0  20202020          DCB      0x20,0x20,0x20,0x20
000ea4  20000000          DCB      0x20,0x00,0x00,0x00
                          %        96
000f08  32384061          DCB      0x32,0x38,0x40,0x61
000f0c  62636440          DCB      0x62,0x63,0x64,0x40
000f10  65666768          DCB      0x65,0x66,0x67,0x68
000f14  40696a6b          DCB      0x40,0x69,0x6a,0x6b
000f18  6c403238          DCB      0x6c,0x40,0x32,0x38
000f1c  40202020          DCB      0x40,0x20,0x20,0x20
000f20  20202020          DCB      0x20,0x20,0x20,0x20
000f24  20000000          DCB      0x20,0x00,0x00,0x00
                          %        96
000f88  32394061          DCB      0x32,0x39,0x40,0x61
000f8c  62636440          DCB      0x62,0x63,0x64,0x40
000f90  65666768          DCB      0x65,0x66,0x67,0x68
000f94  40696a6b          DCB      0x40,0x69,0x6a,0x6b
000f98  6c403239          DCB      0x6c,0x40,0x32,0x39
000f9c  40202020          DCB      0x40,0x20,0x20,0x20
000fa0  20202020          DCB      0x20,0x20,0x20,0x20
000fa4  20000000          DCB      0x20,0x00,0x00,0x00
                          %        96
001008  33304061          DCB      0x33,0x30,0x40,0x61
00100c  62636440          DCB      0x62,0x63,0x64,0x40
001010  65666768          DCB      0x65,0x66,0x67,0x68
001014  40696a6b          DCB      0x40,0x69,0x6a,0x6b
001018  6c403330          DCB      0x6c,0x40,0x33,0x30
00101c  40202020          DCB      0x40,0x20,0x20,0x20
001020  20202020          DCB      0x20,0x20,0x20,0x20
001024  20000000          DCB      0x20,0x00,0x00,0x00
                          %        4448

                          AREA ||area_number.10||, DATA, ALIGN=1

                          EXPORTAS ||area_number.10||, ||.data||
                  snmp_device_code
000000  0000              DCB      0x00,0x00

                          AREA ||area_number.11||, DATA, ALIGN=1

                          EXPORTAS ||area_number.11||, ||.data||
                  snmp_sernum_lsb
000000  0000              DCB      0x00,0x00

                          AREA ||area_number.12||, DATA, ALIGN=1

                          EXPORTAS ||area_number.12||, ||.data||
                  snmp_sernum_msb
000000  0000              DCB      0x00,0x00

                          AREA ||area_number.13||, DATA, ALIGN=1

                          EXPORTAS ||area_number.13||, ||.data||
                  snmp_mains_power_status
000000  0000              DCB      0x00,0x00

                          AREA ||area_number.14||, DATA, ALIGN=1

                          EXPORTAS ||area_number.14||, ||.data||
                  snmp_mains_power_alarm
000000  0000              DCB      0x00,0x00

                          AREA ||area_number.15||, DATA, ALIGN=1

                          EXPORTAS ||area_number.15||, ||.data||
                  snmp_makb_number
                          %        8

                          AREA ||area_number.16||, DATA, ALIGN=1

                          EXPORTAS ||area_number.16||, ||.data||
                  snmp_spc_stat
000000  0000              DCB      0x00,0x00

                          AREA ||area_number.17||, DATA, ALIGN=1

                          EXPORTAS ||area_number.17||, ||.data||
                  snmp_main_bps
000000  0000              DCB      0x00,0x00

                          AREA ||area_number.18||, DATA, ALIGN=1

                          EXPORTAS ||area_number.18||, ||.data||
                  snmp_max_current_koef
000000  0000              DCB      0x00,0x00

                          AREA ||area_number.19||, DATA, ALIGN=1

                          EXPORTAS ||area_number.19||, ||.data||
                  snmp_up_charge_koef
000000  0000              DCB      0x00,0x00

                          AREA ||area_number.20||, DATA, ALIGN=0

                          EXPORTAS ||area_number.20||, ||.data||
                  snmp_warm_stat
000000  00                DCB      0x00
