; generated by ARM C/C++ Compiler, 4.1 [Build 644]
; commandline ArmCC [--list --debug -c --asm --interleave -o.\EXE\http_cgi.o --asm_dir=.\ --list_dir=.\ --depend=.\EXE\http_cgi.d --feedback=.\EXE\UKU_220_IPS_TERMOKOMPENSAT.fed --cpu=Cortex-M3 --apcs=interwork -O1 -IC:\Keil\ARM\CMSIS\Include -IC:\Keil\ARM\INC\NXP\LPC17xx -D__MICROLIB -DUKU_220_IPS_TERMOKOMPENSAT -DUKU2071x -DUKU_ZVU --omf_browse=.\EXE\http_cgi.crf HTTP_CGI.c]
                          THUMB

                          AREA ||.text||, CODE, READONLY, ALIGN=2

                          REQUIRE _scanf_int
                          REQUIRE _printf_pre_padding
                          REQUIRE _printf_sizespec
                          REQUIRE _printf_percent
                          REQUIRE _printf_return_value
                          REQUIRE _printf_flags
                          REQUIRE _printf_widthprec
                          REQUIRE _printf_p
                          REQUIRE _printf_s
                          REQUIRE _printf_n
                          REQUIRE _printf_charcount
                          REQUIRE _printf_longlong_hex
                          REQUIRE _printf_str
                          REQUIRE _printf_truncate_unsigned
                          REQUIRE _printf_truncate_signed
                          REQUIRE _printf_d
                          REQUIRE _printf_i
                          REQUIRE _printf_u
                          REQUIRE _printf_o
                          REQUIRE _printf_x
                          REQUIRE _printf_c
                          REQUIRE _printf_lc
                          REQUIRE _printf_int_dec
                          REQUIRE _printf_longlong_oct
                          REQUIRE _printf_str
                          REQUIRE _printf_wctomb
                          REQUIRE _printf_str
                          REQUIRE _printf_str
                          REQUIRE _printf_str
                          REQUIRE _printf_str
                          REQUIRE _printf_str
                          REQUIRE _printf_str
                          REQUIRE _printf_wctomb
                          REQUIRE _printf_str
                          REQUIRE _printf_wctomb
                          REQUIRE _printf_str
                          REQUIRE _printf_wctomb
                          REQUIRE _printf_str
                          REQUIRE _printf_wctomb
                          REQUIRE _printf_str
                          REQUIRE _printf_wctomb
                          REQUIRE _printf_str
                          REQUIRE _printf_wctomb
                          REQUIRE _printf_str
                          REQUIRE _printf_wctomb
                          REQUIRE _printf_str
                          REQUIRE _printf_wctomb
                          REQUIRE _printf_str
                          REQUIRE _printf_wctomb
                          REQUIRE _printf_str
                          REQUIRE _printf_wctomb
                          REQUIRE _printf_str
                          REQUIRE _printf_wctomb
                          REQUIRE _printf_str
                          REQUIRE _printf_wctomb
                          REQUIRE _printf_str
                          REQUIRE _printf_wctomb
                          REQUIRE _printf_str
                          REQUIRE _printf_wctomb
                          REQUIRE _printf_str
                          REQUIRE _printf_wctomb
                          REQUIRE _printf_str
                          REQUIRE _printf_wctomb
                          REQUIRE _printf_str
                          REQUIRE _printf_wctomb
                          REQUIRE _printf_str
                          REQUIRE _printf_wctomb
                          REQUIRE _printf_str
                          REQUIRE _printf_wctomb
                          REQUIRE _printf_str
                          REQUIRE _printf_wctomb
                          REQUIRE _printf_str
                          REQUIRE _printf_wctomb
                          REQUIRE _printf_str
                          REQUIRE _printf_str
                          REQUIRE _printf_wctomb
                          REQUIRE _printf_f
                          REQUIRE _printf_e
                          REQUIRE _printf_g
                          REQUIRE _printf_a
                          REQUIRE _printf_fp_hex
                          REQUIRE _printf_fp_dec
                          REQUIRE _printf_str
                          REQUIRE _printf_wctomb
                          REQUIRE _printf_str
                          REQUIRE _printf_str
                          REQUIRE _printf_str
                          REQUIRE _printf_str
                          REQUIRE _printf_str
                          REQUIRE _printf_wctomb
                          REQUIRE _printf_str
                          REQUIRE _printf_wctomb
                          REQUIRE _printf_str
                          REQUIRE _printf_str
                          REQUIRE _printf_str
                          REQUIRE _printf_wctomb
                          REQUIRE _printf_str
                          REQUIRE _printf_wctomb
                          REQUIRE _printf_str
                          REQUIRE _printf_wctomb
                          REQUIRE _printf_str
                          REQUIRE _printf_wctomb
                          REQUIRE _printf_str
                          REQUIRE _printf_wctomb
                          REQUIRE _printf_str
                          REQUIRE _printf_wctomb
                          REQUIRE _printf_str
                          REQUIRE _printf_str
                          REQUIRE _printf_str
                          REQUIRE _printf_str
                          REQUIRE _printf_wctomb
                          REQUIRE _printf_str
                          REQUIRE _printf_wctomb
                          REQUIRE _printf_str
                          REQUIRE _printf_str
                          REQUIRE _printf_str
                          REQUIRE _printf_wctomb
                          REQUIRE _printf_str
                          REQUIRE _printf_wctomb
                          REQUIRE _printf_str
                          REQUIRE _printf_wctomb
                          REQUIRE _printf_str
                          REQUIRE _printf_str
                          REQUIRE _printf_str
                          REQUIRE _printf_str
                          REQUIRE _printf_str
                          REQUIRE _printf_str
                          REQUIRE _printf_str
                          REQUIRE _printf_str
                          REQUIRE _printf_str
                          REQUIRE _printf_str
                          REQUIRE _printf_str
                          REQUIRE _printf_str
                          REQUIRE _printf_str
                          REQUIRE _printf_str
                          REQUIRE _printf_str
                          REQUIRE _printf_str
                          REQUIRE _printf_str
                          REQUIRE _printf_str
                          REQUIRE _printf_str
                          REQUIRE _printf_str
                          REQUIRE _printf_str
                          REQUIRE _printf_wctomb
                          REQUIRE _printf_str
                          REQUIRE _printf_str
                          REQUIRE _printf_str
                          REQUIRE _printf_str
                          REQUIRE _printf_str
                          REQUIRE _printf_str
                          REQUIRE _printf_str
                          REQUIRE _printf_str
                          REQUIRE _printf_str
                          REQUIRE _printf_str
                          REQUIRE _printf_str
                          REQUIRE _printf_str
                          REQUIRE _printf_str
                          REQUIRE _printf_str
                          REQUIRE _printf_str
                          REQUIRE _printf_str
                          REQUIRE _printf_str
                          REQUIRE _printf_str
                          REQUIRE _printf_str
                          REQUIRE _printf_str
                          REQUIRE _printf_str
                          REQUIRE _printf_str
                          REQUIRE _printf_str
                          REQUIRE _printf_str
                          REQUIRE _printf_str
                          REQUIRE _printf_str
                          REQUIRE _printf_str
                          REQUIRE _printf_str
                          REQUIRE _printf_str
                          REQUIRE _printf_str
                          REQUIRE _printf_str
                          REQUIRE _printf_str
                          REQUIRE _printf_str
                          REQUIRE _printf_str
                          REQUIRE _printf_str
                          REQUIRE _printf_str
                          REQUIRE _printf_str
                          REQUIRE _printf_str
                          REQUIRE _printf_str
                          REQUIRE _printf_str
                          REQUIRE _printf_str
                          REQUIRE _printf_str
                          REQUIRE _printf_str
                          REQUIRE _printf_str
                          REQUIRE _printf_str
                          REQUIRE _printf_str
                          REQUIRE _printf_str
                          REQUIRE _printf_str
                          REQUIRE _printf_str
                          REQUIRE _printf_str
                          REQUIRE _printf_str
                          REQUIRE _printf_str
                          REQUIRE _printf_str
                          REQUIRE _printf_str
                          REQUIRE _printf_str
                          REQUIRE _printf_str
                          REQUIRE _printf_str
                          REQUIRE _printf_str
                          REQUIRE _printf_str
                          REQUIRE _printf_str
                          REQUIRE _printf_str
                          REQUIRE _printf_str
                          REQUIRE _printf_str
                          REQUIRE _printf_str
                          REQUIRE _printf_str
                          REQUIRE _printf_wctomb
                          REQUIRE _printf_str
                          REQUIRE _printf_wctomb
                          REQUIRE _printf_str
                          REQUIRE _printf_wctomb
                          REQUIRE _printf_str
                          REQUIRE _printf_wctomb
                          REQUIRE _printf_str
                          REQUIRE _printf_wctomb
                          REQUIRE _printf_str
                          REQUIRE _printf_wctomb
                          REQUIRE _printf_str
                          REQUIRE _printf_wctomb
                          REQUIRE _printf_str
                          REQUIRE _printf_wctomb
                          REQUIRE _printf_str
                          REQUIRE _printf_wctomb
                          REQUIRE _printf_str
                          REQUIRE _printf_wctomb
                          REQUIRE _printf_str
                          REQUIRE _printf_wctomb
                          REQUIRE _printf_str
                          REQUIRE _printf_wctomb
                          REQUIRE _printf_str
                          REQUIRE _printf_wctomb
                          REQUIRE _printf_str
                          REQUIRE _printf_wctomb
                          REQUIRE _printf_str
                          REQUIRE _printf_wctomb
                          REQUIRE _printf_str
                          REQUIRE _printf_wctomb
                          REQUIRE _printf_str
                          REQUIRE _printf_wctomb
                          REQUIRE _printf_str
                          REQUIRE _printf_wctomb
                          REQUIRE _printf_str
                          REQUIRE _printf_wctomb
                          REQUIRE _printf_str
                          REQUIRE _printf_wctomb
                          REQUIRE _printf_str
                          REQUIRE _printf_wctomb
                          REQUIRE _printf_str
                          REQUIRE _printf_wctomb
                          REQUIRE _printf_str
                          REQUIRE _printf_wctomb
                          REQUIRE _printf_str
                          REQUIRE _printf_wctomb
                          REQUIRE _printf_str
                          REQUIRE _printf_wctomb
                          REQUIRE _printf_str
                          REQUIRE _printf_wctomb
                          REQUIRE _printf_str
                          REQUIRE _printf_wctomb
                          REQUIRE _printf_str
                          REQUIRE _printf_wctomb
                          REQUIRE _printf_str
                          REQUIRE _printf_wctomb
                          REQUIRE _printf_str
                          REQUIRE _printf_wctomb
                          REQUIRE _printf_str
                          REQUIRE _printf_wctomb
                          REQUIRE _printf_str
                          REQUIRE _printf_wctomb
                          REQUIRE _printf_str
                          REQUIRE _printf_wctomb
                          REQUIRE _printf_str
                          REQUIRE _printf_wctomb
                          REQUIRE _printf_str
                          REQUIRE _printf_wctomb
                          REQUIRE _printf_str
                          REQUIRE _printf_wctomb
                          REQUIRE _printf_str
                          REQUIRE _printf_wctomb
                          REQUIRE _printf_str
                          REQUIRE _printf_wctomb
                          REQUIRE _printf_str
                          REQUIRE _printf_wctomb
                          REQUIRE _printf_str
                          REQUIRE _printf_wctomb
                          REQUIRE _printf_str
                          REQUIRE _printf_wctomb
                          REQUIRE _printf_str
                          REQUIRE _printf_wctomb
                          REQUIRE _printf_str
                          REQUIRE _printf_wctomb
                          REQUIRE _printf_str
                          REQUIRE _printf_wctomb
                          REQUIRE _printf_str
                          REQUIRE _printf_wctomb
                          REQUIRE _printf_str
                          REQUIRE _printf_wctomb
                          REQUIRE _printf_str
                          REQUIRE _printf_wctomb
                          REQUIRE _printf_str
                          REQUIRE _printf_wctomb
                          REQUIRE _printf_str
                          REQUIRE _printf_wctomb
                          REQUIRE _printf_str
                          REQUIRE _printf_wctomb
                          REQUIRE _printf_str
                          REQUIRE _printf_wctomb
                          REQUIRE _printf_str
                          REQUIRE _printf_wctomb
                          REQUIRE _printf_str
                          REQUIRE _printf_wctomb
                          REQUIRE _printf_str
                          REQUIRE _printf_wctomb
                          REQUIRE _printf_str
                          REQUIRE _printf_wctomb
                          REQUIRE _printf_str
                          REQUIRE _printf_wctomb
                          REQUIRE _printf_str
                          REQUIRE _printf_wctomb
                          REQUIRE _printf_str
                          REQUIRE _printf_wctomb
                          REQUIRE _printf_str
                          REQUIRE _printf_wctomb
                          REQUIRE _printf_str
                          REQUIRE _printf_wctomb
                          REQUIRE _printf_str
                          REQUIRE _printf_str
                          REQUIRE _printf_wctomb
                          REQUIRE _printf_str
                          REQUIRE _printf_wctomb
                          REQUIRE _printf_str
                          REQUIRE _printf_wctomb
                          REQUIRE _printf_str
                          REQUIRE _printf_wctomb
                          REQUIRE _printf_str
                          REQUIRE _printf_wctomb
                          REQUIRE _printf_str
                          REQUIRE _printf_wctomb
                          REQUIRE _printf_str
                          REQUIRE _printf_wctomb
                          REQUIRE _printf_str
                          REQUIRE _printf_wctomb
                          REQUIRE _printf_str
                          REQUIRE _printf_wctomb
                          REQUIRE _printf_str
                          REQUIRE _printf_str
                          REQUIRE _printf_str
                          REQUIRE _printf_str
                          REQUIRE _printf_str
                          REQUIRE _printf_str
                  cgi_process_var PROC
;;;106    
;;;107    void cgi_process_var (U8 *qs) {
000000  e92d43f0          PUSH     {r4-r9,lr}
000004  b087              SUB      sp,sp,#0x1c
000006  4681              MOV      r9,r0
;;;108      /* This function is called by HTTP server to process the Querry_String   */
;;;109      /* for the CGI Form GET method. It is called on SUBMIT from the browser. */
;;;110      /*.The Querry_String.is SPACE terminated.                                */
;;;111      U8 *var;
;;;112      int s[4];
;;;113    
;;;114    	web_plazma[1]++;
000008  49fb              LDR      r1,|L1.1016|
00000a  7848              LDRB     r0,[r1,#1]  ; web_plazma
00000c  f1000001          ADD      r0,r0,#1
000010  7048              STRB     r0,[r1,#1]
;;;115    
;;;116      var = (U8 *)alloc_mem (40);
000012  f04f0028          MOV      r0,#0x28
000016  f7fffffe          BL       alloc_mem
00001a  4604              MOV      r4,r0
;;;117      do {
;;;118        /* Loop through all the parameters. */
;;;119        qs = http_get_var (qs, var, 40);
;;;120        /* Check the returned string, 'qs' now points to the next. */
;;;121        if (var[0] != 0) {
;;;122          /* Returned string is non 0-length. */
;;;123          if (str_scomp (var, "ip=") == __TRUE) {
;;;124            /* My IP address parameter. */
;;;125            sscanf ((const char *)&var[3], "%d.%d.%d.%d",&s[0],&s[1],&s[2],&s[3]);
;;;126            LocM.IpAdr[0]   = s[0];
00001c  f8df83dc          LDR      r8,|L1.1020|
000020  af03              ADD      r7,sp,#0xc            ;112
000022  ad06              ADD      r5,sp,#0x18           ;125
000024  ae05              ADD      r6,sp,#0x14           ;125
                  |L1.38|
000026  2228              MOVS     r2,#0x28              ;119
000028  4621              MOV      r1,r4                 ;119
00002a  4648              MOV      r0,r9                 ;119
00002c  f7fffffe          BL       http_get_var
000030  4681              MOV      r9,r0                 ;119
000032  7820              LDRB     r0,[r4,#0]            ;121
000034  2800              CMP      r0,#0                 ;121
000036  d01d              BEQ      |L1.116|
000038  a1f1              ADR      r1,|L1.1024|
00003a  4620              MOV      r0,r4                 ;123
00003c  f7fffffe          BL       str_scomp
000040  2801              CMP      r0,#1                 ;123
000042  d018              BEQ      |L1.118|
;;;127            LocM.IpAdr[1]   = s[1];
;;;128            LocM.IpAdr[2]   = s[2];
;;;129            LocM.IpAdr[3]   = s[3];
;;;130          }
;;;131          else if (str_scomp (var, "msk=") == __TRUE) {
000044  a1ef              ADR      r1,|L1.1028|
000046  4620              MOV      r0,r4
000048  f7fffffe          BL       str_scomp
00004c  2801              CMP      r0,#1
00004e  d027              BEQ      |L1.160|
;;;132            /* Net mask parameter. */
;;;133            sscanf ((const char *)&var[4], "%d.%d.%d.%d",&s[0],&s[1],&s[2],&s[3]);
;;;134            LocM.NetMask[0] = s[0];
;;;135            LocM.NetMask[1] = s[1];
;;;136            LocM.NetMask[2] = s[2];
;;;137            LocM.NetMask[3] = s[3];
;;;138          }
;;;139          else if (str_scomp (var, "gw=") == __TRUE) {
000050  a1ee              ADR      r1,|L1.1036|
000052  4620              MOV      r0,r4
000054  f7fffffe          BL       str_scomp
000058  2801              CMP      r0,#1
00005a  d036              BEQ      |L1.202|
;;;140            /* Default gateway parameter. */
;;;141            sscanf ((const char *)&var[3], "%d.%d.%d.%d",&s[0],&s[1],&s[2],&s[3]);
;;;142            LocM.DefGW[0]   = s[0];
;;;143            LocM.DefGW[1]   = s[1];
;;;144            LocM.DefGW[2]   = s[2];
;;;145            LocM.DefGW[3]   = s[3];
;;;146          }
;;;147          else if (str_scomp (var, "pdns=") == __TRUE) {
00005c  a1ec              ADR      r1,|L1.1040|
00005e  4620              MOV      r0,r4
000060  f7fffffe          BL       str_scomp
000064  2801              CMP      r0,#1
000066  d045              BEQ      |L1.244|
;;;148            /* Default gateway parameter. */
;;;149            sscanf ((const char *)&var[5], "%d.%d.%d.%d",&s[0],&s[1],&s[2],&s[3]);
;;;150            LocM.PriDNS[0]  = s[0];
;;;151            LocM.PriDNS[1]  = s[1];
;;;152            LocM.PriDNS[2]  = s[2];
;;;153            LocM.PriDNS[3]  = s[3];
;;;154          }
;;;155          else if (str_scomp (var, "sdns=") == __TRUE) {
000068  a1eb              ADR      r1,|L1.1048|
00006a  4620              MOV      r0,r4
00006c  f7fffffe          BL       str_scomp
000070  2801              CMP      r0,#1
000072  d054              BEQ      |L1.286|
                  |L1.116|
000074  e067              B        |L1.326|
                  |L1.118|
000076  e9cd6500          STRD     r6,r5,[sp,#0]         ;125
00007a  1d3b              ADDS     r3,r7,#4              ;125
00007c  aa03              ADD      r2,sp,#0xc            ;125
00007e  a1e8              ADR      r1,|L1.1056|
000080  1ce0              ADDS     r0,r4,#3              ;125
000082  f7fffffe          BL       __0sscanf
000086  9803              LDR      r0,[sp,#0xc]          ;126
000088  f8880000          STRB     r0,[r8,#0]            ;126
00008c  9804              LDR      r0,[sp,#0x10]         ;127
00008e  f8880001          STRB     r0,[r8,#1]            ;127
000092  9805              LDR      r0,[sp,#0x14]         ;128
000094  f8880002          STRB     r0,[r8,#2]            ;128
000098  9806              LDR      r0,[sp,#0x18]         ;129
00009a  f8880003          STRB     r0,[r8,#3]            ;129
00009e  e052              B        |L1.326|
                  |L1.160|
0000a0  e9cd6500          STRD     r6,r5,[sp,#0]         ;133
0000a4  1d3b              ADDS     r3,r7,#4              ;133
0000a6  aa03              ADD      r2,sp,#0xc            ;133
0000a8  a1dd              ADR      r1,|L1.1056|
0000aa  1d20              ADDS     r0,r4,#4              ;133
0000ac  f7fffffe          BL       __0sscanf
0000b0  9803              LDR      r0,[sp,#0xc]          ;134
0000b2  f8880008          STRB     r0,[r8,#8]            ;134
0000b6  9804              LDR      r0,[sp,#0x10]         ;135
0000b8  f8880009          STRB     r0,[r8,#9]            ;135
0000bc  9805              LDR      r0,[sp,#0x14]         ;136
0000be  f888000a          STRB     r0,[r8,#0xa]          ;136
0000c2  9806              LDR      r0,[sp,#0x18]         ;137
0000c4  f888000b          STRB     r0,[r8,#0xb]          ;137
0000c8  e03d              B        |L1.326|
                  |L1.202|
0000ca  e9cd6500          STRD     r6,r5,[sp,#0]         ;141
0000ce  1d3b              ADDS     r3,r7,#4              ;141
0000d0  aa03              ADD      r2,sp,#0xc            ;141
0000d2  a1d3              ADR      r1,|L1.1056|
0000d4  1ce0              ADDS     r0,r4,#3              ;141
0000d6  f7fffffe          BL       __0sscanf
0000da  9803              LDR      r0,[sp,#0xc]          ;142
0000dc  f8880004          STRB     r0,[r8,#4]            ;142
0000e0  9804              LDR      r0,[sp,#0x10]         ;143
0000e2  f8880005          STRB     r0,[r8,#5]            ;143
0000e6  9805              LDR      r0,[sp,#0x14]         ;144
0000e8  f8880006          STRB     r0,[r8,#6]            ;144
0000ec  9806              LDR      r0,[sp,#0x18]         ;145
0000ee  f8880007          STRB     r0,[r8,#7]            ;145
0000f2  e028              B        |L1.326|
                  |L1.244|
0000f4  e9cd6500          STRD     r6,r5,[sp,#0]         ;149
0000f8  1d3b              ADDS     r3,r7,#4              ;149
0000fa  aa03              ADD      r2,sp,#0xc            ;149
0000fc  a1c8              ADR      r1,|L1.1056|
0000fe  1d60              ADDS     r0,r4,#5              ;149
000100  f7fffffe          BL       __0sscanf
000104  9803              LDR      r0,[sp,#0xc]          ;150
000106  f888000c          STRB     r0,[r8,#0xc]          ;150
00010a  9804              LDR      r0,[sp,#0x10]         ;151
00010c  f888000d          STRB     r0,[r8,#0xd]          ;151
000110  9805              LDR      r0,[sp,#0x14]         ;152
000112  f888000e          STRB     r0,[r8,#0xe]          ;152
000116  9806              LDR      r0,[sp,#0x18]         ;153
000118  f888000f          STRB     r0,[r8,#0xf]          ;153
00011c  e013              B        |L1.326|
                  |L1.286|
;;;156            /* Default gateway parameter. */
;;;157            sscanf ((const char *)&var[5], "%d.%d.%d.%d",&s[0],&s[1],&s[2],&s[3]);
00011e  e9cd6500          STRD     r6,r5,[sp,#0]
000122  1d3b              ADDS     r3,r7,#4
000124  aa03              ADD      r2,sp,#0xc
000126  a1be              ADR      r1,|L1.1056|
000128  1d60              ADDS     r0,r4,#5
00012a  f7fffffe          BL       __0sscanf
;;;158            LocM.SecDNS[0]  = s[0];
00012e  9803              LDR      r0,[sp,#0xc]
000130  f8880010          STRB     r0,[r8,#0x10]
;;;159            LocM.SecDNS[1]  = s[1];
000134  9804              LDR      r0,[sp,#0x10]
000136  f8880011          STRB     r0,[r8,#0x11]
;;;160            LocM.SecDNS[2]  = s[2];
00013a  9805              LDR      r0,[sp,#0x14]
00013c  f8880012          STRB     r0,[r8,#0x12]
;;;161            LocM.SecDNS[3]  = s[3];
000140  9806              LDR      r0,[sp,#0x18]
000142  f8880013          STRB     r0,[r8,#0x13]
                  |L1.326|
;;;162          }
;;;163        }
;;;164      }while (qs);
000146  f1b90f00          CMP      r9,#0
00014a  f47faf6c          BNE      |L1.38|
;;;165      free_mem ((OS_FRAME *)var);
00014e  4620              MOV      r0,r4
000150  f7fffffe          BL       free_mem
;;;166    }
000154  b007              ADD      sp,sp,#0x1c
000156  e8bd83f0          POP      {r4-r9,pc}
;;;167    
                          ENDP

                  cgi_process_data PROC
;;;172    
;;;173    void cgi_process_data (U8 code, U8 *dat, U16 len) {
00015a  e92d4ff0          PUSH     {r4-r11,lr}
00015e  b089              SUB      sp,sp,#0x24
000160  4603              MOV      r3,r0
000162  468b              MOV      r11,r1
000164  4616              MOV      r6,r2
;;;174      /* This function is called by HTTP server to process the returned Data    */
;;;175      /* for the CGI Form POST method. It is called on SUBMIT from the browser. */
;;;176      /* Parameters:                                                            */
;;;177      /*   code  - callback context code                                        */
;;;178      /*           0 = www-url-encoded form data                                */
;;;179      /*           1 = filename for file upload (0-terminated string)           */
;;;180      /*           2 = file upload raw data                                     */
;;;181      /*           3 = end of file upload (file close requested)                */
;;;182      /*           4 = any xml encoded POST data (single or last stream)        */
;;;183      /*           5 = the same as 4, but with more xml data to follow          */
;;;184      /*               Use http_get_content_type() to check the content type    */  
;;;185      /*   dat   - pointer to POST received data                                */
;;;186      /*   len   - received data length                                         */
;;;187      U8 passw[12],retyped[12];
;;;188      U8 *var,stpassw; 
;;;189    U8 *varr[3];
;;;190    U8 i;
;;;191    
;;;192    web_plazma[2]++;
000166  4fa4              LDR      r7,|L1.1016|
000168  78b8              LDRB     r0,[r7,#2]  ; web_plazma
00016a  f1000001          ADD      r0,r0,#1
00016e  70b8              STRB     r0,[r7,#2]
;;;193    web_plazma[3]+=len;
000170  78f8              LDRB     r0,[r7,#3]  ; web_plazma
000172  4430              ADD      r0,r0,r6
000174  70f8              STRB     r0,[r7,#3]
;;;194    
;;;195    
;;;196    
;;;197      switch (code) {
000176  2b00              CMP      r3,#0
000178  d17a              BNE      |L1.624|
;;;198        case 0:
;;;199          /* Url encoded form data received. */
;;;200          break;
;;;201    
;;;202        default:
;;;203          /* Ignore all other codes. */
;;;204          return;
;;;205      }
;;;206    
;;;207      P2 = 0;
00017a  f8dfa2b0          LDR      r10,|L1.1068|
00017e  4698              MOV      r8,r3
000180  f88a8001          STRB     r8,[r10,#1]
;;;208      /////LEDrun = __TRUE;
;;;209      if (len == 0) {
000184  2e00              CMP      r6,#0
000186  d073              BEQ      |L1.624|
;;;210        /* No data or all items (radio, checkbox) are off. */
;;;211        /////LED_out (P2);
;;;212        return;
;;;213      }
;;;214      
;;;215      
;;;216    stpassw = 0;
000188  461d              MOV      r5,r3
;;;217    var = (U8 *)alloc_mem (40);
00018a  f04f0028          MOV      r0,#0x28
00018e  f7fffffe          BL       alloc_mem
000192  4681              MOV      r9,r0
;;;218    varr[0] = (U8 *)alloc_mem (40);
000194  f04f0028          MOV      r0,#0x28
000198  f7fffffe          BL       alloc_mem
00019c  9000              STR      r0,[sp,#0]
;;;219    varr[1] = (U8 *)alloc_mem (150);
00019e  2096              MOVS     r0,#0x96
0001a0  f7fffffe          BL       alloc_mem
0001a4  9001              STR      r0,[sp,#4]
;;;220    varr[2] = (U8 *)alloc_mem (40);
0001a6  2028              MOVS     r0,#0x28
0001a8  f7fffffe          BL       alloc_mem
0001ac  9002              STR      r0,[sp,#8]
;;;221    
;;;222    i=0;
0001ae  462c              MOV      r4,r5
                  |L1.432|
;;;223    
;;;224    do 
;;;225    	{
;;;226        /* Parse all returned parameters. */
;;;227    	if(i==1)dat = http_get_var (dat, varr[i++], 150);
0001b0  2c01              CMP      r4,#1
0001b2  d060              BEQ      |L1.630|
;;;228        else dat = http_get_var (dat, varr[i++], 40);
0001b4  4620              MOV      r0,r4
0001b6  1c64              ADDS     r4,r4,#1
0001b8  f85d1020          LDR      r1,[sp,r0,LSL #2]
0001bc  b2e4              UXTB     r4,r4
0001be  2228              MOVS     r2,#0x28
0001c0  4658              MOV      r0,r11
0001c2  f7fffffe          BL       http_get_var
0001c6  4683              MOV      r11,r0
                  |L1.456|
;;;229    	web_plazma[0]++;
0001c8  7838              LDRB     r0,[r7,#0]  ; web_plazma
0001ca  f1000001          ADD      r0,r0,#1
0001ce  7038              STRB     r0,[r7,#0]
;;;230    	}
;;;231    while (dat);
0001d0  f1bb0f00          CMP      r11,#0
0001d4  d1ec              BNE      |L1.432|
;;;232    
;;;233    //return;
;;;234        if (varr[0,0] != 0) 
0001d6  9800              LDR      r0,[sp,#0]
0001d8  2800              CMP      r0,#0
0001da  d02d              BEQ      |L1.568|
;;;235    		{
;;;236    		/* Parameter found, returned string is non 0-length. */
;;;237    		if (str_scomp (varr[0], "parol") == __TRUE)
0001dc  a194              ADR      r1,|L1.1072|
0001de  9800              LDR      r0,[sp,#0]
0001e0  f7fffffe          BL       str_scomp
0001e4  2801              CMP      r0,#1
0001e6  d04e              BEQ      |L1.646|
;;;238    			{
;;;239    			char str_buff[4];
;;;240            	web_plazma[1]++;
;;;241    			
;;;242    			if ((str_scomp (varr[0]+6, snmp_web_passw/*"123"*/) == __TRUE)&&(len == 9)) 
;;;243    				{
;;;244    				uku_set_autorized=1;
;;;245    				psw_err=0;
;;;246    				}
;;;247    			else
;;;248    				{
;;;249    				psw_err=1;
;;;250    				uku_set_autorized=0;
;;;251    				}
;;;252    			}
;;;253    		else if (str_scomp (varr[0], "param=") == __TRUE) 
0001e8  a193              ADR      r1,|L1.1080|
0001ea  9800              LDR      r0,[sp,#0]
0001ec  f7fffffe          BL       str_scomp
0001f0  2801              CMP      r0,#1
0001f2  d061              BEQ      |L1.696|
;;;254    			{
;;;255    			if(strstr (varr[1], "value="))
;;;256    				{
;;;257    				
;;;258    				web_plazma[4]=22;
;;;259    				if(strstr (varr[0], "serno"))
;;;260    					{
;;;261    					sscanf ((const char *)varr[1]+6, "%d",&web_param_input);
;;;262    					lc640_write_int(EE_AUSW_MAIN_NUMBER,(short)(web_param_input&0x0000ffffUL));
;;;263    					lc640_write_int(EE_AUSW_MAIN_NUMBER+2,(short)((web_param_input&0xffff0000UL)>>16UL));
;;;264    					}
;;;265    				else if(strstr (varr[0], "place"))
;;;266    					{
;;;267    					char i = 0;
;;;268    					str_copy(place_holder,"                                                                      ");
;;;269    					str_copy(place_holder,pal_cyr_decoder(varr[1]+6));
;;;270    					//str_copy(place_holder,varr[1]+6);
;;;271    					/*while(place_holder[i]) 
;;;272    						{
;;;273    						lc640_write(EE_HTTP_LOCATION+i,place_holder[i]);
;;;274    						i++;
;;;275    						}*/
;;;276    					for (i=0;i<70;i++)lc640_write(EE_HTTP_LOCATION+i,place_holder[i]);
;;;277    					}
;;;278    
;;;279    				else if(strstr (varr[0], "par_"))
;;;280    					{
;;;281    					sscanf ((const char *)varr[1]+6, "%d",&web_param_input);
;;;282    					lc640_write_int(EE_PAR,(short)(web_param_input&0x00000001UL));
;;;283    
;;;284    					}
;;;285    				else if(strstr (varr[0], "zv_on_"))
;;;286    					{
;;;287    					sscanf ((const char *)varr[1]+6, "%d",&web_param_input);
;;;288    					lc640_write_int(EE_ZV_ON,(short)(web_param_input&0x00000001UL));
;;;289    
;;;290    					}
;;;291    				else if(strstr (varr[0], "av_avt_"))
;;;292    					{
;;;293    					sscanf ((const char *)varr[1]+6, "%d",&web_param_input);
;;;294    					lc640_write_int(EE_AV_OFF_AVT,(short)(web_param_input&0x00000001UL));
;;;295    
;;;296    					}				
;;;297    
;;;298    				else if(strstr (varr[0], "un_max_"))
;;;299    					{
;;;300    					sscanf ((const char *)varr[1]+6, "%d",&web_param_input);
;;;301    					lc640_write_int(EE_UMAXN,(short)(web_param_input&0x0000ffffUL));
;;;302    
;;;303    					}		
;;;304    					
;;;305    				else if(strstr (varr[0], "un_min_"))
;;;306    					{
;;;307    					sscanf ((const char *)varr[1]+6, "%d",&web_param_input);
;;;308    					lc640_write_int(EE_UMN,(short)(web_param_input&0x0000ffffUL));
;;;309    
;;;310    					}	
;;;311    				else if(strstr (varr[0], "rot_t_"))
;;;312    					{
;;;313    					sscanf ((const char *)varr[1]+6, "%d",&web_param_input);
;;;314    					lc640_write_int(EE_FORVARDBPSCHHOUR,(short)(web_param_input&0x0000ffffUL));
;;;315    
;;;316    					}	
;;;317    				else if(strstr (varr[0], "i_max_"))
;;;318    					{
;;;319    					sscanf ((const char *)varr[1]+6, "%d",&web_param_input);
;;;320    					lc640_write_int(EE_IMAX,(short)(web_param_input&0x0000ffffUL));
;;;321    
;;;322    					}
;;;323    				else if(strstr (varr[0], "i_min_"))
;;;324    					{
;;;325    					sscanf ((const char *)varr[1]+6, "%d",&web_param_input);
;;;326    					lc640_write_int(EE_IMIN,(short)(web_param_input&0x0000ffffUL));
;;;327    
;;;328    					}
;;;329    				else if(strstr (varr[0], "u_max_i_"))
;;;330    					{
;;;331    					sscanf ((const char *)varr[1]+6, "%d",&web_param_input);
;;;332    					lc640_write_int(EE_UMAX,(short)(web_param_input&0x0000ffffUL));
;;;333    
;;;334    					}
;;;335    				else if(strstr (varr[0], "u_min_i_"))
;;;336    					{
;;;337    					sscanf ((const char *)varr[1]+6, "%d",&web_param_input);
;;;338    					DU=UB20-((short)(web_param_input&0x0000ffffUL));
;;;339    					gran(&DU,50,UB20-100);
;;;340    					lc640_write_int(EE_DU,DU);
;;;341    					//lc640_write_int(EE_IMIN,(short)(web_param_input&0x0000ffffUL));
;;;342    					}
;;;343    				else if(strstr (varr[0], "ub20_"))
;;;344    					{
;;;345    					sscanf ((const char *)varr[1]+6, "%d",&web_param_input);
;;;346    					lc640_write_int(EE_UB20,(short)(web_param_input&0x0000ffffUL));
;;;347     					}
;;;348    						
;;;349    				else if(strstr (varr[0], "ub0_"))
;;;350    					{
;;;351    					sscanf ((const char *)varr[1]+6, "%d",&web_param_input);
;;;352    					lc640_write_int(EE_UB0,(short)(web_param_input&0x0000ffffUL));
;;;353    					}
;;;354    
;;;355    				else if(strstr (varr[0], "usign_"))
;;;356    					{
;;;357    					sscanf ((const char *)varr[1]+6, "%d",&web_param_input);
;;;358    					lc640_write_int(EE_USIGN,(short)(web_param_input&0x0000ffffUL));
;;;359    					}
;;;360    																																																
;;;361    				else if(strstr (varr[0], "izmax_"))
;;;362    					{
;;;363    					sscanf ((const char *)varr[1]+6, "%d",&web_param_input);
;;;364    					lc640_write_int(EE_IZMAX,(short)(web_param_input&0x0000ffffUL));
;;;365    					}
;;;366    
;;;367    				else if(strstr (varr[0], "tbatsign_"))
;;;368    					{
;;;369    					sscanf ((const char *)varr[1]+6, "%d",&web_param_input);
;;;370    					lc640_write_int(EE_TBATSIGN,(short)(web_param_input&0x0000ffffUL));
;;;371    					}
;;;372    					
;;;373    				else if(strstr (varr[0], "tbatmax_"))
;;;374    					{
;;;375    					sscanf ((const char *)varr[1]+6, "%d",&web_param_input);
;;;376    					lc640_write_int(EE_TBATMAX,(short)(web_param_input&0x0000ffffUL));
;;;377    					}
;;;378    					
;;;379    				else if(strstr (varr[0], "uvz_"))
;;;380    					{
;;;381    					sscanf ((const char *)varr[1]+6, "%d",&web_param_input);
;;;382    					lc640_write_int(EE_UVZ,(short)(web_param_input&0x0000ffffUL));
;;;383    					}
;;;384    					
;;;385    				else if(strstr (varr[0], "tvz_"))
;;;386    					{
;;;387    					sscanf ((const char *)varr[1]+6, "%d",&web_param_input);
;;;388    					lc640_write_int(EE_VZ_HR,(short)(web_param_input&0x0000ffffUL));
;;;389    					}	
;;;390    				else if(strstr (varr[0], "tsign_"))
;;;391    					{
;;;392    					sscanf ((const char *)varr[1]+6, "%d",&web_param_input);
;;;393    					lc640_write_int(EE_TSIGN,(short)(web_param_input&0x0000ffffUL));
;;;394    					}
;;;395    					
;;;396    				else if(strstr (varr[0], "tmax_"))
;;;397    					{
;;;398    					sscanf ((const char *)varr[1]+6, "%d",&web_param_input);
;;;399    					lc640_write_int(EE_TMAX,(short)(web_param_input&0x0000ffffUL));
;;;400    					}
;;;401    
;;;402    				else if(strstr (varr[0], "tzas_"))
;;;403    					{
;;;404    					sscanf ((const char *)varr[1]+6, "%d",&web_param_input);
;;;405    					lc640_write_int(EE_TZAS,(short)(web_param_input&0x0000ffffUL));
;;;406    					}
;;;407    
;;;408    				else if(strstr (varr[0], "apv1_on_"))
;;;409    					{
;;;410    					sscanf ((const char *)varr[1]+6, "%d",&web_param_input);
;;;411    					if((web_param_input&0x0000ffffUL)==1)lc640_write_int(EE_APV_ON1,apvON);
;;;412    					else lc640_write_int(EE_APV_ON1,apvOFF);
;;;413    					}
;;;414    
;;;415    				else if(strstr (varr[0], "apv2_on_"))
;;;416    					{
;;;417    					sscanf ((const char *)varr[1]+6, "%d",&web_param_input);
;;;418    					if((web_param_input&0x0000ffffUL)==1)lc640_write_int(EE_APV_ON2,apvON);
;;;419    					else lc640_write_int(EE_APV_ON2,apvOFF);
;;;420    					}
;;;421    
;;;422    				else if(strstr (varr[0], "apv2_time_"))
;;;423    					{
;;;424    					sscanf ((const char *)varr[1]+6, "%d",&web_param_input);
;;;425    					lc640_write_int(EE_APV_ON2_TIME,(short)(web_param_input&0x0000ffffUL));
;;;426    					}
;;;427    
;;;428    				else if(strstr (varr[0], "u0b_"))
;;;429    					{
;;;430    					sscanf ((const char *)varr[1]+6, "%d",&web_param_input);
;;;431    					lc640_write_int(EE_U0B,(short)(web_param_input&0x0000ffffUL));
;;;432    					}
;;;433    					
;;;434    				else if(strstr (varr[0], "tbat_"))
;;;435    					{
;;;436    					sscanf ((const char *)varr[1]+6, "%d",&web_param_input);
;;;437    					lc640_write_int(EE_TBAT,(short)(web_param_input&0x0000ffffUL));
;;;438    					}
;;;439    					
;;;440    				else if(strstr (varr[0], "ikb_"))
;;;441    					{
;;;442    					sscanf ((const char *)varr[1]+6, "%d",&web_param_input);
;;;443    					lc640_write_int(EE_IKB,(short)(web_param_input&0x0000ffffUL));
;;;444    					}
;;;445    
;;;446    				else if(strstr (varr[0], "year_"))
;;;447    					{
;;;448    					sscanf ((const char *)varr[1]+6, "%d",&web_param_input);
;;;449    					LPC_RTC->YEAR=(short)(web_param_input&0x0000ffffUL);
;;;450    					}
;;;451    
;;;452    				else if(strstr (varr[0], "month_"))
;;;453    					{
;;;454    					sscanf ((const char *)varr[1]+6, "%d",&web_param_input);
;;;455    					LPC_RTC->MONTH=(short)(web_param_input&0x0000ffffUL);
;;;456    					}
;;;457    
;;;458    				else if(strstr (varr[0], "day_"))
;;;459    					{
;;;460    					sscanf ((const char *)varr[1]+6, "%d",&web_param_input);
;;;461    					LPC_RTC->DOM=(short)(web_param_input&0x0000ffffUL);
;;;462    					}
;;;463    
;;;464    				else if(strstr (varr[0], "hour_"))
;;;465    					{
;;;466    					sscanf ((const char *)varr[1]+6, "%d",&web_param_input);
;;;467    					LPC_RTC->HOUR=(short)(web_param_input&0x0000ffffUL);
;;;468    					}
;;;469    					
;;;470    				else if(strstr (varr[0], "minut_"))
;;;471    					{
;;;472    					sscanf ((const char *)varr[1]+6, "%d",&web_param_input);
;;;473    					LPC_RTC->MIN=(short)(web_param_input&0x0000ffffUL);
;;;474    					}
;;;475    					
;;;476    				else if(strstr (varr[0], "secund_"))
;;;477    					{
;;;478    					sscanf ((const char *)varr[1]+6, "%d",&web_param_input);
;;;479    					LPC_RTC->SEC=(short)(web_param_input&0x0000ffffUL);
;;;480    					}
;;;481    
;;;482    				else if(strstr (varr[0], "sk1avsign_"))
;;;483    					{
;;;484    					sscanf ((const char *)varr[1]+6, "%d",&web_param_input);
;;;485    					if((short)(web_param_input&0x000000ffUL))lc640_write_int(EE_SK_SIGN0,0);
;;;486    					else lc640_write_int(EE_SK_SIGN0,0);
;;;487    					}
;;;488    				else if(strstr (varr[0], "sk2avsign_"))
;;;489    					{
;;;490    					sscanf ((const char *)varr[1]+6, "%d",&web_param_input);
;;;491    					if((short)(web_param_input&0x000000ffUL))lc640_write_int(EE_SK_SIGN1,0);
;;;492    					else lc640_write_int(EE_SK_SIGN1,0);
;;;493    					}
;;;494    				else if(strstr (varr[0], "sk3avsign_"))
;;;495    					{
;;;496    					sscanf ((const char *)varr[1]+6, "%d",&web_param_input);
;;;497    					if((short)(web_param_input&0x000000ffUL))lc640_write_int(EE_SK_SIGN2,0);
;;;498    					else lc640_write_int(EE_SK_SIGN2,0);
;;;499    					}
;;;500    				else if(strstr (varr[0], "sk4avsign_"))
;;;501    					{
;;;502    					sscanf ((const char *)varr[1]+6, "%d",&web_param_input);
;;;503    					if((short)(web_param_input&0x000000ffUL))lc640_write_int(EE_SK_SIGN3,0);
;;;504    					else lc640_write_int(EE_SK_SIGN3,0);
;;;505    					}
;;;506    				else if(strstr (varr[0], "sk1lcden_"))
;;;507    					{
;;;508    					sscanf ((const char *)varr[1]+6, "%d",&web_param_input);
;;;509    					if((short)(web_param_input&0x000000ffUL))lc640_write_int(EE_SK_LCD_EN0,0);
;;;510    					else lc640_write_int(EE_SK_LCD_EN0,1);
;;;511    					}
;;;512    				else if(strstr (varr[0], "sk2lcden_"))
;;;513    					{
;;;514    					sscanf ((const char *)varr[1]+6, "%d",&web_param_input);
;;;515    					if((short)(web_param_input&0x000000ffUL))lc640_write_int(EE_SK_LCD_EN1,0);
;;;516    					else lc640_write_int(EE_SK_LCD_EN1,1);
;;;517    					}
;;;518    				else if(strstr (varr[0], "sk3lcden_"))
;;;519    					{
;;;520    					sscanf ((const char *)varr[1]+6, "%d",&web_param_input);
;;;521    					if((short)(web_param_input&0x000000ffUL))lc640_write_int(EE_SK_LCD_EN2,0);
;;;522    					else lc640_write_int(EE_SK_LCD_EN2,1);
;;;523    
;;;524    					}
;;;525    				else if(strstr (varr[0], "sk4lcden_"))
;;;526    					{
;;;527    					sscanf ((const char *)varr[1]+6, "%d",&web_param_input);
;;;528    					if((short)(web_param_input&0x000000ffUL))lc640_write_int(EE_SK_LCD_EN3,0);
;;;529    					else lc640_write_int(EE_SK_LCD_EN3,1);
;;;530    
;;;531    					}
;;;532    				else if(strstr (varr[0], "sk1zven_"))
;;;533    					{
;;;534    					sscanf ((const char *)varr[1]+6, "%d",&web_param_input);
;;;535    					if((short)(web_param_input&0x000000ffUL))lc640_write_int(EE_SK_ZVUK_EN0,0);
;;;536    					else lc640_write_int(EE_SK_ZVUK_EN0,1);
;;;537    					}
;;;538    				else if(strstr (varr[0], "sk2zven_"))
;;;539    					{
;;;540    					sscanf ((const char *)varr[1]+6, "%d",&web_param_input);
;;;541    					if((short)(web_param_input&0x000000ffUL))lc640_write_int(EE_SK_ZVUK_EN1,0);
;;;542    					else lc640_write_int(EE_SK_ZVUK_EN1,1);
;;;543    					}
;;;544    				else if(strstr (varr[0], "sk3zven_"))
;;;545    					{
;;;546    					sscanf ((const char *)varr[1]+6, "%d",&web_param_input);
;;;547    					if((short)(web_param_input&0x000000ffUL))lc640_write_int(EE_SK_ZVUK_EN2,0);
;;;548    					else lc640_write_int(EE_SK_ZVUK_EN2,1);
;;;549    					}
;;;550    				else if(strstr (varr[0], "sk4zven_"))
;;;551    					{
;;;552    					sscanf ((const char *)varr[1]+6, "%d",&web_param_input);
;;;553    					if((short)(web_param_input&0x000000ffUL))lc640_write_int(EE_SK_ZVUK_EN3,0);
;;;554    					else lc640_write_int(EE_SK_ZVUK_EN3,1);
;;;555    					}	
;;;556    				else if(strstr (varr[0], "sntp_gmt_"))
;;;557    					{
;;;558    					sscanf ((const char *)varr[1]+6, "%d",&web_param_input);
;;;559    					lc640_write_int(EE_SNTP_GMT,(short)web_param_input);
;;;560    					}
;;;561    				else if(strstr (varr[0], "sntp_exe_"))
;;;562    					{
;;;563    					time_sinc_hndl_req_cnt=5;
;;;564    					Rem_IP[0]=SNTP_IP1;
;;;565    					Rem_IP[1]=SNTP_IP2;
;;;566    					Rem_IP[2]=SNTP_IP3;
;;;567    					Rem_IP[3]=SNTP_IP4;
;;;568    					sntp_requ();
;;;569    					//sntp_plazma++;					
;;;570    					}
;;;571    				else if(strstr (varr[0], "sntp_src_"))
;;;572    					{
;;;573    					sscanf ((const char *)varr[1]+6, "%d",&web_param_input);
;;;574    					if((short)(web_param_input&0x000000ffUL))lc640_write_int(EE_SNTP_WEB_ENABLE,0);
;;;575    					else lc640_write_int(EE_SNTP_WEB_ENABLE,1);
;;;576    					}
;;;577    				else if(strstr (varr[0], "sntp_ip_"))
;;;578    					{
;;;579    					sscanf ((const char *)varr[1]+6, "%d",&web_param_input);
;;;580    					lc640_write_int(EE_SNTP_IP4,(char)(web_param_input&0x000000ffUL));
;;;581    					lc640_write_int(EE_SNTP_IP3,(char)((web_param_input&0x0000ff00UL)>>8));
;;;582    					lc640_write_int(EE_SNTP_IP2,(char)((web_param_input&0x00ff0000UL)>>16));
;;;583    					lc640_write_int(EE_SNTP_IP1,(char)((web_param_input&0xff000000UL)>>24));
;;;584    					}	
;;;585    				else if(strstr (varr[0], "numist_"))
;;;586    					{
;;;587    					sscanf ((const char *)varr[1]+6, "%d",&web_param_input);
;;;588    					lc640_write_int(EE_NUMIST,(short)(web_param_input&0x000000ffUL));
;;;589    					}
;;;590    				else if(strstr (varr[0], "numphase_"))
;;;591    					{
;;;592    					sscanf ((const char *)varr[1]+6, "%d",&web_param_input);
;;;593    					if((short)(web_param_input&0x000000ffUL))lc640_write_int(EE_NUMPHASE,3);
;;;594    					else lc640_write_int(EE_NUMPHASE,1);
;;;595    					}
;;;596    				else if(strstr (varr[0], "numsk_"))
;;;597    					{
;;;598    					sscanf ((const char *)varr[1]+6, "%d",&web_param_input);
;;;599    					lc640_write_int(EE_NUMSK,(short)web_param_input);
;;;600    					}
;;;601    				else if(strstr (varr[0], "numdt_"))
;;;602    					{
;;;603    					sscanf ((const char *)varr[1]+6, "%d",&web_param_input);
;;;604    					lc640_write_int(EE_NUMDT,(short)web_param_input);
;;;605    					}
;;;606    				else if(strstr (varr[0], "nummakb_"))
;;;607    					{
;;;608    					sscanf ((const char *)varr[1]+6, "%d",&web_param_input);
;;;609    					lc640_write_int(EE_NUMMAKB,(short)web_param_input);
;;;610    					}
;;;611    				else if(strstr (varr[0], "numenmv_"))
;;;612    					{
;;;613    					sscanf ((const char *)varr[1]+6, "%d",&web_param_input);
;;;614    					lc640_write_int(EE_NUMENMV,(short)web_param_input);
;;;615    					}																																																																																																																																																																																																	
;;;616    				}
;;;617    
;;;618    			//if(strstr(var, "pl"))web_plazma[1]++;
;;;619    			//else if(strstr(var, "mi"))web_plazma[1]--;
;;;620    			}
;;;621          else if (str_scomp (var, "but=but2") == __TRUE) {
0001f4  a192              ADR      r1,|L1.1088|
0001f6  4648              MOV      r0,r9
0001f8  f7fffffe          BL       str_scomp
0001fc  2801              CMP      r0,#1
0001fe  d01b              BEQ      |L1.568|
;;;622            //web_plazma[4]=2;
;;;623          }
;;;624          else if (str_scomp (var, "but=but3") == __TRUE) {
000200  a192              ADR      r1,|L1.1100|
000202  4648              MOV      r0,r9
000204  f7fffffe          BL       str_scomp
000208  2801              CMP      r0,#1
00020a  d015              BEQ      |L1.568|
;;;625            //web_plazma[4]=3;
;;;626          }
;;;627          else if (str_scomp (var, "pw=") == __TRUE) {
00020c  a192              ADR      r1,|L1.1112|
00020e  4648              MOV      r0,r9
000210  f7fffffe          BL       str_scomp
000214  2801              CMP      r0,#1
000216  d072              BEQ      |L1.766|
;;;628            /* Change password. */
;;;629            str_copy (passw, var+3);
;;;630            stpassw |= 1;
;;;631          }
;;;632          else if (str_scomp (var, "pw2=") == __TRUE) {
000218  a190              ADR      r1,|L1.1116|
00021a  4648              MOV      r0,r9
00021c  f7fffffe          BL       str_scomp
000220  2801              CMP      r0,#1
000222  d06d              BEQ      |L1.768|
;;;633            /* Retyped password. */
;;;634            str_copy (retyped, var+4);
;;;635            stpassw |= 2;
;;;636          }
;;;637          else if (str_scomp (var, "lcd1=") == __TRUE) {
000224  a18f              ADR      r1,|L1.1124|
000226  4648              MOV      r0,r9
000228  f7fffffe          BL       str_scomp
00022c  2801              CMP      r0,#1
00022e  d003              BEQ      |L1.568|
;;;638            /* LCD Module Line 1 text. */
;;;639            /////str_copy (lcd_text[0], var+5);
;;;640            /////LCDupdate = __TRUE;
;;;641          }
;;;642          else if (str_scomp (var, "lcd2=") == __TRUE) {
000230  a18e              ADR      r1,|L1.1132|
000232  4648              MOV      r0,r9
000234  f7fffffe          BL       str_scomp
                  |L1.568|
;;;643            /* LCD Module Line 2 text. */
;;;644            /////str_copy (lcd_text[1], var+5);
;;;645            /////LCDupdate = __TRUE;
;;;646    			}
;;;647    		}
;;;648    
;;;649    free_mem ((OS_FRAME *)var);
000238  4648              MOV      r0,r9
00023a  f7fffffe          BL       free_mem
;;;650    free_mem ((OS_FRAME *)varr[0]);
00023e  9800              LDR      r0,[sp,#0]
000240  f7fffffe          BL       free_mem
;;;651    free_mem ((OS_FRAME *)varr[1]);
000244  9801              LDR      r0,[sp,#4]
000246  f7fffffe          BL       free_mem
;;;652    free_mem ((OS_FRAME *)varr[2]);
00024a  9802              LDR      r0,[sp,#8]
00024c  f7fffffe          BL       free_mem
;;;653      /////LED_out (P2);
;;;654    
;;;655      if (stpassw == 0x03) {
000250  2d03              CMP      r5,#3
000252  d10d              BNE      |L1.624|
;;;656        len = strlen ((const char *)passw);
000254  a806              ADD      r0,sp,#0x18
000256  f7fffffe          BL       strlen
00025a  b282              UXTH     r2,r0
;;;657        if (mem_comp (passw, retyped, len) == __TRUE) {
00025c  a903              ADD      r1,sp,#0xc
00025e  a806              ADD      r0,sp,#0x18
000260  f7fffffe          BL       mem_comp
000264  2801              CMP      r0,#1
000266  d103              BNE      |L1.624|
;;;658          /* OK, both entered passwords the same, change it. */
;;;659          str_copy (http_auth_passw, passw);
000268  a906              ADD      r1,sp,#0x18
00026a  4882              LDR      r0,|L1.1140|
00026c  f7fffffe          BL       str_copy
                  |L1.624|
;;;660        }
;;;661      }
;;;662    }
000270  b009              ADD      sp,sp,#0x24
000272  e8bd8ff0          POP      {r4-r11,pc}
                  |L1.630|
000276  2402              MOVS     r4,#2                 ;227
000278  2296              MOVS     r2,#0x96              ;227
00027a  4658              MOV      r0,r11                ;227
00027c  9901              LDR      r1,[sp,#4]            ;227
00027e  f7fffffe          BL       http_get_var
000282  4683              MOV      r11,r0                ;227
000284  e7a0              B        |L1.456|
                  |L1.646|
000286  7878              LDRB     r0,[r7,#1]            ;240  ; web_plazma
000288  f1000001          ADD      r0,r0,#1              ;240
00028c  7078              STRB     r0,[r7,#1]            ;240
00028e  9800              LDR      r0,[sp,#0]            ;242
000290  4979              LDR      r1,|L1.1144|
000292  f1000006          ADD      r0,r0,#6              ;242
000296  f7fffffe          BL       str_scomp
00029a  2101              MOVS     r1,#1                 ;190
00029c  4a77              LDR      r2,|L1.1148|
00029e  2801              CMP      r0,#1                 ;242
0002a0  d101              BNE      |L1.678|
0002a2  2e09              CMP      r6,#9                 ;242
0002a4  d004              BEQ      |L1.688|
                  |L1.678|
0002a6  f88a1000          STRB     r1,[r10,#0]           ;249
0002aa  f8828000          STRB     r8,[r2,#0]            ;250
                  |L1.686|
0002ae  e7c3              B        |L1.568|
                  |L1.688|
0002b0  7011              STRB     r1,[r2,#0]            ;244
0002b2  f88a8000          STRB     r8,[r10,#0]           ;245
0002b6  e7bf              B        |L1.568|
                  |L1.696|
0002b8  a171              ADR      r1,|L1.1152|
0002ba  9801              LDR      r0,[sp,#4]            ;255
0002bc  f7fffffe          BL       strstr
0002c0  2800              CMP      r0,#0                 ;255
0002c2  d0b9              BEQ      |L1.568|
0002c4  f04f0016          MOV      r0,#0x16              ;258
0002c8  7138              STRB     r0,[r7,#4]            ;258
0002ca  a16f              ADR      r1,|L1.1160|
0002cc  9800              LDR      r0,[sp,#0]            ;259
0002ce  f7fffffe          BL       strstr
0002d2  4c6f              LDR      r4,|L1.1168|
0002d4  b1a8              CBZ      r0,|L1.770|
0002d6  9801              LDR      r0,[sp,#4]            ;261
0002d8  4622              MOV      r2,r4                 ;261
0002da  1d80              ADDS     r0,r0,#6              ;261
0002dc  a16d              ADR      r1,|L1.1172|
0002de  f7fffffe          BL       __0sscanf
0002e2  6820              LDR      r0,[r4,#0]            ;262  ; web_param_input
0002e4  b201              SXTH     r1,r0                 ;262
0002e6  f44f70ab          MOV      r0,#0x156             ;262
0002ea  f7fffffe          BL       lc640_write_int
0002ee  6820              LDR      r0,[r4,#0]            ;263  ; web_param_input
0002f0  0c00              LSRS     r0,r0,#16             ;263
0002f2  b201              SXTH     r1,r0                 ;263
0002f4  f44f70ac          MOV      r0,#0x158             ;263
0002f8  f7fffffe          BL       lc640_write_int
                  |L1.764|
0002fc  e79c              B        |L1.568|
                  |L1.766|
0002fe  e3fe              B        |L1.2814|
                  |L1.768|
000300  e3fe              B        |L1.2816|
                  |L1.770|
000302  a165              ADR      r1,|L1.1176|
000304  9800              LDR      r0,[sp,#0]            ;265
000306  f7fffffe          BL       strstr
00030a  b1d0              CBZ      r0,|L1.834|
00030c  f04f0400          MOV      r4,#0                 ;267
000310  4963              LDR      r1,|L1.1184|
000312  4864              LDR      r0,|L1.1188|
000314  f7fffffe          BL       str_copy
000318  9801              LDR      r0,[sp,#4]            ;269
00031a  1d80              ADDS     r0,r0,#6              ;269
00031c  f7fffffe          BL       pal_cyr_decoder
000320  4601              MOV      r1,r0                 ;269
000322  4860              LDR      r0,|L1.1188|
000324  f7fffffe          BL       str_copy
000328  4f5e              LDR      r7,|L1.1188|
00032a  f2411612          MOV      r6,#0x1112            ;276
                  |L1.814|
00032e  19a0              ADDS     r0,r4,r6              ;276
000330  5d39              LDRB     r1,[r7,r4]            ;276
000332  f7fffffe          BL       lc640_write
000336  f1040401          ADD      r4,r4,#1              ;276
00033a  b2e4              UXTB     r4,r4                 ;276
00033c  2c46              CMP      r4,#0x46              ;276
00033e  d3f6              BCC      |L1.814|
                  |L1.832|
000340  e77a              B        |L1.568|
                  |L1.834|
000342  a159              ADR      r1,|L1.1192|
000344  9800              LDR      r0,[sp,#0]            ;279
000346  f7fffffe          BL       strstr
00034a  b160              CBZ      r0,|L1.870|
00034c  9801              LDR      r0,[sp,#4]            ;281
00034e  4a50              LDR      r2,|L1.1168|
000350  1d80              ADDS     r0,r0,#6              ;281
000352  a150              ADR      r1,|L1.1172|
000354  f7fffffe          BL       __0sscanf
000358  6820              LDR      r0,[r4,#0]            ;282  ; web_param_input
00035a  f0000101          AND      r1,r0,#1              ;282
00035e  20ca              MOVS     r0,#0xca              ;282
000360  f7fffffe          BL       lc640_write_int
                  |L1.868|
000364  e768              B        |L1.568|
                  |L1.870|
000366  a152              ADR      r1,|L1.1200|
000368  9800              LDR      r0,[sp,#0]            ;285
00036a  f7fffffe          BL       strstr
00036e  b160              CBZ      r0,|L1.906|
000370  9801              LDR      r0,[sp,#4]            ;287
000372  4a47              LDR      r2,|L1.1168|
000374  1d80              ADDS     r0,r0,#6              ;287
000376  a147              ADR      r1,|L1.1172|
000378  f7fffffe          BL       __0sscanf
00037c  6820              LDR      r0,[r4,#0]            ;288  ; web_param_input
00037e  f0000101          AND      r1,r0,#1              ;288
000382  2086              MOVS     r0,#0x86              ;288
000384  f7fffffe          BL       lc640_write_int
                  |L1.904|
000388  e756              B        |L1.568|
                  |L1.906|
00038a  a14b              ADR      r1,|L1.1208|
00038c  9800              LDR      r0,[sp,#0]            ;291
00038e  f7fffffe          BL       strstr
000392  b160              CBZ      r0,|L1.942|
000394  9801              LDR      r0,[sp,#4]            ;293
000396  4a3e              LDR      r2,|L1.1168|
000398  1d80              ADDS     r0,r0,#6              ;293
00039a  a13e              ADR      r1,|L1.1172|
00039c  f7fffffe          BL       __0sscanf
0003a0  6820              LDR      r0,[r4,#0]            ;294  ; web_param_input
0003a2  f0000101          AND      r1,r0,#1              ;294
0003a6  2080              MOVS     r0,#0x80              ;294
0003a8  f7fffffe          BL       lc640_write_int
0003ac  e744              B        |L1.568|
                  |L1.942|
0003ae  a144              ADR      r1,|L1.1216|
0003b0  9800              LDR      r0,[sp,#0]            ;298
0003b2  f7fffffe          BL       strstr
0003b6  b160              CBZ      r0,|L1.978|
0003b8  9801              LDR      r0,[sp,#4]            ;300
0003ba  4a35              LDR      r2,|L1.1168|
0003bc  1d80              ADDS     r0,r0,#6              ;300
0003be  a135              ADR      r1,|L1.1172|
0003c0  f7fffffe          BL       __0sscanf
0003c4  6820              LDR      r0,[r4,#0]            ;301  ; web_param_input
0003c6  b201              SXTH     r1,r0                 ;301
0003c8  f2411076          MOV      r0,#0x1176            ;301
0003cc  f7fffffe          BL       lc640_write_int
                  |L1.976|
0003d0  e732              B        |L1.568|
                  |L1.978|
0003d2  a13d              ADR      r1,|L1.1224|
0003d4  9800              LDR      r0,[sp,#0]            ;305
0003d6  f7fffffe          BL       strstr
0003da  b158              CBZ      r0,|L1.1012|
0003dc  9801              LDR      r0,[sp,#4]            ;307
0003de  4a2c              LDR      r2,|L1.1168|
0003e0  1d80              ADDS     r0,r0,#6              ;307
0003e2  a12c              ADR      r1,|L1.1172|
0003e4  f7fffffe          BL       __0sscanf
0003e8  6820              LDR      r0,[r4,#0]            ;308  ; web_param_input
0003ea  b201              SXTH     r1,r0                 ;308
0003ec  2084              MOVS     r0,#0x84              ;308
0003ee  f7fffffe          BL       lc640_write_int
                  |L1.1010|
0003f2  e721              B        |L1.568|
                  |L1.1012|
0003f4  e06c              B        |L1.1232|
0003f6  0000              DCW      0x0000
                  |L1.1016|
                          DCD      web_plazma
                  |L1.1020|
                          DCD      localm
                  |L1.1024|
000400  69703d00          DCB      "ip=",0
                  |L1.1028|
000404  6d736b3d          DCB      "msk=",0
000408  00      
000409  00                DCB      0
00040a  00                DCB      0
00040b  00                DCB      0
                  |L1.1036|
00040c  67773d00          DCB      "gw=",0
                  |L1.1040|
000410  70646e73          DCB      "pdns=",0
000414  3d00    
000416  00                DCB      0
000417  00                DCB      0
                  |L1.1048|
000418  73646e73          DCB      "sdns=",0
00041c  3d00    
00041e  00                DCB      0
00041f  00                DCB      0
                  |L1.1056|
000420  25642e25          DCB      "%d.%d.%d.%d",0
000424  642e2564
000428  2e256400
                  |L1.1068|
                          DCD      ||.data||
                  |L1.1072|
000430  7061726f          DCB      "parol",0
000434  6c00    
000436  00                DCB      0
000437  00                DCB      0
                  |L1.1080|
000438  70617261          DCB      "param=",0
00043c  6d3d00  
00043f  00                DCB      0
                  |L1.1088|
000440  6275743d          DCB      "but=but2",0
000444  62757432
000448  00      
000449  00                DCB      0
00044a  00                DCB      0
00044b  00                DCB      0
                  |L1.1100|
00044c  6275743d          DCB      "but=but3",0
000450  62757433
000454  00      
000455  00                DCB      0
000456  00                DCB      0
000457  00                DCB      0
                  |L1.1112|
000458  70773d00          DCB      "pw=",0
                  |L1.1116|
00045c  7077323d          DCB      "pw2=",0
000460  00      
000461  00                DCB      0
000462  00                DCB      0
000463  00                DCB      0
                  |L1.1124|
000464  6c636431          DCB      "lcd1=",0
000468  3d00    
00046a  00                DCB      0
00046b  00                DCB      0
                  |L1.1132|
00046c  6c636432          DCB      "lcd2=",0
000470  3d00    
000472  00                DCB      0
000473  00                DCB      0
                  |L1.1140|
                          DCD      http_auth_passw
                  |L1.1144|
                          DCD      snmp_web_passw
                  |L1.1148|
                          DCD      uku_set_autorized
                  |L1.1152|
000480  76616c75          DCB      "value=",0
000484  653d00  
000487  00                DCB      0
                  |L1.1160|
000488  7365726e          DCB      "serno",0
00048c  6f00    
00048e  00                DCB      0
00048f  00                DCB      0
                  |L1.1168|
                          DCD      web_param_input
                  |L1.1172|
000494  256400            DCB      "%d",0
000497  00                DCB      0
                  |L1.1176|
000498  706c6163          DCB      "place",0
00049c  6500    
00049e  00                DCB      0
00049f  00                DCB      0
                  |L1.1184|
                          DCD      ||.constdata||+0x7c
                  |L1.1188|
                          DCD      place_holder
                  |L1.1192|
0004a8  7061725f          DCB      "par_",0
0004ac  00      
0004ad  00                DCB      0
0004ae  00                DCB      0
0004af  00                DCB      0
                  |L1.1200|
0004b0  7a765f6f          DCB      "zv_on_",0
0004b4  6e5f00  
0004b7  00                DCB      0
                  |L1.1208|
0004b8  61765f61          DCB      "av_avt_",0
0004bc  76745f00
                  |L1.1216|
0004c0  756e5f6d          DCB      "un_max_",0
0004c4  61785f00
                  |L1.1224|
0004c8  756e5f6d          DCB      "un_min_",0
0004cc  696e5f00
                  |L1.1232|
0004d0  a1fe              ADR      r1,|L1.2252|
0004d2  9800              LDR      r0,[sp,#0]            ;311
0004d4  f7fffffe          BL       strstr
0004d8  b168              CBZ      r0,|L1.1270|
0004da  9801              LDR      r0,[sp,#4]            ;313
0004dc  4afd              LDR      r2,|L1.2260|
0004de  1d80              ADDS     r0,r0,#6              ;313
0004e0  f2af0150          ADR      r1,|L1.1172|
0004e4  f7fffffe          BL       __0sscanf
0004e8  6820              LDR      r0,[r4,#0]            ;314  ; web_param_input
0004ea  b201              SXTH     r1,r0                 ;314
0004ec  f44f7093          MOV      r0,#0x126             ;314
0004f0  f7fffffe          BL       lc640_write_int
                  |L1.1268|
0004f4  e6a0              B        |L1.568|
                  |L1.1270|
0004f6  a1f8              ADR      r1,|L1.2264|
0004f8  9800              LDR      r0,[sp,#0]            ;317
0004fa  f7fffffe          BL       strstr
0004fe  b160              CBZ      r0,|L1.1306|
000500  9801              LDR      r0,[sp,#4]            ;319
000502  4af4              LDR      r2,|L1.2260|
000504  1d80              ADDS     r0,r0,#6              ;319
000506  f2af0174          ADR      r1,|L1.1172|
00050a  f7fffffe          BL       __0sscanf
00050e  6820              LDR      r0,[r4,#0]            ;320  ; web_param_input
000510  b201              SXTH     r1,r0                 ;320
000512  208c              MOVS     r0,#0x8c              ;320
000514  f7fffffe          BL       lc640_write_int
                  |L1.1304|
000518  e68e              B        |L1.568|
                  |L1.1306|
00051a  a1f1              ADR      r1,|L1.2272|
00051c  9800              LDR      r0,[sp,#0]            ;323
00051e  f7fffffe          BL       strstr
000522  b160              CBZ      r0,|L1.1342|
000524  9801              LDR      r0,[sp,#4]            ;325
000526  4aeb              LDR      r2,|L1.2260|
000528  1d80              ADDS     r0,r0,#6              ;325
00052a  f2af0198          ADR      r1,|L1.1172|
00052e  f7fffffe          BL       __0sscanf
000532  6820              LDR      r0,[r4,#0]            ;326  ; web_param_input
000534  b201              SXTH     r1,r0                 ;326
000536  208e              MOVS     r0,#0x8e              ;326
000538  f7fffffe          BL       lc640_write_int
                  |L1.1340|
00053c  e67c              B        |L1.568|
                  |L1.1342|
00053e  a1ea              ADR      r1,|L1.2280|
000540  9800              LDR      r0,[sp,#0]            ;329
000542  f7fffffe          BL       strstr
000546  b160              CBZ      r0,|L1.1378|
000548  9801              LDR      r0,[sp,#4]            ;331
00054a  4ae2              LDR      r2,|L1.2260|
00054c  1d80              ADDS     r0,r0,#6              ;331
00054e  f2af01bc          ADR      r1,|L1.1172|
000552  f7fffffe          BL       __0sscanf
000556  6820              LDR      r0,[r4,#0]            ;332  ; web_param_input
000558  b201              SXTH     r1,r0                 ;332
00055a  2078              MOVS     r0,#0x78              ;332
00055c  f7fffffe          BL       lc640_write_int
000560  e66a              B        |L1.568|
                  |L1.1378|
000562  a1e4              ADR      r1,|L1.2292|
000564  9800              LDR      r0,[sp,#0]            ;335
000566  f7fffffe          BL       strstr
00056a  b1d8              CBZ      r0,|L1.1444|
00056c  9801              LDR      r0,[sp,#4]            ;337
00056e  4ad9              LDR      r2,|L1.2260|
000570  1d80              ADDS     r0,r0,#6              ;337
000572  f2af01e0          ADR      r1,|L1.1172|
000576  f7fffffe          BL       __0sscanf
00057a  49e1              LDR      r1,|L1.2304|
00057c  6820              LDR      r0,[r4,#0]            ;338  ; web_param_input
00057e  4ce1              LDR      r4,|L1.2308|
000580  f9b12000          LDRSH    r2,[r1,#0]            ;338  ; UB20
000584  eba20000          SUB      r0,r2,r0              ;338
000588  8020              STRH     r0,[r4,#0]            ;338
00058a  f1a20264          SUB      r2,r2,#0x64           ;339
00058e  f04f0132          MOV      r1,#0x32              ;339
000592  4620              MOV      r0,r4                 ;339
000594  f7fffffe          BL       gran
000598  f9b41000          LDRSH    r1,[r4,#0]            ;340  ; DU
00059c  20c8              MOVS     r0,#0xc8              ;340
00059e  f7fffffe          BL       lc640_write_int
                  |L1.1442|
0005a2  e649              B        |L1.568|
                  |L1.1444|
0005a4  a1d8              ADR      r1,|L1.2312|
0005a6  9800              LDR      r0,[sp,#0]            ;343
0005a8  f7fffffe          BL       strstr
0005ac  b160              CBZ      r0,|L1.1480|
0005ae  9801              LDR      r0,[sp,#4]            ;345
0005b0  4ac8              LDR      r2,|L1.2260|
0005b2  1d80              ADDS     r0,r0,#6              ;345
0005b4  f2af1124          ADR      r1,|L1.1172|
0005b8  f7fffffe          BL       __0sscanf
0005bc  6820              LDR      r0,[r4,#0]            ;346  ; web_param_input
0005be  b201              SXTH     r1,r0                 ;346
0005c0  207c              MOVS     r0,#0x7c              ;346
0005c2  f7fffffe          BL       lc640_write_int
0005c6  e637              B        |L1.568|
                  |L1.1480|
0005c8  a1d1              ADR      r1,|L1.2320|
0005ca  9800              LDR      r0,[sp,#0]            ;349
0005cc  f7fffffe          BL       strstr
0005d0  b160              CBZ      r0,|L1.1516|
0005d2  9801              LDR      r0,[sp,#4]            ;351
0005d4  4abf              LDR      r2,|L1.2260|
0005d6  1d80              ADDS     r0,r0,#6              ;351
0005d8  f2af1148          ADR      r1,|L1.1172|
0005dc  f7fffffe          BL       __0sscanf
0005e0  6820              LDR      r0,[r4,#0]            ;352  ; web_param_input
0005e2  b201              SXTH     r1,r0                 ;352
0005e4  207a              MOVS     r0,#0x7a              ;352
0005e6  f7fffffe          BL       lc640_write_int
                  |L1.1514|
0005ea  e625              B        |L1.568|
                  |L1.1516|
0005ec  a1ca              ADR      r1,|L1.2328|
0005ee  9800              LDR      r0,[sp,#0]            ;355
0005f0  f7fffffe          BL       strstr
0005f4  b160              CBZ      r0,|L1.1552|
0005f6  9801              LDR      r0,[sp,#4]            ;357
0005f8  4ab6              LDR      r2,|L1.2260|
0005fa  1d80              ADDS     r0,r0,#6              ;357
0005fc  f2af116c          ADR      r1,|L1.1172|
000600  f7fffffe          BL       __0sscanf
000604  6820              LDR      r0,[r4,#0]            ;358  ; web_param_input
000606  b201              SXTH     r1,r0                 ;358
000608  2082              MOVS     r0,#0x82              ;358
00060a  f7fffffe          BL       lc640_write_int
00060e  e613              B        |L1.568|
                  |L1.1552|
000610  a1c3              ADR      r1,|L1.2336|
000612  9800              LDR      r0,[sp,#0]            ;361
000614  f7fffffe          BL       strstr
000618  b160              CBZ      r0,|L1.1588|
00061a  9801              LDR      r0,[sp,#4]            ;363
00061c  4aad              LDR      r2,|L1.2260|
00061e  1d80              ADDS     r0,r0,#6              ;363
000620  f2af1190          ADR      r1,|L1.1172|
000624  f7fffffe          BL       __0sscanf
000628  6820              LDR      r0,[r4,#0]            ;364  ; web_param_input
00062a  b201              SXTH     r1,r0                 ;364
00062c  2092              MOVS     r0,#0x92              ;364
00062e  f7fffffe          BL       lc640_write_int
000632  e601              B        |L1.568|
                  |L1.1588|
000634  a1bc              ADR      r1,|L1.2344|
000636  9800              LDR      r0,[sp,#0]            ;367
000638  f7fffffe          BL       strstr
00063c  b160              CBZ      r0,|L1.1624|
00063e  9801              LDR      r0,[sp,#4]            ;369
000640  4aa4              LDR      r2,|L1.2260|
000642  1d80              ADDS     r0,r0,#6              ;369
000644  f2af11b4          ADR      r1,|L1.1172|
000648  f7fffffe          BL       __0sscanf
00064c  6820              LDR      r0,[r4,#0]            ;370  ; web_param_input
00064e  b201              SXTH     r1,r0                 ;370
000650  20ce              MOVS     r0,#0xce              ;370
000652  f7fffffe          BL       lc640_write_int
000656  e5ef              B        |L1.568|
                  |L1.1624|
000658  a1b6              ADR      r1,|L1.2356|
00065a  9800              LDR      r0,[sp,#0]            ;373
00065c  f7fffffe          BL       strstr
000660  b160              CBZ      r0,|L1.1660|
000662  9801              LDR      r0,[sp,#4]            ;375
000664  4a9b              LDR      r2,|L1.2260|
000666  1d80              ADDS     r0,r0,#6              ;375
000668  f2af11d8          ADR      r1,|L1.1172|
00066c  f7fffffe          BL       __0sscanf
000670  6820              LDR      r0,[r4,#0]            ;376  ; web_param_input
000672  b201              SXTH     r1,r0                 ;376
000674  20cc              MOVS     r0,#0xcc              ;376
000676  f7fffffe          BL       lc640_write_int
00067a  e5dd              B        |L1.568|
                  |L1.1660|
00067c  a1b0              ADR      r1,|L1.2368|
00067e  9800              LDR      r0,[sp,#0]            ;379
000680  f7fffffe          BL       strstr
000684  b160              CBZ      r0,|L1.1696|
000686  9801              LDR      r0,[sp,#4]            ;381
000688  4a92              LDR      r2,|L1.2260|
00068a  1d80              ADDS     r0,r0,#6              ;381
00068c  f2af11fc          ADR      r1,|L1.1172|
000690  f7fffffe          BL       __0sscanf
000694  6820              LDR      r0,[r4,#0]            ;382  ; web_param_input
000696  b201              SXTH     r1,r0                 ;382
000698  20de              MOVS     r0,#0xde              ;382
00069a  f7fffffe          BL       lc640_write_int
00069e  e5cb              B        |L1.568|
                  |L1.1696|
0006a0  a1a9              ADR      r1,|L1.2376|
0006a2  9800              LDR      r0,[sp,#0]            ;385
0006a4  f7fffffe          BL       strstr
0006a8  b160              CBZ      r0,|L1.1732|
0006aa  9801              LDR      r0,[sp,#4]            ;387
0006ac  4a89              LDR      r2,|L1.2260|
0006ae  1d80              ADDS     r0,r0,#6              ;387
0006b0  f2af2120          ADR      r1,|L1.1172|
0006b4  f7fffffe          BL       __0sscanf
0006b8  6820              LDR      r0,[r4,#0]            ;388  ; web_param_input
0006ba  b201              SXTH     r1,r0                 ;388
0006bc  20c0              MOVS     r0,#0xc0              ;388
0006be  f7fffffe          BL       lc640_write_int
0006c2  e5b9              B        |L1.568|
                  |L1.1732|
0006c4  a1a2              ADR      r1,|L1.2384|
0006c6  9800              LDR      r0,[sp,#0]            ;390
0006c8  f7fffffe          BL       strstr
0006cc  b160              CBZ      r0,|L1.1768|
0006ce  9801              LDR      r0,[sp,#4]            ;392
0006d0  4a80              LDR      r2,|L1.2260|
0006d2  1d80              ADDS     r0,r0,#6              ;392
0006d4  f2af2144          ADR      r1,|L1.1172|
0006d8  f7fffffe          BL       __0sscanf
0006dc  6820              LDR      r0,[r4,#0]            ;393  ; web_param_input
0006de  b201              SXTH     r1,r0                 ;393
0006e0  20c6              MOVS     r0,#0xc6              ;393
0006e2  f7fffffe          BL       lc640_write_int
                  |L1.1766|
0006e6  e5a7              B        |L1.568|
                  |L1.1768|
0006e8  a19b              ADR      r1,|L1.2392|
0006ea  9800              LDR      r0,[sp,#0]            ;396
0006ec  f7fffffe          BL       strstr
0006f0  b160              CBZ      r0,|L1.1804|
0006f2  9801              LDR      r0,[sp,#4]            ;398
0006f4  4a77              LDR      r2,|L1.2260|
0006f6  1d80              ADDS     r0,r0,#6              ;398
0006f8  f2af2168          ADR      r1,|L1.1172|
0006fc  f7fffffe          BL       __0sscanf
000700  6820              LDR      r0,[r4,#0]            ;399  ; web_param_input
000702  b201              SXTH     r1,r0                 ;399
000704  207e              MOVS     r0,#0x7e              ;399
000706  f7fffffe          BL       lc640_write_int
                  |L1.1802|
00070a  e595              B        |L1.568|
                  |L1.1804|
00070c  a194              ADR      r1,|L1.2400|
00070e  9800              LDR      r0,[sp,#0]            ;402
000710  f7fffffe          BL       strstr
000714  b160              CBZ      r0,|L1.1840|
000716  9801              LDR      r0,[sp,#4]            ;404
000718  4a6e              LDR      r2,|L1.2260|
00071a  1d80              ADDS     r0,r0,#6              ;404
00071c  f2af218c          ADR      r1,|L1.1172|
000720  f7fffffe          BL       __0sscanf
000724  6820              LDR      r0,[r4,#0]            ;405  ; web_param_input
000726  b201              SXTH     r1,r0                 ;405
000728  2096              MOVS     r0,#0x96              ;405
00072a  f7fffffe          BL       lc640_write_int
                  |L1.1838|
00072e  e583              B        |L1.568|
                  |L1.1840|
000730  a18d              ADR      r1,|L1.2408|
000732  9800              LDR      r0,[sp,#0]            ;408
000734  f7fffffe          BL       strstr
000738  b1a0              CBZ      r0,|L1.1892|
00073a  9801              LDR      r0,[sp,#4]            ;410
00073c  4a65              LDR      r2,|L1.2260|
00073e  1d80              ADDS     r0,r0,#6              ;410
000740  f2af21b0          ADR      r1,|L1.1172|
000744  f7fffffe          BL       __0sscanf
000748  6820              LDR      r0,[r4,#0]            ;411  ; web_param_input
00074a  b280              UXTH     r0,r0                 ;411
00074c  2801              CMP      r0,#1                 ;411
00074e  d004              BEQ      |L1.1882|
000750  2100              MOVS     r1,#0                 ;412
000752  20a0              MOVS     r0,#0xa0              ;412
000754  f7fffffe          BL       lc640_write_int
                  |L1.1880|
000758  e56e              B        |L1.568|
                  |L1.1882|
00075a  2101              MOVS     r1,#1                 ;411
00075c  20a0              MOVS     r0,#0xa0              ;411
00075e  f7fffffe          BL       lc640_write_int
                  |L1.1890|
000762  e569              B        |L1.568|
                  |L1.1892|
000764  a183              ADR      r1,|L1.2420|
000766  9800              LDR      r0,[sp,#0]            ;415
000768  f7fffffe          BL       strstr
00076c  b1a0              CBZ      r0,|L1.1944|
00076e  9801              LDR      r0,[sp,#4]            ;417
000770  4a58              LDR      r2,|L1.2260|
000772  1d80              ADDS     r0,r0,#6              ;417
000774  f2af21e4          ADR      r1,|L1.1172|
000778  f7fffffe          BL       __0sscanf
00077c  6820              LDR      r0,[r4,#0]            ;418  ; web_param_input
00077e  b280              UXTH     r0,r0                 ;418
000780  2801              CMP      r0,#1                 ;418
000782  d004              BEQ      |L1.1934|
000784  2100              MOVS     r1,#0                 ;419
000786  20a2              MOVS     r0,#0xa2              ;419
000788  f7fffffe          BL       lc640_write_int
                  |L1.1932|
00078c  e554              B        |L1.568|
                  |L1.1934|
00078e  2101              MOVS     r1,#1                 ;418
000790  20a2              MOVS     r0,#0xa2              ;418
000792  f7fffffe          BL       lc640_write_int
000796  e54f              B        |L1.568|
                  |L1.1944|
000798  a179              ADR      r1,|L1.2432|
00079a  9800              LDR      r0,[sp,#0]            ;422
00079c  f7fffffe          BL       strstr
0007a0  b160              CBZ      r0,|L1.1980|
0007a2  9801              LDR      r0,[sp,#4]            ;424
0007a4  4a4b              LDR      r2,|L1.2260|
0007a6  1d80              ADDS     r0,r0,#6              ;424
0007a8  f2af3118          ADR      r1,|L1.1172|
0007ac  f7fffffe          BL       __0sscanf
0007b0  6820              LDR      r0,[r4,#0]            ;425  ; web_param_input
0007b2  b201              SXTH     r1,r0                 ;425
0007b4  20a4              MOVS     r0,#0xa4              ;425
0007b6  f7fffffe          BL       lc640_write_int
0007ba  e53d              B        |L1.568|
                  |L1.1980|
0007bc  a173              ADR      r1,|L1.2444|
0007be  9800              LDR      r0,[sp,#0]            ;428
0007c0  f7fffffe          BL       strstr
0007c4  b160              CBZ      r0,|L1.2016|
0007c6  9801              LDR      r0,[sp,#4]            ;430
0007c8  4a42              LDR      r2,|L1.2260|
0007ca  1d80              ADDS     r0,r0,#6              ;430
0007cc  f2af313c          ADR      r1,|L1.1172|
0007d0  f7fffffe          BL       __0sscanf
0007d4  6820              LDR      r0,[r4,#0]            ;431  ; web_param_input
0007d6  b201              SXTH     r1,r0                 ;431
0007d8  2094              MOVS     r0,#0x94              ;431
0007da  f7fffffe          BL       lc640_write_int
0007de  e52b              B        |L1.568|
                  |L1.2016|
0007e0  a16c              ADR      r1,|L1.2452|
0007e2  9800              LDR      r0,[sp,#0]            ;434
0007e4  f7fffffe          BL       strstr
0007e8  b160              CBZ      r0,|L1.2052|
0007ea  9801              LDR      r0,[sp,#4]            ;436
0007ec  4a39              LDR      r2,|L1.2260|
0007ee  1d80              ADDS     r0,r0,#6              ;436
0007f0  f2af3160          ADR      r1,|L1.1172|
0007f4  f7fffffe          BL       __0sscanf
0007f8  6820              LDR      r0,[r4,#0]            ;437  ; web_param_input
0007fa  b201              SXTH     r1,r0                 ;437
0007fc  20c2              MOVS     r0,#0xc2              ;437
0007fe  f7fffffe          BL       lc640_write_int
000802  e519              B        |L1.568|
                  |L1.2052|
000804  a165              ADR      r1,|L1.2460|
000806  9800              LDR      r0,[sp,#0]            ;440
000808  f7fffffe          BL       strstr
00080c  b160              CBZ      r0,|L1.2088|
00080e  9801              LDR      r0,[sp,#4]            ;442
000810  4a30              LDR      r2,|L1.2260|
000812  1d80              ADDS     r0,r0,#6              ;442
000814  f2af3184          ADR      r1,|L1.1172|
000818  f7fffffe          BL       __0sscanf
00081c  6820              LDR      r0,[r4,#0]            ;443  ; web_param_input
00081e  b201              SXTH     r1,r0                 ;443
000820  2088              MOVS     r0,#0x88              ;443
000822  f7fffffe          BL       lc640_write_int
000826  e507              B        |L1.568|
                  |L1.2088|
000828  a15e              ADR      r1,|L1.2468|
00082a  9800              LDR      r0,[sp,#0]            ;446
00082c  f7fffffe          BL       strstr
000830  4e5e              LDR      r6,|L1.2476|
000832  b148              CBZ      r0,|L1.2120|
000834  9801              LDR      r0,[sp,#4]            ;448
000836  4a27              LDR      r2,|L1.2260|
000838  1d80              ADDS     r0,r0,#6              ;448
00083a  f2af31a8          ADR      r1,|L1.1172|
00083e  f7fffffe          BL       __0sscanf
000842  6820              LDR      r0,[r4,#0]            ;449  ; web_param_input
000844  87b0              STRH     r0,[r6,#0x3c]         ;449
000846  e4f7              B        |L1.568|
                  |L1.2120|
000848  a159              ADR      r1,|L1.2480|
00084a  9800              LDR      r0,[sp,#0]            ;452
00084c  f7fffffe          BL       strstr
000850  b150              CBZ      r0,|L1.2152|
000852  9801              LDR      r0,[sp,#4]            ;454
000854  4a1f              LDR      r2,|L1.2260|
000856  1d80              ADDS     r0,r0,#6              ;454
000858  f2af31c8          ADR      r1,|L1.1172|
00085c  f7fffffe          BL       __0sscanf
000860  6820              LDR      r0,[r4,#0]            ;455  ; web_param_input
000862  f8860038          STRB     r0,[r6,#0x38]         ;455
000866  e4e7              B        |L1.568|
                  |L1.2152|
000868  a153              ADR      r1,|L1.2488|
00086a  9800              LDR      r0,[sp,#0]            ;458
00086c  f7fffffe          BL       strstr
000870  b150              CBZ      r0,|L1.2184|
000872  9801              LDR      r0,[sp,#4]            ;460
000874  4a17              LDR      r2,|L1.2260|
000876  1d80              ADDS     r0,r0,#6              ;460
000878  f2af31e8          ADR      r1,|L1.1172|
00087c  f7fffffe          BL       __0sscanf
000880  6820              LDR      r0,[r4,#0]            ;461  ; web_param_input
000882  f886002c          STRB     r0,[r6,#0x2c]         ;461
000886  e4d7              B        |L1.568|
                  |L1.2184|
000888  a14d              ADR      r1,|L1.2496|
00088a  9800              LDR      r0,[sp,#0]            ;464
00088c  f7fffffe          BL       strstr
000890  b150              CBZ      r0,|L1.2216|
000892  9801              LDR      r0,[sp,#4]            ;466
000894  4a0f              LDR      r2,|L1.2260|
000896  1d80              ADDS     r0,r0,#6              ;466
000898  f2af4108          ADR      r1,|L1.1172|
00089c  f7fffffe          BL       __0sscanf
0008a0  6820              LDR      r0,[r4,#0]            ;467  ; web_param_input
0008a2  f8860028          STRB     r0,[r6,#0x28]         ;467
0008a6  e4c7              B        |L1.568|
                  |L1.2216|
0008a8  a147              ADR      r1,|L1.2504|
0008aa  9800              LDR      r0,[sp,#0]            ;470
0008ac  f7fffffe          BL       strstr
0008b0  b150              CBZ      r0,|L1.2248|
0008b2  9801              LDR      r0,[sp,#4]            ;472
0008b4  4a07              LDR      r2,|L1.2260|
0008b6  1d80              ADDS     r0,r0,#6              ;472
0008b8  f2af4128          ADR      r1,|L1.1172|
0008bc  f7fffffe          BL       __0sscanf
0008c0  6820              LDR      r0,[r4,#0]            ;473  ; web_param_input
0008c2  f8860024          STRB     r0,[r6,#0x24]         ;473
0008c6  e4b7              B        |L1.568|
                  |L1.2248|
0008c8  e082              B        |L1.2512|
0008ca  0000              DCW      0x0000
                  |L1.2252|
0008cc  726f745f          DCB      "rot_t_",0
0008d0  745f00  
0008d3  00                DCB      0
                  |L1.2260|
                          DCD      web_param_input
                  |L1.2264|
0008d8  695f6d61          DCB      "i_max_",0
0008dc  785f00  
0008df  00                DCB      0
                  |L1.2272|
0008e0  695f6d69          DCB      "i_min_",0
0008e4  6e5f00  
0008e7  00                DCB      0
                  |L1.2280|
0008e8  755f6d61          DCB      "u_max_i_",0
0008ec  785f695f
0008f0  00      
0008f1  00                DCB      0
0008f2  00                DCB      0
0008f3  00                DCB      0
                  |L1.2292|
0008f4  755f6d69          DCB      "u_min_i_",0
0008f8  6e5f695f
0008fc  00      
0008fd  00                DCB      0
0008fe  00                DCB      0
0008ff  00                DCB      0
                  |L1.2304|
                          DCD      UB20
                  |L1.2308|
                          DCD      ||DU||
                  |L1.2312|
000908  75623230          DCB      "ub20_",0
00090c  5f00    
00090e  00                DCB      0
00090f  00                DCB      0
                  |L1.2320|
000910  7562305f          DCB      "ub0_",0
000914  00      
000915  00                DCB      0
000916  00                DCB      0
000917  00                DCB      0
                  |L1.2328|
000918  75736967          DCB      "usign_",0
00091c  6e5f00  
00091f  00                DCB      0
                  |L1.2336|
000920  697a6d61          DCB      "izmax_",0
000924  785f00  
000927  00                DCB      0
                  |L1.2344|
000928  74626174          DCB      "tbatsign_",0
00092c  7369676e
000930  5f00    
000932  00                DCB      0
000933  00                DCB      0
                  |L1.2356|
000934  74626174          DCB      "tbatmax_",0
000938  6d61785f
00093c  00      
00093d  00                DCB      0
00093e  00                DCB      0
00093f  00                DCB      0
                  |L1.2368|
000940  75767a5f          DCB      "uvz_",0
000944  00      
000945  00                DCB      0
000946  00                DCB      0
000947  00                DCB      0
                  |L1.2376|
000948  74767a5f          DCB      "tvz_",0
00094c  00      
00094d  00                DCB      0
00094e  00                DCB      0
00094f  00                DCB      0
                  |L1.2384|
000950  74736967          DCB      "tsign_",0
000954  6e5f00  
000957  00                DCB      0
                  |L1.2392|
000958  746d6178          DCB      "tmax_",0
00095c  5f00    
00095e  00                DCB      0
00095f  00                DCB      0
                  |L1.2400|
000960  747a6173          DCB      "tzas_",0
000964  5f00    
000966  00                DCB      0
000967  00                DCB      0
                  |L1.2408|
000968  61707631          DCB      "apv1_on_",0
00096c  5f6f6e5f
000970  00      
000971  00                DCB      0
000972  00                DCB      0
000973  00                DCB      0
                  |L1.2420|
000974  61707632          DCB      "apv2_on_",0
000978  5f6f6e5f
00097c  00      
00097d  00                DCB      0
00097e  00                DCB      0
00097f  00                DCB      0
                  |L1.2432|
000980  61707632          DCB      "apv2_time_",0
000984  5f74696d
000988  655f00  
00098b  00                DCB      0
                  |L1.2444|
00098c  7530625f          DCB      "u0b_",0
000990  00      
000991  00                DCB      0
000992  00                DCB      0
000993  00                DCB      0
                  |L1.2452|
000994  74626174          DCB      "tbat_",0
000998  5f00    
00099a  00                DCB      0
00099b  00                DCB      0
                  |L1.2460|
00099c  696b625f          DCB      "ikb_",0
0009a0  00      
0009a1  00                DCB      0
0009a2  00                DCB      0
0009a3  00                DCB      0
                  |L1.2468|
0009a4  79656172          DCB      "year_",0
0009a8  5f00    
0009aa  00                DCB      0
0009ab  00                DCB      0
                  |L1.2476|
                          DCD      0x40024000
                  |L1.2480|
0009b0  6d6f6e74          DCB      "month_",0
0009b4  685f00  
0009b7  00                DCB      0
                  |L1.2488|
0009b8  6461795f          DCB      "day_",0
0009bc  00      
0009bd  00                DCB      0
0009be  00                DCB      0
0009bf  00                DCB      0
                  |L1.2496|
0009c0  686f7572          DCB      "hour_",0
0009c4  5f00    
0009c6  00                DCB      0
0009c7  00                DCB      0
                  |L1.2504|
0009c8  6d696e75          DCB      "minut_",0
0009cc  745f00  
0009cf  00                DCB      0
                  |L1.2512|
0009d0  a1fd              ADR      r1,|L1.3528|
0009d2  9800              LDR      r0,[sp,#0]            ;476
0009d4  f7fffffe          BL       strstr
0009d8  b150              CBZ      r0,|L1.2544|
0009da  9801              LDR      r0,[sp,#4]            ;478
0009dc  4afc              LDR      r2,|L1.3536|
0009de  1d80              ADDS     r0,r0,#6              ;478
0009e0  f2af5150          ADR      r1,|L1.1172|
0009e4  f7fffffe          BL       __0sscanf
0009e8  6820              LDR      r0,[r4,#0]            ;479  ; web_param_input
0009ea  f8860020          STRB     r0,[r6,#0x20]         ;479
0009ee  e423              B        |L1.568|
                  |L1.2544|
0009f0  a1f8              ADR      r1,|L1.3540|
0009f2  9800              LDR      r0,[sp,#0]            ;482
0009f4  f7fffffe          BL       strstr
0009f8  b1b0              CBZ      r0,|L1.2600|
0009fa  9801              LDR      r0,[sp,#4]            ;484
0009fc  4af4              LDR      r2,|L1.3536|
0009fe  1d80              ADDS     r0,r0,#6              ;484
000a00  f2af5170          ADR      r1,|L1.1172|
000a04  f7fffffe          BL       __0sscanf
000a08  6820              LDR      r0,[r4,#0]            ;485  ; web_param_input
000a0a  f44f720d          MOV      r2,#0x234             ;485
000a0e  f0100fff          TST      r0,#0xff              ;485
000a12  d004              BEQ      |L1.2590|
000a14  2100              MOVS     r1,#0                 ;485
000a16  4610              MOV      r0,r2                 ;485
000a18  f7fffffe          BL       lc640_write_int
000a1c  e40c              B        |L1.568|
                  |L1.2590|
000a1e  2100              MOVS     r1,#0                 ;486
000a20  4610              MOV      r0,r2                 ;486
000a22  f7fffffe          BL       lc640_write_int
000a26  e407              B        |L1.568|
                  |L1.2600|
000a28  a1ed              ADR      r1,|L1.3552|
000a2a  9800              LDR      r0,[sp,#0]            ;488
000a2c  f7fffffe          BL       strstr
000a30  b1b0              CBZ      r0,|L1.2656|
000a32  9801              LDR      r0,[sp,#4]            ;490
000a34  4ae6              LDR      r2,|L1.3536|
000a36  1d80              ADDS     r0,r0,#6              ;490
000a38  f2af51a8          ADR      r1,|L1.1172|
000a3c  f7fffffe          BL       __0sscanf
000a40  6820              LDR      r0,[r4,#0]            ;491  ; web_param_input
000a42  f240223e          MOV      r2,#0x23e             ;491
000a46  f0100fff          TST      r0,#0xff              ;491
000a4a  d004              BEQ      |L1.2646|
000a4c  2100              MOVS     r1,#0                 ;491
000a4e  4610              MOV      r0,r2                 ;491
000a50  f7fffffe          BL       lc640_write_int
000a54  e42b              B        |L1.686|
                  |L1.2646|
000a56  2100              MOVS     r1,#0                 ;492
000a58  4610              MOV      r0,r2                 ;492
000a5a  f7fffffe          BL       lc640_write_int
000a5e  e426              B        |L1.686|
                  |L1.2656|
000a60  a1e2              ADR      r1,|L1.3564|
000a62  9800              LDR      r0,[sp,#0]            ;494
000a64  f7fffffe          BL       strstr
000a68  b1b0              CBZ      r0,|L1.2712|
000a6a  9801              LDR      r0,[sp,#4]            ;496
000a6c  4ad8              LDR      r2,|L1.3536|
000a6e  1d80              ADDS     r0,r0,#6              ;496
000a70  f2af51e0          ADR      r1,|L1.1172|
000a74  f7fffffe          BL       __0sscanf
000a78  6820              LDR      r0,[r4,#0]            ;497  ; web_param_input
000a7a  f44f7212          MOV      r2,#0x248             ;497
000a7e  f0100fff          TST      r0,#0xff              ;497
000a82  d004              BEQ      |L1.2702|
000a84  2100              MOVS     r1,#0                 ;497
000a86  4610              MOV      r0,r2                 ;497
000a88  f7fffffe          BL       lc640_write_int
000a8c  e40f              B        |L1.686|
                  |L1.2702|
000a8e  2100              MOVS     r1,#0                 ;498
000a90  4610              MOV      r0,r2                 ;498
000a92  f7fffffe          BL       lc640_write_int
000a96  e40a              B        |L1.686|
                  |L1.2712|
000a98  a1d7              ADR      r1,|L1.3576|
000a9a  9800              LDR      r0,[sp,#0]            ;500
000a9c  f7fffffe          BL       strstr
000aa0  b1b0              CBZ      r0,|L1.2768|
000aa2  9801              LDR      r0,[sp,#4]            ;502
000aa4  4aca              LDR      r2,|L1.3536|
000aa6  1d80              ADDS     r0,r0,#6              ;502
000aa8  f2af6118          ADR      r1,|L1.1172|
000aac  f7fffffe          BL       __0sscanf
000ab0  6820              LDR      r0,[r4,#0]            ;503  ; web_param_input
000ab2  f2402252          MOV      r2,#0x252             ;503
000ab6  f0100fff          TST      r0,#0xff              ;503
000aba  d004              BEQ      |L1.2758|
000abc  2100              MOVS     r1,#0                 ;503
000abe  4610              MOV      r0,r2                 ;503
000ac0  f7fffffe          BL       lc640_write_int
000ac4  e41a              B        |L1.764|
                  |L1.2758|
000ac6  2100              MOVS     r1,#0                 ;504
000ac8  4610              MOV      r0,r2                 ;504
000aca  f7fffffe          BL       lc640_write_int
000ace  e415              B        |L1.764|
                  |L1.2768|
000ad0  a1cc              ADR      r1,|L1.3588|
000ad2  9800              LDR      r0,[sp,#0]            ;506
000ad4  f7fffffe          BL       strstr
000ad8  b1c0              CBZ      r0,|L1.2828|
000ada  9801              LDR      r0,[sp,#4]            ;508
000adc  4abc              LDR      r2,|L1.3536|
000ade  1d80              ADDS     r0,r0,#6              ;508
000ae0  f2af6150          ADR      r1,|L1.1172|
000ae4  f7fffffe          BL       __0sscanf
000ae8  6820              LDR      r0,[r4,#0]            ;509  ; web_param_input
000aea  f240223a          MOV      r2,#0x23a             ;509
000aee  f0100fff          TST      r0,#0xff              ;509
000af2  d006              BEQ      |L1.2818|
000af4  2100              MOVS     r1,#0                 ;509
000af6  4610              MOV      r0,r2                 ;509
000af8  f7fffffe          BL       lc640_write_int
000afc  e420              B        |L1.832|
                  |L1.2814|
000afe  e229              B        |L1.3924|
                  |L1.2816|
000b00  e230              B        |L1.3940|
                  |L1.2818|
000b02  2101              MOVS     r1,#1                 ;510
000b04  4610              MOV      r0,r2                 ;510
000b06  f7fffffe          BL       lc640_write_int
000b0a  e419              B        |L1.832|
                  |L1.2828|
000b0c  a1c0              ADR      r1,|L1.3600|
000b0e  9800              LDR      r0,[sp,#0]            ;512
000b10  f7fffffe          BL       strstr
000b14  b1b0              CBZ      r0,|L1.2884|
000b16  9801              LDR      r0,[sp,#4]            ;514
000b18  4aad              LDR      r2,|L1.3536|
000b1a  1d80              ADDS     r0,r0,#6              ;514
000b1c  f2af618c          ADR      r1,|L1.1172|
000b20  f7fffffe          BL       __0sscanf
000b24  6820              LDR      r0,[r4,#0]            ;515  ; web_param_input
000b26  f44f7211          MOV      r2,#0x244             ;515
000b2a  f0100fff          TST      r0,#0xff              ;515
000b2e  d004              BEQ      |L1.2874|
000b30  2100              MOVS     r1,#0                 ;515
000b32  4610              MOV      r0,r2                 ;515
000b34  f7fffffe          BL       lc640_write_int
000b38  e414              B        |L1.868|
                  |L1.2874|
000b3a  2101              MOVS     r1,#1                 ;516
000b3c  4610              MOV      r0,r2                 ;516
000b3e  f7fffffe          BL       lc640_write_int
000b42  e40f              B        |L1.868|
                  |L1.2884|
000b44  a1b5              ADR      r1,|L1.3612|
000b46  9800              LDR      r0,[sp,#0]            ;518
000b48  f7fffffe          BL       strstr
000b4c  b1b0              CBZ      r0,|L1.2940|
000b4e  9801              LDR      r0,[sp,#4]            ;520
000b50  4a9f              LDR      r2,|L1.3536|
000b52  1d80              ADDS     r0,r0,#6              ;520
000b54  f2af61c4          ADR      r1,|L1.1172|
000b58  f7fffffe          BL       __0sscanf
000b5c  6820              LDR      r0,[r4,#0]            ;521  ; web_param_input
000b5e  f240224e          MOV      r2,#0x24e             ;521
000b62  f0100fff          TST      r0,#0xff              ;521
000b66  d004              BEQ      |L1.2930|
000b68  2100              MOVS     r1,#0                 ;521
000b6a  4610              MOV      r0,r2                 ;521
000b6c  f7fffffe          BL       lc640_write_int
000b70  e40a              B        |L1.904|
                  |L1.2930|
000b72  2101              MOVS     r1,#1                 ;522
000b74  4610              MOV      r0,r2                 ;522
000b76  f7fffffe          BL       lc640_write_int
000b7a  e405              B        |L1.904|
                  |L1.2940|
000b7c  a1aa              ADR      r1,|L1.3624|
000b7e  9800              LDR      r0,[sp,#0]            ;525
000b80  f7fffffe          BL       strstr
000b84  b1b0              CBZ      r0,|L1.2996|
000b86  9801              LDR      r0,[sp,#4]            ;527
000b88  4a91              LDR      r2,|L1.3536|
000b8a  1d80              ADDS     r0,r0,#6              ;527
000b8c  f2af61fc          ADR      r1,|L1.1172|
000b90  f7fffffe          BL       __0sscanf
000b94  6820              LDR      r0,[r4,#0]            ;528  ; web_param_input
000b96  f44f7216          MOV      r2,#0x258             ;528
000b9a  f0100fff          TST      r0,#0xff              ;528
000b9e  d004              BEQ      |L1.2986|
000ba0  2100              MOVS     r1,#0                 ;528
000ba2  4610              MOV      r0,r2                 ;528
000ba4  f7fffffe          BL       lc640_write_int
000ba8  e412              B        |L1.976|
                  |L1.2986|
000baa  2101              MOVS     r1,#1                 ;529
000bac  4610              MOV      r0,r2                 ;529
000bae  f7fffffe          BL       lc640_write_int
000bb2  e40d              B        |L1.976|
                  |L1.2996|
000bb4  a19f              ADR      r1,|L1.3636|
000bb6  9800              LDR      r0,[sp,#0]            ;532
000bb8  f7fffffe          BL       strstr
000bbc  b1b0              CBZ      r0,|L1.3052|
000bbe  9801              LDR      r0,[sp,#4]            ;534
000bc0  4a83              LDR      r2,|L1.3536|
000bc2  1d80              ADDS     r0,r0,#6              ;534
000bc4  f2af7134          ADR      r1,|L1.1172|
000bc8  f7fffffe          BL       __0sscanf
000bcc  6820              LDR      r0,[r4,#0]            ;535  ; web_param_input
000bce  f44f720e          MOV      r2,#0x238             ;535
000bd2  f0100fff          TST      r0,#0xff              ;535
000bd6  d004              BEQ      |L1.3042|
000bd8  2100              MOVS     r1,#0                 ;535
000bda  4610              MOV      r0,r2                 ;535
000bdc  f7fffffe          BL       lc640_write_int
000be0  e407              B        |L1.1010|
                  |L1.3042|
000be2  2101              MOVS     r1,#1                 ;536
000be4  4610              MOV      r0,r2                 ;536
000be6  f7fffffe          BL       lc640_write_int
000bea  e483              B        |L1.1268|
                  |L1.3052|
000bec  a194              ADR      r1,|L1.3648|
000bee  9800              LDR      r0,[sp,#0]            ;538
000bf0  f7fffffe          BL       strstr
000bf4  b1b0              CBZ      r0,|L1.3108|
000bf6  9801              LDR      r0,[sp,#4]            ;540
000bf8  4a75              LDR      r2,|L1.3536|
000bfa  1d80              ADDS     r0,r0,#6              ;540
000bfc  f2af716c          ADR      r1,|L1.1172|
000c00  f7fffffe          BL       __0sscanf
000c04  6820              LDR      r0,[r4,#0]            ;541  ; web_param_input
000c06  f2402242          MOV      r2,#0x242             ;541
000c0a  f0100fff          TST      r0,#0xff              ;541
000c0e  d004              BEQ      |L1.3098|
000c10  2100              MOVS     r1,#0                 ;541
000c12  4610              MOV      r0,r2                 ;541
000c14  f7fffffe          BL       lc640_write_int
000c18  e46c              B        |L1.1268|
                  |L1.3098|
000c1a  2101              MOVS     r1,#1                 ;542
000c1c  4610              MOV      r0,r2                 ;542
000c1e  f7fffffe          BL       lc640_write_int
000c22  e467              B        |L1.1268|
                  |L1.3108|
000c24  a189              ADR      r1,|L1.3660|
000c26  9800              LDR      r0,[sp,#0]            ;544
000c28  f7fffffe          BL       strstr
000c2c  b1b0              CBZ      r0,|L1.3164|
000c2e  9801              LDR      r0,[sp,#4]            ;546
000c30  4a67              LDR      r2,|L1.3536|
000c32  1d80              ADDS     r0,r0,#6              ;546
000c34  f2af71a4          ADR      r1,|L1.1172|
000c38  f7fffffe          BL       __0sscanf
000c3c  6820              LDR      r0,[r4,#0]            ;547  ; web_param_input
000c3e  f44f7213          MOV      r2,#0x24c             ;547
000c42  f0100fff          TST      r0,#0xff              ;547
000c46  d004              BEQ      |L1.3154|
000c48  2100              MOVS     r1,#0                 ;547
000c4a  4610              MOV      r0,r2                 ;547
000c4c  f7fffffe          BL       lc640_write_int
000c50  e450              B        |L1.1268|
                  |L1.3154|
000c52  2101              MOVS     r1,#1                 ;548
000c54  4610              MOV      r0,r2                 ;548
000c56  f7fffffe          BL       lc640_write_int
000c5a  e44b              B        |L1.1268|
                  |L1.3164|
000c5c  a17e              ADR      r1,|L1.3672|
000c5e  9800              LDR      r0,[sp,#0]            ;550
000c60  f7fffffe          BL       strstr
000c64  b1b0              CBZ      r0,|L1.3220|
000c66  9801              LDR      r0,[sp,#4]            ;552
000c68  4a59              LDR      r2,|L1.3536|
000c6a  1d80              ADDS     r0,r0,#6              ;552
000c6c  f2af71dc          ADR      r1,|L1.1172|
000c70  f7fffffe          BL       __0sscanf
000c74  6820              LDR      r0,[r4,#0]            ;553  ; web_param_input
000c76  f2402256          MOV      r2,#0x256             ;553
000c7a  f0100fff          TST      r0,#0xff              ;553
000c7e  d004              BEQ      |L1.3210|
000c80  2100              MOVS     r1,#0                 ;553
000c82  4610              MOV      r0,r2                 ;553
000c84  f7fffffe          BL       lc640_write_int
000c88  e434              B        |L1.1268|
                  |L1.3210|
000c8a  2101              MOVS     r1,#1                 ;554
000c8c  4610              MOV      r0,r2                 ;554
000c8e  f7fffffe          BL       lc640_write_int
000c92  e42f              B        |L1.1268|
                  |L1.3220|
000c94  a173              ADR      r1,|L1.3684|
000c96  9800              LDR      r0,[sp,#0]            ;556
000c98  f7fffffe          BL       strstr
000c9c  b168              CBZ      r0,|L1.3258|
000c9e  9801              LDR      r0,[sp,#4]            ;558
000ca0  4a4b              LDR      r2,|L1.3536|
000ca2  1d80              ADDS     r0,r0,#6              ;558
000ca4  f6af0114          ADR      r1,|L1.1172|
000ca8  f7fffffe          BL       __0sscanf
000cac  6820              LDR      r0,[r4,#0]            ;559  ; web_param_input
000cae  b201              SXTH     r1,r0                 ;559
000cb0  f44f70c5          MOV      r0,#0x18a             ;559
000cb4  f7fffffe          BL       lc640_write_int
000cb8  e41c              B        |L1.1268|
                  |L1.3258|
000cba  a16d              ADR      r1,|L1.3696|
000cbc  9800              LDR      r0,[sp,#0]            ;561
000cbe  f7fffffe          BL       strstr
000cc2  b198              CBZ      r0,|L1.3308|
000cc4  496d              LDR      r1,|L1.3708|
000cc6  f04f0005          MOV      r0,#5                 ;563
000cca  8008              STRH     r0,[r1,#0]            ;563
000ccc  486c              LDR      r0,|L1.3712|
000cce  f04f0158          MOV      r1,#0x58              ;564
000cd2  7001              STRB     r1,[r0,#0]            ;564
000cd4  f04f0193          MOV      r1,#0x93              ;565
000cd8  7041              STRB     r1,[r0,#1]            ;565
000cda  f04f01fe          MOV      r1,#0xfe              ;566
000cde  7081              STRB     r1,[r0,#2]            ;566
000ce0  f04f01e6          MOV      r1,#0xe6              ;567
000ce4  70c1              STRB     r1,[r0,#3]            ;567
000ce6  f7fffffe          BL       sntp_requ
000cea  e415              B        |L1.1304|
                  |L1.3308|
000cec  a165              ADR      r1,|L1.3716|
000cee  9800              LDR      r0,[sp,#0]            ;571
000cf0  f7fffffe          BL       strstr
000cf4  b1b0              CBZ      r0,|L1.3364|
000cf6  9801              LDR      r0,[sp,#4]            ;573
000cf8  4a35              LDR      r2,|L1.3536|
000cfa  1d80              ADDS     r0,r0,#6              ;573
000cfc  f6af016c          ADR      r1,|L1.1172|
000d00  f7fffffe          BL       __0sscanf
000d04  6820              LDR      r0,[r4,#0]            ;574  ; web_param_input
000d06  f2411278          MOV      r2,#0x1178            ;574
000d0a  f0100fff          TST      r0,#0xff              ;574
000d0e  d004              BEQ      |L1.3354|
000d10  2100              MOVS     r1,#0                 ;574
000d12  4610              MOV      r0,r2                 ;574
000d14  f7fffffe          BL       lc640_write_int
000d18  e410              B        |L1.1340|
                  |L1.3354|
000d1a  2101              MOVS     r1,#1                 ;575
000d1c  4610              MOV      r0,r2                 ;575
000d1e  f7fffffe          BL       lc640_write_int
000d22  e40b              B        |L1.1340|
                  |L1.3364|
000d24  a15a              ADR      r1,|L1.3728|
000d26  9800              LDR      r0,[sp,#0]            ;577
000d28  f7fffffe          BL       strstr
000d2c  b308              CBZ      r0,|L1.3442|
000d2e  9801              LDR      r0,[sp,#4]            ;579
000d30  4a27              LDR      r2,|L1.3536|
000d32  1d80              ADDS     r0,r0,#6              ;579
000d34  f6af01a4          ADR      r1,|L1.1172|
000d38  f7fffffe          BL       __0sscanf
000d3c  6820              LDR      r0,[r4,#0]            ;580  ; web_param_input
000d3e  b2c1              UXTB     r1,r0                 ;580
000d40  f44f508c          MOV      r0,#0x1180            ;580
000d44  f7fffffe          BL       lc640_write_int
000d48  6820              LDR      r0,[r4,#0]            ;581  ; web_param_input
000d4a  f3c02107          UBFX     r1,r0,#8,#8           ;581
000d4e  f241107e          MOV      r0,#0x117e            ;581
000d52  f7fffffe          BL       lc640_write_int
000d56  6820              LDR      r0,[r4,#0]            ;582  ; web_param_input
000d58  f3c04107          UBFX     r1,r0,#16,#8          ;582
000d5c  f241107c          MOV      r0,#0x117c            ;582
000d60  f7fffffe          BL       lc640_write_int
000d64  6820              LDR      r0,[r4,#0]            ;583  ; web_param_input
000d66  0e01              LSRS     r1,r0,#24             ;583
000d68  f241107a          MOV      r0,#0x117a            ;583
000d6c  f7fffffe          BL       lc640_write_int
000d70  e417              B        |L1.1442|
                  |L1.3442|
000d72  a14a              ADR      r1,|L1.3740|
000d74  9800              LDR      r0,[sp,#0]            ;585
000d76  f7fffffe          BL       strstr
000d7a  b160              CBZ      r0,|L1.3478|
000d7c  9801              LDR      r0,[sp,#4]            ;587
000d7e  4a14              LDR      r2,|L1.3536|
000d80  1d80              ADDS     r0,r0,#6              ;587
000d82  f6af01f0          ADR      r1,|L1.1172|
000d86  f7fffffe          BL       __0sscanf
000d8a  6820              LDR      r0,[r4,#0]            ;588  ; web_param_input
000d8c  b2c1              UXTB     r1,r0                 ;588
000d8e  2098              MOVS     r0,#0x98              ;588
000d90  f7fffffe          BL       lc640_write_int
000d94  e405              B        |L1.1442|
                  |L1.3478|
000d96  a143              ADR      r1,|L1.3748|
000d98  9800              LDR      r0,[sp,#0]            ;590
000d9a  f7fffffe          BL       strstr
000d9e  b188              CBZ      r0,|L1.3524|
000da0  9801              LDR      r0,[sp,#4]            ;592
000da2  4a0b              LDR      r2,|L1.3536|
000da4  1d80              ADDS     r0,r0,#6              ;592
000da6  f6af1114          ADR      r1,|L1.1172|
000daa  f7fffffe          BL       __0sscanf
000dae  6820              LDR      r0,[r4,#0]            ;593  ; web_param_input
000db0  f2411202          MOV      r2,#0x1102            ;593
000db4  f0100fff          TST      r0,#0xff              ;593
000db8  d07a              BEQ      |L1.3760|
000dba  2103              MOVS     r1,#3                 ;593
000dbc  4610              MOV      r0,r2                 ;593
000dbe  f7fffffe          BL       lc640_write_int
000dc2  e412              B        |L1.1514|
                  |L1.3524|
000dc4  e079              B        |L1.3770|
000dc6  e073              B        |L1.3760|
                  |L1.3528|
000dc8  73656375          DCB      "secund_",0
000dcc  6e645f00
                  |L1.3536|
                          DCD      web_param_input
                  |L1.3540|
000dd4  736b3161          DCB      "sk1avsign_",0
000dd8  76736967
000ddc  6e5f00  
000ddf  00                DCB      0
                  |L1.3552|
000de0  736b3261          DCB      "sk2avsign_",0
000de4  76736967
000de8  6e5f00  
000deb  00                DCB      0
                  |L1.3564|
000dec  736b3361          DCB      "sk3avsign_",0
000df0  76736967
000df4  6e5f00  
000df7  00                DCB      0
                  |L1.3576|
000df8  736b3461          DCB      "sk4avsign_",0
000dfc  76736967
000e00  6e5f00  
000e03  00                DCB      0
                  |L1.3588|
000e04  736b316c          DCB      "sk1lcden_",0
000e08  6364656e
000e0c  5f00    
000e0e  00                DCB      0
000e0f  00                DCB      0
                  |L1.3600|
000e10  736b326c          DCB      "sk2lcden_",0
000e14  6364656e
000e18  5f00    
000e1a  00                DCB      0
000e1b  00                DCB      0
                  |L1.3612|
000e1c  736b336c          DCB      "sk3lcden_",0
000e20  6364656e
000e24  5f00    
000e26  00                DCB      0
000e27  00                DCB      0
                  |L1.3624|
000e28  736b346c          DCB      "sk4lcden_",0
000e2c  6364656e
000e30  5f00    
000e32  00                DCB      0
000e33  00                DCB      0
                  |L1.3636|
000e34  736b317a          DCB      "sk1zven_",0
000e38  76656e5f
000e3c  00      
000e3d  00                DCB      0
000e3e  00                DCB      0
000e3f  00                DCB      0
                  |L1.3648|
000e40  736b327a          DCB      "sk2zven_",0
000e44  76656e5f
000e48  00      
000e49  00                DCB      0
000e4a  00                DCB      0
000e4b  00                DCB      0
                  |L1.3660|
000e4c  736b337a          DCB      "sk3zven_",0
000e50  76656e5f
000e54  00      
000e55  00                DCB      0
000e56  00                DCB      0
000e57  00                DCB      0
                  |L1.3672|
000e58  736b347a          DCB      "sk4zven_",0
000e5c  76656e5f
000e60  00      
000e61  00                DCB      0
000e62  00                DCB      0
000e63  00                DCB      0
                  |L1.3684|
000e64  736e7470          DCB      "sntp_gmt_",0
000e68  5f676d74
000e6c  5f00    
000e6e  00                DCB      0
000e6f  00                DCB      0
                  |L1.3696|
000e70  736e7470          DCB      "sntp_exe_",0
000e74  5f657865
000e78  5f00    
000e7a  00                DCB      0
000e7b  00                DCB      0
                  |L1.3708|
                          DCD      time_sinc_hndl_req_cnt
                  |L1.3712|
                          DCD      Rem_IP
                  |L1.3716|
000e84  736e7470          DCB      "sntp_src_",0
000e88  5f737263
000e8c  5f00    
000e8e  00                DCB      0
000e8f  00                DCB      0
                  |L1.3728|
000e90  736e7470          DCB      "sntp_ip_",0
000e94  5f69705f
000e98  00      
000e99  00                DCB      0
000e9a  00                DCB      0
000e9b  00                DCB      0
                  |L1.3740|
000e9c  6e756d69          DCB      "numist_",0
000ea0  73745f00
                  |L1.3748|
000ea4  6e756d70          DCB      "numphase_",0
000ea8  68617365
000eac  5f00    
000eae  00                DCB      0
000eaf  00                DCB      0
                  |L1.3760|
000eb0  2101              MOVS     r1,#1                 ;594
000eb2  4610              MOV      r0,r2                 ;594
000eb4  f7fffffe          BL       lc640_write_int
                  |L1.3768|
000eb8  e415              B        |L1.1766|
                  |L1.3770|
000eba  a1fc              ADR      r1,|L1.4780|
000ebc  9800              LDR      r0,[sp,#0]            ;596
000ebe  f7fffffe          BL       strstr
000ec2  b168              CBZ      r0,|L1.3808|
000ec4  9801              LDR      r0,[sp,#4]            ;598
000ec6  4afb              LDR      r2,|L1.4788|
000ec8  1d80              ADDS     r0,r0,#6              ;598
000eca  f6af2138          ADR      r1,|L1.1172|
000ece  f7fffffe          BL       __0sscanf
000ed2  6820              LDR      r0,[r4,#0]            ;599  ; web_param_input
000ed4  b201              SXTH     r1,r0                 ;599
000ed6  f44f7017          MOV      r0,#0x25c             ;599
000eda  f7fffffe          BL       lc640_write_int
000ede  e414              B        |L1.1802|
                  |L1.3808|
000ee0  a1f5              ADR      r1,|L1.4792|
000ee2  9800              LDR      r0,[sp,#0]            ;601
000ee4  f7fffffe          BL       strstr
000ee8  b168              CBZ      r0,|L1.3846|
000eea  9801              LDR      r0,[sp,#4]            ;603
000eec  4af1              LDR      r2,|L1.4788|
000eee  1d80              ADDS     r0,r0,#6              ;603
000ef0  f6af2160          ADR      r1,|L1.1172|
000ef4  f7fffffe          BL       __0sscanf
000ef8  6820              LDR      r0,[r4,#0]            ;604  ; web_param_input
000efa  b201              SXTH     r1,r0                 ;604
000efc  f240205e          MOV      r0,#0x25e             ;604
000f00  f7fffffe          BL       lc640_write_int
000f04  e413              B        |L1.1838|
                  |L1.3846|
000f06  a1ee              ADR      r1,|L1.4800|
000f08  9800              LDR      r0,[sp,#0]            ;606
000f0a  f7fffffe          BL       strstr
000f0e  b168              CBZ      r0,|L1.3884|
000f10  9801              LDR      r0,[sp,#4]            ;608
000f12  4ae8              LDR      r2,|L1.4788|
000f14  1d80              ADDS     r0,r0,#6              ;608
000f16  f6af2184          ADR      r1,|L1.1172|
000f1a  f7fffffe          BL       __0sscanf
000f1e  6820              LDR      r0,[r4,#0]            ;609  ; web_param_input
000f20  b201              SXTH     r1,r0                 ;609
000f22  f44f701a          MOV      r0,#0x268             ;609
000f26  f7fffffe          BL       lc640_write_int
000f2a  e415              B        |L1.1880|
                  |L1.3884|
000f2c  a1e7              ADR      r1,|L1.4812|
000f2e  9800              LDR      r0,[sp,#0]            ;611
000f30  f7fffffe          BL       strstr
000f34  2800              CMP      r0,#0                 ;611
000f36  d0bf              BEQ      |L1.3768|
000f38  9801              LDR      r0,[sp,#4]            ;613
000f3a  4ade              LDR      r2,|L1.4788|
000f3c  1d80              ADDS     r0,r0,#6              ;613
000f3e  f6af21ac          ADR      r1,|L1.1172|
000f42  f7fffffe          BL       __0sscanf
000f46  6820              LDR      r0,[r4,#0]            ;614  ; web_param_input
000f48  b201              SXTH     r1,r0                 ;614
000f4a  f44f5088          MOV      r0,#0x1100            ;614
000f4e  f7fffffe          BL       lc640_write_int
000f52  e406              B        |L1.1890|
                  |L1.3924|
000f54  f1090103          ADD      r1,r9,#3              ;629
000f58  a806              ADD      r0,sp,#0x18           ;629
000f5a  f7fffffe          BL       str_copy
000f5e  f0450501          ORR      r5,r5,#1              ;630
000f62  e413              B        |L1.1932|
                  |L1.3940|
000f64  f1090104          ADD      r1,r9,#4              ;634
000f68  a803              ADD      r0,sp,#0xc            ;634
000f6a  f7fffffe          BL       str_copy
000f6e  f0450502          ORR      r5,r5,#2              ;635
000f72  e40b              B        |L1.1932|
;;;663    
                          ENDP

                  cgi_func PROC
;;;667    
;;;668    U16 cgi_func (U8 *env, U8 *buf, U16 buflen, U32 *pcgi) {
000f74  e92d4ff0          PUSH     {r4-r11,lr}
000f78  b087              SUB      sp,sp,#0x1c
000f7a  4604              MOV      r4,r0
000f7c  460f              MOV      r7,r1
000f7e  4690              MOV      r8,r2
000f80  461e              MOV      r6,r3
;;;669      /* This function is called by HTTP server script interpreter to make a    */
;;;670      /* formated output for 'stdout'. It returns the number of bytes written   */
;;;671      /* to the output buffer. Hi-bit of return value (len is or-ed with 0x8000)*/
;;;672      /* is a repeat flag for the system script interpreter. If this bit is set */
;;;673      /* to 1, the system will call the 'cgi_func()' again for the same script  */
;;;674      /* line with parameter 'pcgi' pointing to a 4-byte buffer. This buffer    */
;;;675      /* can be used for storing different status variables for this function.  */
;;;676      /* It is set to 0 by HTTP Server on first call and is not altered by      */
;;;677      /* HTTP server for repeated calls. This function should NEVER write more  */
;;;678      /* than 'buflen' bytes to the buffer.                                     */
;;;679      /* Parameters:                                                            */
;;;680      /*   env    - environment variable string                                 */
;;;681      /*   buf    - HTTP transmit buffer                                        */
;;;682      /*   buflen - length of this buffer (500-1400 bytes - depends on MSS)     */
;;;683      /*   pcgi   - pointer to session local buffer used for repeated loops     */
;;;684      /*            This is a U32 variable - size is 4 bytes. Value is:         */
;;;685      /*            - on 1st call = 0                                           */
;;;686      /*            - 2nd call    = as set by this function on first call       */
;;;687      TCP_INFO *tsoc;
;;;688      U32 len = 0;
000f82  f04f0500          MOV      r5,#0
;;;689      U8 id, *lang;
;;;690      static U32 adv;
;;;691      char temp;
;;;692      switch (env[0]) {
;;;693        /* Analyze the environment string. It is the script 'c' line starting */
;;;694        /* at position 2. What you write to the script file is returned here. */
;;;695    
;;;696    	case 'a':
;;;697    		// 
;;;698    		switch (env[1]) {
;;;699    			case '0':
;;;700    				switch (env[2]) {
;;;701    					case '1':
;;;702    						len = sprintf((char *)buf,(const char *)&env[4],"normal");
;;;703    						break;
;;;704    			        case '2':
;;;705    			          	len = sprintf((char *)buf,(const char *)&env[4],pal_cyr_coder("  1"));
;;;706    						break;
;;;707    				}
;;;708    		  		break;
;;;709    		}
;;;710    		break;
;;;711    
;;;712        case 'b':
;;;713    		//
;;;714    		switch (env[1]) {
;;;715    			case '1':
;;;716    				len = sprintf((char *)buf,(const char *)&env[3],http_tm_bat_output(0));
;;;717    		  		break;
;;;718    			case '2':
;;;719    				len = sprintf((char *)buf,(const char *)&env[3],http_tm_bat_output(1));
;;;720    		  		break;
;;;721    		}
;;;722    		break;
;;;723    
;;;724        case 'c':
;;;725          /* TCP status - file 'tcp.cgi' */
;;;726          while ((len + 150) < buflen) {
;;;727            tsoc = &tcp_socket[MYBUF(pcgi)->xcnt];
;;;728            MYBUF(pcgi)->xcnt++;
;;;729            /* 'sprintf' format string is defined here. */
;;;730            len += sprintf((char *)(buf+len),"<tr align=\"center\">");
;;;731            if (tsoc->State <= TCP_STATE_CLOSED) {
;;;732              len += sprintf ((char *)(buf+len),
;;;733                              "<td>%d</td><td>%s</td><td>-</td><td>-</td>"
;;;734                              "<td>-</td><td>-</td></tr>\r\n",
;;;735                              MYBUF(pcgi)->xcnt,state[tsoc->State]);
;;;736            }
;;;737            else if (tsoc->State == TCP_STATE_LISTEN) {
;;;738              len += sprintf ((char *)(buf+len),
;;;739                              "<td>%d</td><td>%s</td><td>-</td><td>-</td>"
;;;740                              "<td>%d</td><td>-</td></tr>\r\n",
;;;741                              MYBUF(pcgi)->xcnt,state[tsoc->State],tsoc->LocPort);
;;;742            }
;;;743            else {
;;;744              len += sprintf ((char *)(buf+len),
;;;745                              "<td>%d</td><td>%s</td><td>%d.%d.%d.%d</td>"
;;;746                              "<td>%d</td><td>%d</td><td>%d</td></tr>\r\n",
;;;747                              MYBUF(pcgi)->xcnt,state[tsoc->State],
;;;748                              tsoc->RemIpAdr[0],tsoc->RemIpAdr[1],
;;;749                              tsoc->RemIpAdr[2],tsoc->RemIpAdr[3],
;;;750                              tsoc->RemPort,tsoc->LocPort,tsoc->AliveTimer);
;;;751            }
;;;752            /* Repeat for all TCP Sockets. */
;;;753            if (MYBUF(pcgi)->xcnt == tcp_NumSocks) {
;;;754              break;
;;;755            }
;;;756          }
;;;757          if (MYBUF(pcgi)->xcnt < tcp_NumSocks) {
;;;758            /* Hi bit is a repeat flag. */
;;;759            len |= 0x8000;
;;;760          }
;;;761          break;
;;;762    
;;;763    	case 'd':
;;;764    		//  
;;;765    		
;;;766    		switch (env[1]) {
;;;767    			case '0':
;;;768    				
;;;769    				switch (env[2]) {
;;;770    					case '1':
;;;771    						//len = sprintf((char *)buf,(const char *)&env[4],pal_cyr_coder("1?"));
;;;772    						if(AUSW_MAIN==24120)
;;;773    							{
;;;774    							if(NUMIST==2)			len = sprintf((char *)buf,(const char *)&env[4],pal_cyr_coder("220/24-120-2/4"));
;;;775    							else if(NUMIST==3)		len = sprintf((char *)buf,(const char *)&env[4],pal_cyr_coder("220/24-120-3/4"));
;;;776    							else					len = sprintf((char *)buf,(const char *)&env[4],pal_cyr_coder("220/24-120-4/4"));
;;;777    							}
;;;778    						else if(AUSW_MAIN==24210)
;;;779    							{
;;;780    							if(NUMIST==3)			len = sprintf((char *)buf,(const char *)&env[4],pal_cyr_coder("220/24-210-3/7"));
;;;781    							else if(NUMIST==4)		len = sprintf((char *)buf,(const char *)&env[4],pal_cyr_coder("220/24-210-4/7"));
;;;782    							else if(NUMIST==5)		len = sprintf((char *)buf,(const char *)&env[4],pal_cyr_coder("220/24-210-5/7"));
;;;783    							else if(NUMIST==6)		len = sprintf((char *)buf,(const char *)&env[4],pal_cyr_coder("220/24-210-6/7"));
;;;784    							else					len = sprintf((char *)buf,(const char *)&env[4],pal_cyr_coder("220/24-210-7/7"));
;;;785    							}
;;;786    						else if(AUSW_MAIN==4880)
;;;787    							{
;;;788    							if(NUMIST==3)			len = sprintf((char *)buf,(const char *)&env[4],pal_cyr_coder("220/48-80-3/4 "));
;;;789    							else					len = sprintf((char *)buf,(const char *)&env[4],pal_cyr_coder("220/48-80-4/4 "));
;;;790    							}
;;;791    
;;;792    						else if(AUSW_MAIN==4883)	len = sprintf((char *)buf,(const char *)&env[4],pal_cyr_coder("380/48-80-4/4 "));
;;;793    						else if(AUSW_MAIN==48123)	len = sprintf((char *)buf,(const char *)&env[4],pal_cyr_coder("380/48-120-4/4"));
;;;794    						else if(AUSW_MAIN==48123)	len = sprintf((char *)buf,(const char *)&env[4],pal_cyr_coder("380/48-120-4/4"));
;;;795    						else 						len = sprintf((char *)buf,(const char *)&env[4],pal_cyr_coder("220/48-120-4/4"));
;;;796    					break;
;;;797    			        case '2':
;;;798    			          	len = sprintf((char *)buf,(const char *)&env[4],AUSW_MAIN_NUMBER);
000f86  4bd4              LDR      r3,|L1.4824|
;;;799    					break;
;;;800    			        case '3':
;;;801    			          	len = sprintf((char *)buf,(const char *)&env[4],pal_cyr_coder(place_holder));
;;;802    					break;
;;;803    			        case '4':  	// 
;;;804    			          	len = sprintf((char *)buf,(const char *)&env[4],NUMBAT);
;;;805    					break;
;;;806    			        case '5':	// 
;;;807    						len = sprintf((char *)buf,(const char *)&env[4],NUMIST);
;;;808    					break;
;;;809    			        case '6':	// 
;;;810    			          	len = sprintf((char *)buf,(const char *)&env[4],NUMINV);
000f88  49d4              LDR      r1,|L1.4828|
;;;811    					break;
;;;812    			        case '7': 	// 
;;;813    			          	len = sprintf((char *)buf,(const char *)&env[4],NUMBYPASS);
;;;814    					break;
;;;815    			        case '8': 	//  
;;;816    			          	len = sprintf((char *)buf,(const char *)&env[4],NUMSK);
000f8a  4ad5              LDR      r2,|L1.4832|
000f8c  f8d3c000          LDR      r12,[r3,#0]           ;810
;;;817    					break;
;;;818    			        case '9': 	//   
;;;819    			          	len = sprintf((char *)buf,(const char *)&env[4],NUMDT);
000f90  f8dfa350          LDR      r10,|L1.4836|
000f94  f9b13000          LDRSH    r3,[r1,#0]            ;810
000f98  f9b2b000          LDRSH    r11,[r2,#0]           ;816
;;;820    					break;
;;;821    				}
;;;822    		  	break;
;;;823    		}
;;;824    	break;
;;;825    
;;;826        case 'e':
;;;827          /* Browser Language - file 'language.cgi' */
;;;828          lang = http_get_lang();
;;;829          if (strcmp ((const char *)lang, "en") == 0) {
;;;830            lang = "English";
;;;831          }
;;;832          else if (strcmp ((const char *)lang, "en-us") == 0) {
;;;833            lang = "English USA";
;;;834          }
;;;835          else if (strcmp ((const char *)lang, "en-gb") == 0) {
;;;836            lang = "English GB";
;;;837          }
;;;838          else if (strcmp ((const char *)lang, "de") == 0) {
;;;839            lang = "German";
;;;840          }
;;;841          else if (strcmp ((const char *)lang, "de-ch") == 0) {
;;;842            lang = "German CH";
;;;843          }
;;;844          else if (strcmp ((const char *)lang, "de-at") == 0) {
;;;845            lang = "German AT";
;;;846          }
;;;847          else if (strcmp ((const char *)lang, "fr") == 0) {
;;;848            lang = "French";
;;;849          }
;;;850          else if (strcmp ((const char *)lang, "sl") == 0) {
;;;851            lang = "Slovene";
;;;852          }
;;;853          else {
;;;854            lang = "Unknown";
;;;855          }
;;;856          len = sprintf((char *)buf,(const char *)&env[2],lang,http_get_lang());
;;;857          break;
;;;858    
;;;859        case 'f':
;;;860          /* LCD Module control - file 'lcd.cgi' */
;;;861          switch (env[2]) {
;;;862            case '1':
;;;863              /////len = sprintf((char *)buf,(const char *)&env[4],lcd_text[0]);
;;;864              break;
;;;865            case '2':
;;;866              /////len = sprintf((char *)buf,(const char *)&env[4],lcd_text[1]);
;;;867              break;
;;;868          }
;;;869          break;
;;;870    
;;;871    	case 'g':
;;;872          /* AD Input - file 'ad.cgi' */
;;;873    		switch (env[2]) {
;;;874            case '1':
;;;875              //adv = web_cnt_main;
;;;876              len = sprintf((char *)buf,(const char *)&env[4],adv);
;;;877              break;
;;;878            case '2':
;;;879              len = sprintf((char *)buf,(const char *)&env[4],(float)adv*3.3/1024);
;;;880              break;
;;;881            case '3':
;;;882              adv = (adv * 100) / 1024;
;;;883              len = sprintf((char *)buf,(const char *)&env[4],adv);
;;;884              break;
;;;885          }
;;;886          break;
;;;887    
;;;888        case 'k':
;;;889    		// 
;;;890          	switch (env[1]) {
;;;891            	case '1':
;;;892              		len = sprintf((char *)buf,(const char *)&env[3],http_tm_sk_output(0));
;;;893              		break;
;;;894         		case '2':
;;;895              		len = sprintf((char *)buf,(const char *)&env[3],http_tm_sk_output(1));
;;;896              		break;
;;;897             	case '3':
;;;898              		len = sprintf((char *)buf,(const char *)&env[3],http_tm_sk_output(2));
;;;899              		break;
;;;900         		case '4':
;;;901              		len = sprintf((char *)buf,(const char *)&env[3],http_tm_sk_output(3));
;;;902              		break;
;;;903    		}
;;;904    		break;
;;;905    
;;;906        case 'm':
;;;907          	switch (env[1]) {
;;;908            	case '1':
;;;909              		len = sprintf((char *)buf,(const char *)&env[3],web_cnt_2hz);
;;;910              		break;
;;;911         		case '2':
;;;912              		len = sprintf((char *)buf,(const char *)&env[3],web_cnt_main);
;;;913              		break;
;;;914         		case '3':
;;;915    				if(psw_err)	len = sprintf((char *)buf,(const char *)&env[3],"error");
;;;916    				else 	   	len = sprintf((char *)buf,(const char *)&env[3],"good");
;;;917              		break;
;;;918    		}
;;;919    		break;
;;;920    
;;;921        case 'p':
;;;922    		// , 
;;;923          	switch (env[1]) {
;;;924            	case 'n':
;;;925              		len = sprintf((char *)buf,(const char *)&env[3],http_power_num_of_phases);
;;;926              		break;
;;;927         		case 'A':
;;;928              		len = sprintf((char *)buf,(const char *)&env[3],http_power_voltage_of_phase[0]);
;;;929              		break;
;;;930         		case 'B':
;;;931              		len = sprintf((char *)buf,(const char *)&env[3],http_power_voltage_of_phase[1]);
;;;932              		break;       		
;;;933         		case 'C':
;;;934              		len = sprintf((char *)buf,(const char *)&env[3],http_power_voltage_of_phase[2]);
;;;935              		break;
;;;936    			case 'F':
;;;937              		len = sprintf((char *)buf,(const char *)&env[3],http_power_frequncy);
;;;938              		break;
;;;939         		case 'S':
;;;940    				len = sprintf((char *)buf,(const char *)&env[3],http_power_status);
;;;941              		break;		}
;;;942    		break;
;;;943    
;;;944        case 't':
;;;945    		// 
;;;946    		switch (env[1]) {
;;;947            	case '1':
;;;948              		len = sprintf((char *)buf,(const char *)&env[3],http_tm_dt_output(0));
;;;949              		break;
;;;950         		case '2':
;;;951              		len = sprintf((char *)buf,(const char *)&env[3],http_tm_dt_output(1));
;;;952              		break;
;;;953             	case '3':
;;;954              		len = sprintf((char *)buf,(const char *)&env[3],http_tm_dt_output(2));
;;;955              		break;
;;;956     		}
;;;957    		break;
;;;958    
;;;959    	case 'l':
;;;960    		// 
;;;961    		switch (env[1]) {
;;;962    			case 'd':
;;;963              		len = sprintf((char *)buf,(const char *)&env[3],http_get_log_deep());
;;;964              		break;
;;;965    			case 'n':
;;;966              		len = sprintf((char *)buf,(const char *)&env[3],log_item_cnt);
;;;967    				uku_set_autorized=0;
;;;968    				break;
;;;969    			case '0':
;;;970    				if(NUMMAKB==0)	len = sprintf((char *)buf,(const char *)&env[3],http_get_log_rec(log_item_cnt));
000f9c  49d2              LDR      r1,|L1.4840|
000f9e  4ad4              LDR      r2,|L1.4848|
000fa0  7820              LDRB     r0,[r4,#0]            ;692
000fa2  f9bae000          LDRSH    lr,[r10,#0]           ;819
000fa6  f9b11000          LDRSH    r1,[r1,#0]
000faa  f8dfa340          LDR      r10,|L1.4844|
000fae  f9b22000          LDRSH    r2,[r2,#0]            ;774
000fb2  46a9              MOV      r9,r5                 ;688
000fb4  286c              CMP      r0,#0x6c              ;692
000fb6  d073              BEQ      |L1.4256|
000fb8  dc22              BGT      |L1.4096|
000fba  2864              CMP      r0,#0x64              ;692
000fbc  d071              BEQ      |L1.4258|
000fbe  dc16              BGT      |L1.4078|
000fc0  2861              CMP      r0,#0x61              ;692
000fc2  d033              BEQ      |L1.4140|
000fc4  dc0e              BGT      |L1.4068|
;;;971    				else
;;;972    					{
;;;973    					len = sprintf((char *)buf,(const char *)&env[3],http_get_log_rec(NUMINV));
;;;974    					}
;;;975    				//len = sprintf((char *)buf,(const char *)&env[3],pal_cyr_coder("10:15:24><26--2019><11:17:29  03--2019><  1:  "));
;;;976    				break;
;;;977    			case 'e':
;;;978    				len = sprintf((char *)buf,(const char *)&env[3],pal_cyr_coder("end"));
;;;979    				if(++log_item_cnt>=http_get_log_deep())log_item_cnt=0;
;;;980    				break;
;;;981    		}
;;;982    		
;;;983    		break;
;;;984    
;;;985        case 'o':
;;;986    		//
;;;987    		switch (env[1]) {
;;;988    			case 'u':
;;;989    				len = sprintf((char *)buf,(const char *)&env[3],load_U);
;;;990    		  		break;
;;;991    			case 'i':
;;;992    				len = sprintf((char *)buf,(const char *)&env[3],load_I);
;;;993    		  		break;
;;;994    		}
;;;995    		break;
;;;996    
;;;997        case 's':
;;;998    		/*   */
;;;999          	switch (env[1]) {
;;;1000           	case '0':
;;;1001             		switch (env[2]) {
;;;1002   		        	case '0':
;;;1003   		          		len = sprintf((char *)buf,(const char *)&env[4],http_tm_src_output(0));
;;;1004   		          		break;
;;;1005   		     		case '1':
;;;1006   		          		len = sprintf((char *)buf,(const char *)&env[4],http_tm_src_output(1));
;;;1007   		          		break;
;;;1008   		     		case '2':
;;;1009   		          		len = sprintf((char *)buf,(const char *)&env[4],http_tm_src_output(2));
;;;1010   		          		break;
;;;1011   		     		case '3':
;;;1012   		          		len = sprintf((char *)buf,(const char *)&env[4],http_tm_src_output(3));
;;;1013   		          		break;
;;;1014   		     		case '4':
;;;1015   		          		len = sprintf((char *)buf,(const char *)&env[4],http_tm_src_output(4));
;;;1016   		          		break;
;;;1017   		        	case '5':
;;;1018   		          		len = sprintf((char *)buf,(const char *)&env[4],http_tm_src_output(5));
;;;1019   		          		break;
;;;1020   		     		case '6':
;;;1021   		          		len = sprintf((char *)buf,(const char *)&env[4],http_tm_src_output(6));
;;;1022   		          		break;
;;;1023   		     		case '7':
;;;1024   		          		len = sprintf((char *)buf,(const char *)&env[4],http_tm_src_output(7));
;;;1025   		          		break;
;;;1026   		     		case '8':
;;;1027   		          		len = sprintf((char *)buf,(const char *)&env[4],http_tm_src_output(8));
;;;1028   		          		break;
;;;1029   		     		case '9':
;;;1030   		          		len = sprintf((char *)buf,(const char *)&env[4],http_tm_src_output(9));
;;;1031   		          		break;
;;;1032   				}
;;;1033   				break;
;;;1034           	case '1':
;;;1035             		switch (env[2]) {
;;;1036   		        	case '0':
;;;1037   		          		len = sprintf((char *)buf,(const char *)&env[4],http_tm_src_output(10));
;;;1038   		          		break;
;;;1039   		     		case '1':
;;;1040   		          		len = sprintf((char *)buf,(const char *)&env[4],http_tm_src_output(11));
;;;1041   		          		break;
;;;1042   		     		case '2':
;;;1043   		          		len = sprintf((char *)buf,(const char *)&env[4],http_tm_src_output(12));
;;;1044   		          		break;
;;;1045   		     		case '3':
;;;1046   		          		len = sprintf((char *)buf,(const char *)&env[4],http_tm_src_output(13));
;;;1047   		          		break;
;;;1048   		     		case '4':
;;;1049   		          		len = sprintf((char *)buf,(const char *)&env[4],http_tm_src_output(14));
;;;1050   		          		break;
;;;1051   		        	case '5':
;;;1052   		          		len = sprintf((char *)buf,(const char *)&env[4],http_tm_src_output(15));
;;;1053   		          		break;
;;;1054   		     		case '6':
;;;1055   		          		len = sprintf((char *)buf,(const char *)&env[4],http_tm_src_output(16));
;;;1056   		          		break;
;;;1057   		     		case '7':
;;;1058   		          		len = sprintf((char *)buf,(const char *)&env[4],http_tm_src_output(17));
;;;1059   		          		break;
;;;1060   		     		case '8':
;;;1061   		          		len = sprintf((char *)buf,(const char *)&env[4],http_tm_src_output(18));
;;;1062   		          		break;
;;;1063   		     		case '9':
;;;1064   		          		len = sprintf((char *)buf,(const char *)&env[4],http_tm_src_output(19));
;;;1065   		          		break;
;;;1066   				}
;;;1067   				break;
;;;1068   		}
;;;1069   		break;
;;;1070   
;;;1071       case 'w':
;;;1072   		/*     */
;;;1073   
;;;1074   
;;;1075         	switch (env[1]) {
;;;1076   		    case 'n':
;;;1077             		len = sprintf((char *)buf,(const char *)&env[3],64);
;;;1078             		break;
;;;1079           	case '0':
;;;1080             		switch (env[2]) {
;;;1081   		        	case '0':
;;;1082   		          		len = sprintf((char *)buf,(const char *)&env[4],snmp_enmv_data[0]);
;;;1083   		          		break;
;;;1084   		     		case '1':
;;;1085   		          		len = sprintf((char *)buf,(const char *)&env[4],snmp_enmv_data[1]);
;;;1086   		          		break;
;;;1087   		     		case '2':
;;;1088   		          		len = sprintf((char *)buf,(const char *)&env[4],snmp_enmv_data[2]);
;;;1089   		          		break;
;;;1090   		     		case '3':
;;;1091   		          		len = sprintf((char *)buf,(const char *)&env[4],snmp_enmv_data[3]);
;;;1092   		          		break;
;;;1093   		     		case '4':
;;;1094   		          		len = sprintf((char *)buf,(const char *)&env[4],snmp_enmv_data[4]);
;;;1095   		          		break;
;;;1096   		        	case '5':
;;;1097   		          		len = sprintf((char *)buf,(const char *)&env[4],snmp_enmv_data[5]);
;;;1098   		          		break;
;;;1099   		     		case '6':
;;;1100   		          		len = sprintf((char *)buf,(const char *)&env[4],snmp_enmv_data[6]);
;;;1101   		          		break;
;;;1102   		     		case '7':
;;;1103   		          		len = sprintf((char *)buf,(const char *)&env[4],snmp_enmv_data[7]);
;;;1104   		          		break;
;;;1105   		     		case '8':
;;;1106   		          		len = sprintf((char *)buf,(const char *)&env[4],snmp_enmv_data[8]);
;;;1107   		          		break;
;;;1108   		     		case '9':
;;;1109   		          		len = sprintf((char *)buf,(const char *)&env[4],snmp_enmv_data[9]);
;;;1110   		          		break;
;;;1111   				}
;;;1112   				break;
;;;1113           	case '1':
;;;1114             		switch (env[2]) {
;;;1115   		        	case '0':
;;;1116   		          		len = sprintf((char *)buf,(const char *)&env[4],snmp_enmv_data[10]);
;;;1117   		          		break;
;;;1118   		     		case '1':
;;;1119   		          		len = sprintf((char *)buf,(const char *)&env[4],snmp_enmv_data[11]);
;;;1120   		          		break;
;;;1121   		     		case '2':
;;;1122   		          		len = sprintf((char *)buf,(const char *)&env[4],snmp_enmv_data[12]);
;;;1123   		          		break;
;;;1124   		     		case '3':
;;;1125   		          		len = sprintf((char *)buf,(const char *)&env[4],snmp_enmv_data[13]);
;;;1126   		          		break;
;;;1127   		     		case '4':
;;;1128   		          		len = sprintf((char *)buf,(const char *)&env[4],snmp_enmv_data[14]);
;;;1129   		          		break;
;;;1130   		        	case '5':
;;;1131   		          		len = sprintf((char *)buf,(const char *)&env[4],snmp_enmv_data[15]);
;;;1132   		          		break;
;;;1133   		     		case '6':
;;;1134   		          		len = sprintf((char *)buf,(const char *)&env[4],snmp_enmv_data[16]);
;;;1135   		          		break;
;;;1136   		     		case '7':
;;;1137   		          		len = sprintf((char *)buf,(const char *)&env[4],snmp_enmv_data[17]);
;;;1138   		          		break;
;;;1139   		     		case '8':
;;;1140   		          		len = sprintf((char *)buf,(const char *)&env[4],snmp_enmv_data[18]);
;;;1141   		          		break;
;;;1142   		     		case '9':
;;;1143   		          		len = sprintf((char *)buf,(const char *)&env[4],snmp_enmv_data[19]);
;;;1144   		          		break;
;;;1145   				}
;;;1146   				break;
;;;1147           	case '2':
;;;1148             		switch (env[2]) {
;;;1149   		        	case '0':
;;;1150   		          		len = sprintf((char *)buf,(const char *)&env[4],snmp_enmv_data[20]);
;;;1151   		          		break;
;;;1152   		     		case '1':
;;;1153   		          		len = sprintf((char *)buf,(const char *)&env[4],snmp_enmv_data[21]);
;;;1154   		          		break;
;;;1155   		     		case '2':
;;;1156   		          		len = sprintf((char *)buf,(const char *)&env[4],snmp_enmv_data[22]);
;;;1157   		          		break;
;;;1158   		     		case '3':
;;;1159   		          		len = sprintf((char *)buf,(const char *)&env[4],snmp_enmv_data[23]);
;;;1160   		          		break;
;;;1161   		     		case '4':
;;;1162   		          		len = sprintf((char *)buf,(const char *)&env[4],snmp_enmv_data[24]);
;;;1163   		          		break;
;;;1164   		        	case '5':
;;;1165   		          		len = sprintf((char *)buf,(const char *)&env[4],snmp_enmv_data[25]);
;;;1166   		          		break;
;;;1167   		     		case '6':
;;;1168   		          		len = sprintf((char *)buf,(const char *)&env[4],snmp_enmv_data[26]);
;;;1169   		          		break;
;;;1170   		     		case '7':
;;;1171   		          		len = sprintf((char *)buf,(const char *)&env[4],snmp_enmv_data[27]);
;;;1172   		          		break;
;;;1173   		     		case '8':
;;;1174   		          		len = sprintf((char *)buf,(const char *)&env[4],snmp_enmv_data[28]);
;;;1175   		          		break;
;;;1176   		     		case '9':
;;;1177   		          		len = sprintf((char *)buf,(const char *)&env[4],snmp_enmv_data[29]);
;;;1178   		          		break;
;;;1179   				}
;;;1180   				break;
;;;1181           	case '3':
;;;1182             		switch (env[2]) {
;;;1183   		        	case '0':
;;;1184   		          		len = sprintf((char *)buf,(const char *)&env[4],snmp_enmv_data[30]);
;;;1185   		          		break;
;;;1186   		     		case '1':
;;;1187   		          		len = sprintf((char *)buf,(const char *)&env[4],snmp_enmv_data[31]);
;;;1188   		          		break;
;;;1189   		     		case '2':
;;;1190   		          		len = sprintf((char *)buf,(const char *)&env[4],snmp_enmv_data[32]);
;;;1191   		          		break;
;;;1192   		     		case '3':
;;;1193   		          		len = sprintf((char *)buf,(const char *)&env[4],snmp_enmv_data[33]);
;;;1194   		          		break;
;;;1195   		     		case '4':
;;;1196   		          		len = sprintf((char *)buf,(const char *)&env[4],snmp_enmv_data[34]);
;;;1197   		          		break;
;;;1198   		        	case '5':
;;;1199   		          		len = sprintf((char *)buf,(const char *)&env[4],snmp_enmv_data[35]);
;;;1200   		          		break;
;;;1201   		     		case '6':
;;;1202   		          		len = sprintf((char *)buf,(const char *)&env[4],snmp_enmv_data[36]);
;;;1203   		          		break;
;;;1204   		     		case '7':
;;;1205   		          		len = sprintf((char *)buf,(const char *)&env[4],snmp_enmv_data[37]);
;;;1206   		          		break;
;;;1207   		     		case '8':
;;;1208   		          		len = sprintf((char *)buf,(const char *)&env[4],snmp_enmv_data[38]);
;;;1209   		          		break;
;;;1210   		     		case '9':
;;;1211   		          		len = sprintf((char *)buf,(const char *)&env[4],snmp_enmv_data[39]);
;;;1212   		          		break;
;;;1213   				}
;;;1214   				break;
;;;1215           	case '4':
;;;1216             		switch (env[2]) {
;;;1217   		        	case '0':
;;;1218   		          		len = sprintf((char *)buf,(const char *)&env[4],snmp_enmv_data[40]);
;;;1219   		          		break;
;;;1220   		     		case '1':
;;;1221   		          		len = sprintf((char *)buf,(const char *)&env[4],snmp_enmv_data[41]);
;;;1222   		          		break;
;;;1223   		     		case '2':
;;;1224   		          		len = sprintf((char *)buf,(const char *)&env[4],snmp_enmv_data[42]);
;;;1225   		          		break;
;;;1226   		     		case '3':
;;;1227   		          		len = sprintf((char *)buf,(const char *)&env[4],snmp_enmv_data[43]);
;;;1228   		          		break;
;;;1229   		     		case '4':
;;;1230   		          		len = sprintf((char *)buf,(const char *)&env[4],snmp_enmv_data[44]);
;;;1231   		          		break;
;;;1232   		        	case '5':
;;;1233   		          		len = sprintf((char *)buf,(const char *)&env[4],snmp_enmv_data[45]);
;;;1234   		          		break;
;;;1235   		     		case '6':
;;;1236   		          		len = sprintf((char *)buf,(const char *)&env[4],snmp_enmv_data[46]);
;;;1237   		          		break;
;;;1238   		     		case '7':
;;;1239   		          		len = sprintf((char *)buf,(const char *)&env[4],snmp_enmv_data[47]);
;;;1240   		          		break;
;;;1241   		     		case '8':
;;;1242   		          		len = sprintf((char *)buf,(const char *)&env[4],snmp_enmv_data[48]);
;;;1243   		          		break;
;;;1244   		     		case '9':
;;;1245   		          		len = sprintf((char *)buf,(const char *)&env[4],snmp_enmv_data[49]);
;;;1246   		          		break;
;;;1247   				}
;;;1248   				break;
;;;1249           	case '5':
;;;1250             		switch (env[2]) {
;;;1251   		        	case '0':
;;;1252   		          		len = sprintf((char *)buf,(const char *)&env[4],snmp_enmv_data[50]);
;;;1253   		          		break;
;;;1254   		     		case '1':
;;;1255   		          		len = sprintf((char *)buf,(const char *)&env[4],snmp_enmv_data[51]);
;;;1256   		          		break;
;;;1257   		     		case '2':
;;;1258   		          		len = sprintf((char *)buf,(const char *)&env[4],snmp_enmv_data[52]);
;;;1259   		          		break;
;;;1260   		     		case '3':
;;;1261   		          		len = sprintf((char *)buf,(const char *)&env[4],snmp_enmv_data[53]);
;;;1262   		          		break;
;;;1263   		     		case '4':
;;;1264   		          		len = sprintf((char *)buf,(const char *)&env[4],snmp_enmv_data[54]);
;;;1265   		          		break;
;;;1266   		        	case '5':
;;;1267   		          		len = sprintf((char *)buf,(const char *)&env[4],snmp_enmv_data[55]);
;;;1268   		          		break;
;;;1269   		     		case '6':
;;;1270   		          		len = sprintf((char *)buf,(const char *)&env[4],snmp_enmv_data[56]);
;;;1271   		          		break;
;;;1272   		     		case '7':
;;;1273   		          		len = sprintf((char *)buf,(const char *)&env[4],snmp_enmv_data[57]);
;;;1274   		          		break;
;;;1275   		     		case '8':
;;;1276   		          		len = sprintf((char *)buf,(const char *)&env[4],snmp_enmv_data[58]);
;;;1277   		          		break;
;;;1278   		     		case '9':
;;;1279   		          		len = sprintf((char *)buf,(const char *)&env[4],snmp_enmv_data[59]);
;;;1280   		          		break;
;;;1281   				}
;;;1282   				break;
;;;1283           	case '6':
;;;1284             		switch (env[2]) {
;;;1285   		        	case '0':
;;;1286   		          		len = sprintf((char *)buf,(const char *)&env[4],snmp_enmv_data[60]);
;;;1287   		          		break;
;;;1288   		     		case '1':
;;;1289   		          		len = sprintf((char *)buf,(const char *)&env[4],snmp_enmv_data[61]);
;;;1290   		          		break;
;;;1291   		     		case '2':
;;;1292   		          		len = sprintf((char *)buf,(const char *)&env[4],snmp_enmv_data[62]);
;;;1293   		          		break;
;;;1294   		     		case '3':
;;;1295   		          		len = sprintf((char *)buf,(const char *)&env[4],snmp_enmv_data[63]);
;;;1296   		          		break;
;;;1297   				}
;;;1298   				break;
;;;1299   
;;;1300   		}
;;;1301   		break;
;;;1302   
;;;1303       case 'y':
;;;1304   		/*   */
;;;1305         	switch (env[1]) {
;;;1306           	case 'n':
;;;1307             		len = sprintf((char *)buf,(const char *)&env[3],66);
;;;1308             		break;
;;;1309           	case '0':
;;;1310             		switch (env[2]) {
;;;1311   		        	case '1':
;;;1312   		          		len = sprintf((char *)buf,(const char *)&env[4],AUSW_MAIN_NUMBER," ");
;;;1313   		          		break;
;;;1314   		     		case '2':
;;;1315   		          		len = sprintf((char *)buf,(const char *)&env[4],0,pal_cyr_coder(place_holder));
;;;1316   		          		break;
;;;1317   		     		case '3':
;;;1318   		          		len = sprintf((char *)buf,(const char *)&env[4],(ZV_ON==1)?1:0," ");
;;;1319   		          		break;
;;;1320   		     		case '4':
;;;1321   		          		len = sprintf((char *)buf,(const char *)&env[4],(PAR==1)?1:0," ");
;;;1322   		          		break;
;;;1323   		     		case '5':
;;;1324   		          		len = sprintf((char *)buf,(const char *)&env[4],(AV_OFF_AVT==1)?1:0," ");
;;;1325   		          		break;
;;;1326   		     		case '6':
;;;1327   		         		len = sprintf((char *)buf,(const char *)&env[4],UMN," ");
;;;1328   		          		break;
;;;1329   		     		case '7':
;;;1330   		         		len = sprintf((char *)buf,(const char *)&env[4],UMAXN," ");
;;;1331   		          		break;
;;;1332   		     		case '8':
;;;1333   		         		len = sprintf((char *)buf,(const char *)&env[4],FORVARDBPSCHHOUR," ");
;;;1334   		          		break;		     		
;;;1335   					case '9':
;;;1336   		         		len = sprintf((char *)buf,(const char *)&env[4],0,pal_cyr_coder("  123456789012345678901234"));
;;;1337   		          		break;																				   
;;;1338   				}
;;;1339   				break;
;;;1340           	case '1':
;;;1341             		switch (env[2]) {
;;;1342   					case '0':
;;;1343   		         		len = sprintf((char *)buf,(const char *)&env[4],IMAX," ");
;;;1344   		          		break;																				   
;;;1345   					case '1':
;;;1346   		          		len = sprintf((char *)buf,(const char *)&env[4],IMIN," ");
;;;1347   		          		break;
;;;1348   		     		case '2':
;;;1349   		          		len = sprintf((char *)buf,(const char *)&env[4],UMAX," ");
;;;1350   		          		break;
;;;1351   		     		case '3':
;;;1352   		          		len = sprintf((char *)buf,(const char *)&env[4],UB20-DU," ");
;;;1353   		          		break;
;;;1354   		     		case '4':
;;;1355   		          		len = sprintf((char *)buf,(const char *)&env[4],UB20," ");
;;;1356   		          		break;
;;;1357   		     		case '5':
;;;1358   		          		len = sprintf((char *)buf,(const char *)&env[4],UB0," ");
;;;1359   		          		break;
;;;1360   		     		case '6':
;;;1361   		         		len = sprintf((char *)buf,(const char *)&env[4],USIGN," ");
;;;1362   		          		break;
;;;1363   		     		case '7':
;;;1364   		         		len = sprintf((char *)buf,(const char *)&env[4],IZMAX," ");
;;;1365   		          		break;
;;;1366   		     		case '8':
;;;1367   		         		len = sprintf((char *)buf,(const char *)&env[4],TBATSIGN," ");
;;;1368   		          		break;		     		
;;;1369   					case '9':
;;;1370   		         		len = sprintf((char *)buf,(const char *)&env[4],TBATMAX," ");
;;;1371   		          		break;																				   
;;;1372   				}
;;;1373   				break;
;;;1374           	case '2':
;;;1375             		switch (env[2]) {
;;;1376   					case '0':
;;;1377   		         		len = sprintf((char *)buf,(const char *)&env[4],UVZ," ");
;;;1378   		          		break;																				   
;;;1379   					case '1':
;;;1380   		          		len = sprintf((char *)buf,(const char *)&env[4],VZ_HR," ");
;;;1381   		          		break;
;;;1382   		     		case '2':
;;;1383   		          		len = sprintf((char *)buf,(const char *)&env[4],TSIGN," ");
;;;1384   		          		break;
;;;1385   		     		case '3':
;;;1386   		          		len = sprintf((char *)buf,(const char *)&env[4],TMAX," ");
;;;1387   		          		break;
;;;1388   		     		case '4':
;;;1389   		          		len = sprintf((char *)buf,(const char *)&env[4],TZAS," ");
;;;1390   		          		break;
;;;1391   		     		case '5':
;;;1392   		          		len = sprintf((char *)buf,(const char *)&env[4],(APV_ON1==apvON)?1:0," ");
;;;1393   		          		break;
;;;1394   		     		case '6':
;;;1395   		         		len = sprintf((char *)buf,(const char *)&env[4],(APV_ON2==apvON)?1:0," ");
;;;1396   		          		break;
;;;1397   		     		case '7':
;;;1398   		         		len = sprintf((char *)buf,(const char *)&env[4],APV_ON2_TIME," ");
;;;1399   		          		break;
;;;1400   		     		case '8':
;;;1401   		         		len = sprintf((char *)buf,(const char *)&env[4],U0B," ");
;;;1402   		          		break;		     		
;;;1403   					case '9':
;;;1404   		         		len = sprintf((char *)buf,(const char *)&env[4],TBAT," ");
;;;1405   		          		break;																				   
;;;1406   				}
;;;1407   				break;
;;;1408          		case '3':
;;;1409             		switch (env[2]) {
;;;1410   					case '0':
;;;1411   		         		len = sprintf((char *)buf,(const char *)&env[4],IKB," ");
;;;1412   		          		break;																				   
;;;1413   					case '1':
;;;1414   		          		len = sprintf((char *)buf,(const char *)&env[4],LPC_RTC->YEAR," ");
;;;1415   		          		break;
;;;1416   		     		case '2':
;;;1417   		          		len = sprintf((char *)buf,(const char *)&env[4],LPC_RTC->MONTH," ");
;;;1418   		          		break;
;;;1419   		     		case '3':
;;;1420   		          		len = sprintf((char *)buf,(const char *)&env[4],LPC_RTC->DOM," ");
;;;1421   		          		break;
;;;1422   		     		case '4':
;;;1423   		          		len = sprintf((char *)buf,(const char *)&env[4],LPC_RTC->HOUR," ");
;;;1424   		          		break;
;;;1425   		     		case '5':
;;;1426   		          		len = sprintf((char *)buf,(const char *)&env[4],LPC_RTC->MIN," ");
;;;1427   		          		break;
;;;1428   		     		case '6':
;;;1429   		         		len = sprintf((char *)buf,(const char *)&env[4],LPC_RTC->SEC," ");
;;;1430   		          		break;
;;;1431   		     		case '7':
;;;1432   						if(AVZ==AVZ_1)temp=1;
;;;1433   						else if(AVZ==AVZ_2)temp=2;
;;;1434   						else if(AVZ==AVZ_3)temp=3; 
;;;1435   						else if(AVZ==AVZ_6)temp=4;
;;;1436   						else if(AVZ==AVZ_12)temp=5;			
;;;1437   						else temp=0;
;;;1438   						len = sprintf((char *)buf,(const char *)&env[4],temp," ");
;;;1439   		          		break;
;;;1440   		     		case '8':
;;;1441   		         		if(sk_stat[0]==ssON)temp=1;
;;;1442   						else temp=0;
;;;1443   						len = sprintf((char *)buf,(const char *)&env[4],temp," ");
;;;1444   		          		break;		     		
;;;1445   					case '9':
;;;1446   		         		if(SK_SIGN[0]==1)temp=0;
;;;1447   						else temp=1;
;;;1448   						len = sprintf((char *)buf,(const char *)&env[4],temp," ");
;;;1449   		          		break;																				   
;;;1450   				}
;;;1451   				break;
;;;1452          		case '4':
;;;1453             		switch (env[2]) {
;;;1454   					case '0':
;;;1455   		         		if(sk_av_stat[0]==sasON)temp=1;
;;;1456   						else temp=0;
;;;1457   						len = sprintf((char *)buf,(const char *)&env[4],temp," ");
;;;1458   		          		break;																				   
;;;1459   		     		case '1':
;;;1460   		         		if(sk_stat[1]==ssON)temp=1;
;;;1461   						else temp=0;
;;;1462   						len = sprintf((char *)buf,(const char *)&env[4],temp," ");
;;;1463   		          		break;		     		
;;;1464   					case '2':
;;;1465   		         		if(SK_SIGN[1]==1)temp=0;
;;;1466   						else temp=1;
;;;1467   						len = sprintf((char *)buf,(const char *)&env[4],temp," ");
;;;1468   		          		break;																				   
;;;1469   					case '3':
;;;1470   		         		if(sk_av_stat[1]==sasON)temp=1;
;;;1471   						else temp=0;
;;;1472   						len = sprintf((char *)buf,(const char *)&env[4],temp," ");
;;;1473   		          		break;																				   
;;;1474   		     		case '4':
;;;1475   		         		if(sk_stat[2]==ssON)temp=1;
;;;1476   						else temp=0;
;;;1477   						len = sprintf((char *)buf,(const char *)&env[4],temp," ");
;;;1478   		          		break;		     		
;;;1479   					case '5':
;;;1480   		         		if(SK_SIGN[2]==1)temp=0;
;;;1481   						else temp=1;
;;;1482   						len = sprintf((char *)buf,(const char *)&env[4],temp," ");
;;;1483   		          		break;																				   
;;;1484   					case '6':
;;;1485   		         		if(sk_av_stat[2]==sasON)temp=1;
;;;1486   						else temp=0;
;;;1487   						len = sprintf((char *)buf,(const char *)&env[4],temp," ");
;;;1488   		          		break;																				   
;;;1489   		     		case '7':
;;;1490   		         		if(sk_stat[3]==ssON)temp=1;
;;;1491   						else temp=0;
;;;1492   						len = sprintf((char *)buf,(const char *)&env[4],temp," ");
;;;1493   		          		break;		     		
;;;1494   					case '8':
;;;1495   		         		if(SK_SIGN[3]==1)temp=0;
;;;1496   						else temp=1;
;;;1497   						len = sprintf((char *)buf,(const char *)&env[4],temp," ");
;;;1498   		          		break;																				   
;;;1499   					case '9':
;;;1500   		         		if(sk_av_stat[3]==sasON)temp=1;
;;;1501   						else temp=0;
;;;1502   						len = sprintf((char *)buf,(const char *)&env[4],temp," ");
;;;1503   		          		break;																				   
;;;1504   				}
;;;1505   				break;
;;;1506          		case '5':
;;;1507             		switch (env[2]) {
;;;1508   					case '0':
;;;1509   		         		if(!SK_LCD_EN[0])temp=1;
;;;1510   						else temp=0;
;;;1511   						len = sprintf((char *)buf,(const char *)&env[4],temp," ");
;;;1512   						break;																				   
;;;1513   					case '1':
;;;1514   		         		if(!SK_LCD_EN[1])temp=1;
;;;1515   						else temp=0;
;;;1516   						len = sprintf((char *)buf,(const char *)&env[4],temp," ");
;;;1517   		          		break;
;;;1518   		     		case '2':
;;;1519   		         		if(!SK_LCD_EN[2])temp=1;
;;;1520   						else temp=0;
;;;1521   						len = sprintf((char *)buf,(const char *)&env[4],temp," ");
;;;1522   		          		break;
;;;1523   		     		case '3':
;;;1524   		         		if(!SK_LCD_EN[3])temp=1;
;;;1525   						else temp=0;
;;;1526   						len = sprintf((char *)buf,(const char *)&env[4],temp," ");
;;;1527   		          		break;
;;;1528   					case '4':
;;;1529   		         		if(!SK_ZVUK_EN[0])temp=1;
;;;1530   						else temp=0;
;;;1531   						len = sprintf((char *)buf,(const char *)&env[4],temp," ");
;;;1532   						break;																				   
;;;1533   					case '5':
;;;1534   		         		if(!SK_ZVUK_EN[1])temp=1;
;;;1535   						else temp=0;
;;;1536   						len = sprintf((char *)buf,(const char *)&env[4],temp," ");
;;;1537   		          		break;
;;;1538   		     		case '6':
;;;1539   		         		if(!SK_ZVUK_EN[2])temp=1;
;;;1540   						else temp=0;
;;;1541   						len = sprintf((char *)buf,(const char *)&env[4],temp," ");
;;;1542   		          		break;
;;;1543   		     		case '7':
;;;1544   		         		if(!SK_ZVUK_EN[3])temp=1;
;;;1545   						else temp=0;
;;;1546   						len = sprintf((char *)buf,(const char *)&env[4],temp," ");
;;;1547   		          		break;
;;;1548   		     		case '8':
;;;1549   						len = sprintf((char *)buf,(const char *)&env[4],(signed)SNTP_GMT," ");
;;;1550   		          		break;		     		
;;;1551   					case '9':
;;;1552   		         		if(lc640_read_int(EE_SNTP_WEB_ENABLE)==1)temp=0;
;;;1553   						else temp=1;
;;;1554   						len = sprintf((char *)buf,(const char *)&env[4],temp," ");
;;;1555   		          		break;																				   
;;;1556   				}
;;;1557   				break;
;;;1558   
;;;1559          		case '6':
;;;1560             		switch (env[2]) {
;;;1561   					case '0':
;;;1562   		         		len = sprintf((char *)buf,(const char *)&env[4],http_ip_output(	(char)lc640_read_int(EE_SNTP_IP1),
;;;1563   																						(char)lc640_read_int(EE_SNTP_IP2),
;;;1564   																						(char)lc640_read_int(EE_SNTP_IP3),
;;;1565   																						(char)lc640_read_int(EE_SNTP_IP4)));
;;;1566   						break;																				   
;;;1567   					case '1':
;;;1568   						len = sprintf((char *)buf,(const char *)&env[4],NUMIST," ");
;;;1569   		          		break;
;;;1570   		     		case '2':
;;;1571   						if(NUMPHASE==1)temp=0;
;;;1572   						else temp=1;
;;;1573   						len = sprintf((char *)buf,(const char *)&env[4],temp," ");
;;;1574   		          		break;
;;;1575   		     		case '3':
;;;1576   						len = sprintf((char *)buf,(const char *)&env[4],NUMSK," ");
;;;1577   		          		break;
;;;1578   					case '4':
;;;1579   						len = sprintf((char *)buf,(const char *)&env[4],NUMDT," ");
;;;1580   						break;																				   
;;;1581   					case '5':
;;;1582   						len = sprintf((char *)buf,(const char *)&env[4],NUMMAKB," ");
;;;1583   		          		break;
;;;1584   		     		case '6':
;;;1585   						len = sprintf((char *)buf,(const char *)&env[4],NUMENMV," ");
;;;1586   		          		break;
;;;1587   		     		case '7':
;;;1588   		         		if(!SK_ZVUK_EN[3])temp=1;
;;;1589   						else temp=0;
;;;1590   						len = sprintf((char *)buf,(const char *)&env[4],temp," ");
;;;1591   		          		break;
;;;1592   		     		case '8':
;;;1593   						len = sprintf((char *)buf,(const char *)&env[4],(signed)SNTP_GMT," ");
;;;1594   		          		break;		     		
;;;1595   					case '9':
;;;1596   		         		if(lc640_read_int(EE_SNTP_WEB_ENABLE)==1)temp=0;
;;;1597   						else temp=1;
;;;1598   						len = sprintf((char *)buf,(const char *)&env[4],temp," ");
;;;1599   		          		break;																				   
;;;1600   				}
;;;1601   				break;
;;;1602   		}
;;;1603   		break;
;;;1604   
;;;1605       case 'x':
;;;1606         if(uku_set_autorized)	len = sprintf((char *)buf,(const char *)&env[1],"ON");
;;;1607   	  else if(psw_err)		len = sprintf((char *)buf,(const char *)&env[1],"DENIED");
;;;1608   	  else 					len = sprintf((char *)buf,(const char *)&env[1],"OFF");
;;;1609         break;
;;;1610   
;;;1611       case '2':
;;;1612         /* Button state - xml file 'button.cgx' */
;;;1613   	  web_plazma[0]++;
000fc6  4acb              LDR      r2,|L1.4852|
000fc8  f04f0601          MOV      r6,#1                 ;719
000fcc  2832              CMP      r0,#0x32              ;692
000fce  7811              LDRB     r1,[r2,#0]
000fd0  f1010101          ADD      r1,r1,#1
000fd4  b2c9              UXTB     r1,r1
000fd6  f001845e          BEQ.W    |L1.10390|
000fda  2833              CMP      r0,#0x33              ;692
                  |L1.4060|
000fdc  f0418485          BNE.W    |L1.10474|
000fe0  f001bc69          B.W      |L1.10422|
                  |L1.4068|
000fe4  2862              CMP      r0,#0x62              ;692
000fe6  d03c              BEQ      |L1.4194|
000fe8  2863              CMP      r0,#0x63              ;692
000fea  d1f7              BNE      |L1.4060|
000fec  e053              B        |L1.4246|
                  |L1.4078|
000fee  2865              CMP      r0,#0x65              ;692
000ff0  d07a              BEQ      |L1.4328|
000ff2  2866              CMP      r0,#0x66              ;692
000ff4  d079              BEQ      |L1.4330|
000ff6  2867              CMP      r0,#0x67              ;692
000ff8  d078              BEQ      |L1.4332|
000ffa  286b              CMP      r0,#0x6b              ;692
000ffc  d1ee              BNE      |L1.4060|
000ffe  e2e1              B        |L1.5572|
                  |L1.4096|
001000  4bbd              LDR      r3,|L1.4856|
001002  386d              SUBS     r0,r0,#0x6d           ;692
001004  280e              CMP      r0,#0xe               ;692
001006  781b              LDRB     r3,[r3,#0]            ;915
001008  f081846f          BCS.W    |L1.10474|
00100c  e8dff010          TBH      [pc,r0,LSL #1]        ;692
001010  030c04ed          DCW      0x030c,0x04ed
001014  03e30335          DCW      0x03e3,0x0335
001018  04ed04ed          DCW      0x04ed,0x04ed
00101c  04780376          DCW      0x0478,0x0376
001020  04ed04ed          DCW      0x04ed,0x04ed
001024  055d0c2a          DCW      0x055d,0x0c2a
001028  07c90c64          DCW      0x07c9,0x0c64
                  |L1.4140|
00102c  7860              LDRB     r0,[r4,#1]            ;698
00102e  2830              CMP      r0,#0x30              ;698
001030  d1d4              BNE      |L1.4060|
001032  78a0              LDRB     r0,[r4,#2]            ;700
001034  2831              CMP      r0,#0x31              ;700
001036  d002              BEQ      |L1.4158|
001038  2832              CMP      r0,#0x32              ;700
00103a  d1cf              BNE      |L1.4060|
00103c  e007              B        |L1.4174|
                  |L1.4158|
00103e  a2af              ADR      r2,|L1.4860|
001040  1d21              ADDS     r1,r4,#4              ;702
001042  4638              MOV      r0,r7                 ;702
001044  f7fffffe          BL       __2sprintf
001048  4605              MOV      r5,r0                 ;702
                  |L1.4170|
00104a  f001bc4e          B.W      |L1.10474|
                  |L1.4174|
00104e  a0ad              ADR      r0,|L1.4868|
001050  f7fffffe          BL       pal_cyr_coder
001054  4602              MOV      r2,r0                 ;705
001056  1d21              ADDS     r1,r4,#4              ;705
001058  4638              MOV      r0,r7                 ;705
00105a  f7fffffe          BL       __2sprintf
00105e  4605              MOV      r5,r0                 ;705
                  |L1.4192|
001060  e7f3              B        |L1.4170|
                  |L1.4194|
001062  7860              LDRB     r0,[r4,#1]            ;714
001064  2831              CMP      r0,#0x31              ;714
001066  d002              BEQ      |L1.4206|
001068  2832              CMP      r0,#0x32              ;714
00106a  d1ee              BNE      |L1.4170|
00106c  e009              B        |L1.4226|
                  |L1.4206|
00106e  2000              MOVS     r0,#0                 ;716
001070  f7fffffe          BL       http_tm_bat_output
001074  4602              MOV      r2,r0                 ;716
001076  1ce1              ADDS     r1,r4,#3              ;716
001078  4638              MOV      r0,r7                 ;716
00107a  f7fffffe          BL       __2sprintf
00107e  4605              MOV      r5,r0                 ;716
                  |L1.4224|
001080  e7e3              B        |L1.4170|
                  |L1.4226|
001082  2001              MOVS     r0,#1                 ;719
001084  f7fffffe          BL       http_tm_bat_output
001088  4602              MOV      r2,r0                 ;719
00108a  1ce1              ADDS     r1,r4,#3              ;719
00108c  4638              MOV      r0,r7                 ;719
00108e  f7fffffe          BL       __2sprintf
001092  4605              MOV      r5,r0                 ;719
001094  e7d9              B        |L1.4170|
                  |L1.4246|
001096  f8df927c          LDR      r9,|L1.4884|
00109a  f8dfa27c          LDR      r10,|L1.4888|
00109e  e048              B        |L1.4402|
                  |L1.4256|
0010a0  e352              B        |L1.5960|
                  |L1.4258|
0010a2  e05e              B        |L1.4450|
                  |L1.4260|
0010a4  8830              LDRH     r0,[r6,#0]            ;727
0010a6  4a9d              LDR      r2,|L1.4892|
0010a8  eb000140          ADD      r1,r0,r0,LSL #1       ;727
0010ac  eb0101c0          ADD      r1,r1,r0,LSL #3       ;727
0010b0  eb020481          ADD      r4,r2,r1,LSL #2       ;727
0010b4  f1000001          ADD      r0,r0,#1              ;728
0010b8  8030              STRH     r0,[r6,#0]            ;728
0010ba  eb070005          ADD      r0,r7,r5              ;730
0010be  a198              ADR      r1,|L1.4896|
0010c0  f7fffffe          BL       __2sprintf
0010c4  4405              ADD      r5,r5,r0              ;730
0010c6  7820              LDRB     r0,[r4,#0]            ;731
0010c8  2801              CMP      r0,#1                 ;731
0010ca  d810              BHI      |L1.4334|
0010cc  eb000140          ADD      r1,r0,r0,LSL #1       ;732
0010d0  eb0100c0          ADD      r0,r1,r0,LSL #3       ;732
0010d4  498f              LDR      r1,|L1.4884|
0010d6  eb000309          ADD      r3,r0,r9              ;732
0010da  8832              LDRH     r2,[r6,#0]            ;732
0010dc  1978              ADDS     r0,r7,r5              ;732
0010de  31c4              ADDS     r1,r1,#0xc4           ;732
0010e0  f7fffffe          BL       __2sprintf
0010e4  4405              ADD      r5,r5,r0              ;732
0010e6  e01f              B        |L1.4392|
                  |L1.4328|
0010e8  e1ec              B        |L1.5316|
                  |L1.4330|
0010ea  e231              B        |L1.5456|
                  |L1.4332|
0010ec  e235              B        |L1.5466|
                  |L1.4334|
0010ee  2802              CMP      r0,#2                 ;737
0010f0  d02b              BEQ      |L1.4426|
0010f2  8923              LDRH     r3,[r4,#8]            ;744
0010f4  8be1              LDRH     r1,[r4,#0x1e]         ;744
0010f6  8962              LDRH     r2,[r4,#0xa]          ;744
0010f8  f894c007          LDRB     r12,[r4,#7]           ;744
0010fc  e9cdc303          STRD     r12,r3,[sp,#0xc]      ;744
001100  e9cd2105          STRD     r2,r1,[sp,#0x14]      ;744
001104  7962              LDRB     r2,[r4,#5]            ;744
001106  79a1              LDRB     r1,[r4,#6]            ;744
001108  7923              LDRB     r3,[r4,#4]            ;744
00110a  9102              STR      r1,[sp,#8]            ;744
00110c  e9cd3200          STRD     r3,r2,[sp,#0]         ;744
001110  eb000140          ADD      r1,r0,r0,LSL #1       ;744
001114  eb0100c0          ADD      r0,r1,r0,LSL #3       ;744
001118  eb000309          ADD      r3,r0,r9              ;744
00111c  8832              LDRH     r2,[r6,#0]            ;744
00111e  1978              ADDS     r0,r7,r5              ;744
001120  4984              LDR      r1,|L1.4916|
001122  f7fffffe          BL       __2sprintf
001126  4405              ADD      r5,r5,r0              ;744
                  |L1.4392|
001128  8830              LDRH     r0,[r6,#0]            ;753
00112a  f89a1000          LDRB     r1,[r10,#0]           ;753  ; tcp_NumSocks
00112e  4288              CMP      r0,r1                 ;753
001130  d003              BEQ      |L1.4410|
                  |L1.4402|
001132  f1050096          ADD      r0,r5,#0x96           ;726
001136  4540              CMP      r0,r8                 ;726
001138  d3b4              BCC      |L1.4260|
                  |L1.4410|
00113a  8830              LDRH     r0,[r6,#0]            ;757
00113c  f89a1000          LDRB     r1,[r10,#0]           ;757  ; tcp_NumSocks
001140  4288              CMP      r0,r1                 ;757
001142  d28d              BCS      |L1.4192|
001144  f4454500          ORR      r5,r5,#0x8000         ;759
                  |L1.4424|
001148  e77f              B        |L1.4170|
                  |L1.4426|
00114a  8960              LDRH     r0,[r4,#0xa]          ;738
00114c  4b71              LDR      r3,|L1.4884|
00114e  9000              STR      r0,[sp,#0]            ;738
001150  3316              ADDS     r3,r3,#0x16           ;738
001152  8832              LDRH     r2,[r6,#0]            ;738
001154  1978              ADDS     r0,r7,r5              ;738
001156  f10301f6          ADD      r1,r3,#0xf6           ;738
00115a  f7fffffe          BL       __2sprintf
00115e  4405              ADD      r5,r5,r0              ;738
001160  e7e2              B        |L1.4392|
                  |L1.4450|
001162  7860              LDRB     r0,[r4,#1]            ;766
001164  2830              CMP      r0,#0x30              ;766
001166  d18b              BNE      |L1.4224|
001168  78a0              LDRB     r0,[r4,#2]            ;769
00116a  3831              SUBS     r0,r0,#0x31           ;769
00116c  2809              CMP      r0,#9                 ;769
00116e  d287              BCS      |L1.4224|
001170  e8dff000          TBB      [pc,r0]               ;769
001174  059a9998          DCB      0x05,0x9a,0x99,0x98
001178  97969594          DCB      0x97,0x96,0x95,0x94
00117c  9300              DCB      0x93,0x00
00117e  486e              LDR      r0,|L1.4920|
001180  8800              LDRH     r0,[r0,#0]            ;772  ; AUSW_MAIN
001182  f5a041bc          SUB      r1,r0,#0x5e00         ;772
001186  3938              SUBS     r1,r1,#0x38           ;772
001188  d121              BNE      |L1.4558|
00118a  2a02              CMP      r2,#2                 ;774
00118c  d00b              BEQ      |L1.4518|
00118e  2a03              CMP      r2,#3                 ;775
001190  d013              BEQ      |L1.4538|
001192  a06a              ADR      r0,|L1.4924|
001194  f7fffffe          BL       pal_cyr_coder
001198  4602              MOV      r2,r0                 ;776
00119a  1d21              ADDS     r1,r4,#4              ;776
00119c  4638              MOV      r0,r7                 ;776
00119e  f7fffffe          BL       __2sprintf
0011a2  4605              MOV      r5,r0                 ;776
                  |L1.4516|
0011a4  e751              B        |L1.4170|
                  |L1.4518|
0011a6  a06a              ADR      r0,|L1.4944|
0011a8  f7fffffe          BL       pal_cyr_coder
0011ac  4602              MOV      r2,r0                 ;774
0011ae  1d21              ADDS     r1,r4,#4              ;774
0011b0  4638              MOV      r0,r7                 ;774
0011b2  f7fffffe          BL       __2sprintf
0011b6  4605              MOV      r5,r0                 ;774
                  |L1.4536|
0011b8  e747              B        |L1.4170|
                  |L1.4538|
0011ba  a06a              ADR      r0,|L1.4964|
0011bc  f7fffffe          BL       pal_cyr_coder
0011c0  4602              MOV      r2,r0                 ;775
0011c2  1d21              ADDS     r1,r4,#4              ;775
0011c4  4638              MOV      r0,r7                 ;775
0011c6  f7fffffe          BL       __2sprintf
0011ca  4605              MOV      r5,r0                 ;775
                  |L1.4556|
0011cc  e73d              B        |L1.4170|
                  |L1.4558|
0011ce  f5a041bc          SUB      r1,r0,#0x5e00         ;778
0011d2  3992              SUBS     r1,r1,#0x92           ;778
0011d4  d139              BNE      |L1.4682|
0011d6  2a03              CMP      r2,#3                 ;780
0011d8  d00f              BEQ      |L1.4602|
0011da  2a04              CMP      r2,#4                 ;781
0011dc  d017              BEQ      |L1.4622|
0011de  2a05              CMP      r2,#5                 ;782
0011e0  d01f              BEQ      |L1.4642|
0011e2  2a06              CMP      r2,#6                 ;783
0011e4  d027              BEQ      |L1.4662|
0011e6  a064              ADR      r0,|L1.4984|
0011e8  f7fffffe          BL       pal_cyr_coder
0011ec  4602              MOV      r2,r0                 ;784
0011ee  1d21              ADDS     r1,r4,#4              ;784
0011f0  4638              MOV      r0,r7                 ;784
0011f2  f7fffffe          BL       __2sprintf
0011f6  4605              MOV      r5,r0                 ;784
                  |L1.4600|
0011f8  e727              B        |L1.4170|
                  |L1.4602|
0011fa  a064              ADR      r0,|L1.5004|
0011fc  f7fffffe          BL       pal_cyr_coder
001200  4602              MOV      r2,r0                 ;780
001202  1d21              ADDS     r1,r4,#4              ;780
001204  4638              MOV      r0,r7                 ;780
001206  f7fffffe          BL       __2sprintf
00120a  4605              MOV      r5,r0                 ;780
00120c  e71d              B        |L1.4170|
                  |L1.4622|
00120e  a064              ADR      r0,|L1.5024|
001210  f7fffffe          BL       pal_cyr_coder
001214  4602              MOV      r2,r0                 ;781
001216  1d21              ADDS     r1,r4,#4              ;781
001218  4638              MOV      r0,r7                 ;781
00121a  f7fffffe          BL       __2sprintf
00121e  4605              MOV      r5,r0                 ;781
                  |L1.4640|
001220  e713              B        |L1.4170|
                  |L1.4642|
001222  a064              ADR      r0,|L1.5044|
001224  f7fffffe          BL       pal_cyr_coder
001228  4602              MOV      r2,r0                 ;782
00122a  1d21              ADDS     r1,r4,#4              ;782
00122c  4638              MOV      r0,r7                 ;782
00122e  f7fffffe          BL       __2sprintf
001232  4605              MOV      r5,r0                 ;782
                  |L1.4660|
001234  e709              B        |L1.4170|
                  |L1.4662|
001236  a064              ADR      r0,|L1.5064|
001238  f7fffffe          BL       pal_cyr_coder
00123c  4602              MOV      r2,r0                 ;783
00123e  1d21              ADDS     r1,r4,#4              ;783
001240  4638              MOV      r0,r7                 ;783
001242  f7fffffe          BL       __2sprintf
001246  4605              MOV      r5,r0                 ;783
                  |L1.4680|
001248  e6ff              B        |L1.4170|
                  |L1.4682|
00124a  f5a05198          SUB      r1,r0,#0x1300         ;786
00124e  3910              SUBS     r1,r1,#0x10           ;786
001250  d115              BNE      |L1.4734|
001252  2a03              CMP      r2,#3                 ;788
001254  d009              BEQ      |L1.4714|
001256  a061              ADR      r0,|L1.5084|
001258  f7fffffe          BL       pal_cyr_coder
00125c  4602              MOV      r2,r0                 ;789
00125e  1d21              ADDS     r1,r4,#4              ;789
001260  4638              MOV      r0,r7                 ;789
001262  f7fffffe          BL       __2sprintf
001266  4605              MOV      r5,r0                 ;789
                  |L1.4712|
001268  e6ef              B        |L1.4170|
                  |L1.4714|
00126a  a061              ADR      r0,|L1.5104|
00126c  f7fffffe          BL       pal_cyr_coder
001270  4602              MOV      r2,r0                 ;788
001272  1d21              ADDS     r1,r4,#4              ;788
001274  4638              MOV      r0,r7                 ;788
001276  f7fffffe          BL       __2sprintf
00127a  4605              MOV      r5,r0                 ;788
                  |L1.4732|
00127c  e6e5              B        |L1.4170|
                  |L1.4734|
00127e  f5a05198          SUB      r1,r0,#0x1300         ;792
001282  3913              SUBS     r1,r1,#0x13           ;792
001284  d111              BNE      |L1.4778|
001286  a05f              ADR      r0,|L1.5124|
001288  f7fffffe          BL       pal_cyr_coder
00128c  4602              MOV      r2,r0                 ;792
00128e  1d21              ADDS     r1,r4,#4              ;792
001290  4638              MOV      r0,r7                 ;792
001292  f7fffffe          BL       __2sprintf
001296  4605              MOV      r5,r0                 ;792
                  |L1.4760|
001298  e6d7              B        |L1.4170|
00129a  e10c              B        |L1.5302|
00129c  e104              B        |L1.5288|
00129e  e0fa              B        |L1.5270|
0012a0  e0f2              B        |L1.5256|
0012a2  e0eb              B        |L1.5244|
0012a4  e0e1              B        |L1.5226|
0012a6  e0d6              B        |L1.5206|
0012a8  e0ce              B        |L1.5192|
                  |L1.4778|
0012aa  e0b5              B        |L1.5144|
                  |L1.4780|
0012ac  6e756d73          DCB      "numsk_",0
0012b0  6b5f00  
0012b3  00                DCB      0
                  |L1.4788|
                          DCD      web_param_input
                  |L1.4792|
0012b8  6e756d64          DCB      "numdt_",0
0012bc  745f00  
0012bf  00                DCB      0
                  |L1.4800|
0012c0  6e756d6d          DCB      "nummakb_",0
0012c4  616b625f
0012c8  00      
0012c9  00                DCB      0
0012ca  00                DCB      0
0012cb  00                DCB      0
                  |L1.4812|
0012cc  6e756d65          DCB      "numenmv_",0
0012d0  6e6d765f
0012d4  00      
0012d5  00                DCB      0
0012d6  00                DCB      0
0012d7  00                DCB      0
                  |L1.4824|
                          DCD      AUSW_MAIN_NUMBER
                  |L1.4828|
                          DCD      NUMINV
                  |L1.4832|
                          DCD      NUMSK
                  |L1.4836|
                          DCD      NUMDT
                  |L1.4840|
                          DCD      NUMMAKB
                  |L1.4844|
                          DCD      uku_set_autorized
                  |L1.4848|
                          DCD      NUMIST
                  |L1.4852|
                          DCD      web_plazma
                  |L1.4856|
                          DCD      ||.data||
                  |L1.4860|
0012fc  6e6f726d          DCB      "normal",0
001300  616c00  
001303  00                DCB      0
                  |L1.4868|
001304  c0e2e0f0          DCB      192,226,224,240,232,255," ",193,207,209," ",185,"1",0
001308  e8ff20c1
00130c  cfd120b9
001310  3100    
001312  00                DCB      0
001313  00                DCB      0
                  |L1.4884|
                          DCD      ||.constdata||
                  |L1.4888|
                          DCD      tcp_NumSocks
                  |L1.4892|
                          DCD      tcp_socket
                  |L1.4896|
001320  3c747220          DCB      "<tr align=""center"">",0
001324  616c6967
001328  6e3d2263
00132c  656e7465
001330  72223e00
                  |L1.4916|
                          DCD      ||.constdata||+0x154
                  |L1.4920|
                          DCD      AUSW_MAIN
                  |L1.4924|
00133c  c8c1ddcf          DCB      200,193,221,207,"220/24-120",192,"-4/4",0
001340  3232302f
001344  32342d31
001348  3230c02d
00134c  342f3400
                  |L1.4944|
001350  c8c1ddcf          DCB      200,193,221,207,"220/24-120",192,"-2/4",0
001354  3232302f
001358  32342d31
00135c  3230c02d
001360  322f3400
                  |L1.4964|
001364  c8c1ddcf          DCB      200,193,221,207,"220/24-120",192,"-3/4",0
001368  3232302f
00136c  32342d31
001370  3230c02d
001374  332f3400
                  |L1.4984|
001378  c8c1ddcf          DCB      200,193,221,207,"220/24-210",192,"-7/7",0
00137c  3232302f
001380  32342d32
001384  3130c02d
001388  372f3700
                  |L1.5004|
00138c  c8c1ddcf          DCB      200,193,221,207,"220/24-210",192,"-3/7",0
001390  3232302f
001394  32342d32
001398  3130c02d
00139c  332f3700
                  |L1.5024|
0013a0  c8c1ddcf          DCB      200,193,221,207,"220/24-210",192,"-4/7",0
0013a4  3232302f
0013a8  32342d32
0013ac  3130c02d
0013b0  342f3700
                  |L1.5044|
0013b4  c8c1ddcf          DCB      200,193,221,207,"220/24-210",192,"-5/7",0
0013b8  3232302f
0013bc  32342d32
0013c0  3130c02d
0013c4  352f3700
                  |L1.5064|
0013c8  c8c1ddcf          DCB      200,193,221,207,"220/24-210",192,"-6/7",0
0013cc  3232302f
0013d0  32342d32
0013d4  3130c02d
0013d8  362f3700
                  |L1.5084|
0013dc  c8c1ddcf          DCB      200,193,221,207,"220/48-80",192,"-4/4 ",0
0013e0  3232302f
0013e4  34382d38
0013e8  30c02d34
0013ec  2f342000
                  |L1.5104|
0013f0  c8c1ddcf          DCB      200,193,221,207,"220/48-80",192,"-3/4 ",0
0013f4  3232302f
0013f8  34382d38
0013fc  30c02d33
001400  2f342000
                  |L1.5124|
001404  c8c1ddcf          DCB      200,193,221,207,"380/48-80",192,"-4/4 ",0
001408  3338302f
00140c  34382d38
001410  30c02d34
001414  2f342000
                  |L1.5144|
001418  f5a0413b          SUB      r1,r0,#0xbb00         ;793
00141c  39fb              SUBS     r1,r1,#0xfb           ;793
00141e  d109              BNE      |L1.5172|
001420  a0f8              ADR      r0,|L1.6148|
001422  f7fffffe          BL       pal_cyr_coder
001426  4602              MOV      r2,r0                 ;793
001428  1d21              ADDS     r1,r4,#4              ;793
00142a  4638              MOV      r0,r7                 ;793
00142c  f7fffffe          BL       __2sprintf
001430  4605              MOV      r5,r0                 ;793
                  |L1.5170|
001432  e60a              B        |L1.4170|
                  |L1.5172|
001434  a0f8              ADR      r0,|L1.6168|
001436  f7fffffe          BL       pal_cyr_coder
00143a  4602              MOV      r2,r0                 ;795
00143c  1d21              ADDS     r1,r4,#4              ;795
00143e  4638              MOV      r0,r7                 ;795
001440  f7fffffe          BL       __2sprintf
001444  4605              MOV      r5,r0                 ;795
                  |L1.5190|
001446  e600              B        |L1.4170|
                  |L1.5192|
001448  4662              MOV      r2,r12                ;798
00144a  1d21              ADDS     r1,r4,#4              ;798
00144c  4638              MOV      r0,r7                 ;798
00144e  f7fffffe          BL       __2sprintf
001452  4605              MOV      r5,r0                 ;798
                  |L1.5204|
001454  e5f9              B        |L1.4170|
                  |L1.5206|
001456  48f5              LDR      r0,|L1.6188|
001458  f7fffffe          BL       pal_cyr_coder
00145c  4602              MOV      r2,r0                 ;801
00145e  1d21              ADDS     r1,r4,#4              ;801
001460  4638              MOV      r0,r7                 ;801
001462  f7fffffe          BL       __2sprintf
001466  4605              MOV      r5,r0                 ;801
                  |L1.5224|
001468  e5ef              B        |L1.4170|
                  |L1.5226|
00146a  48f1              LDR      r0,|L1.6192|
00146c  1d21              ADDS     r1,r4,#4              ;804
00146e  f9b02000          LDRSH    r2,[r0,#0]            ;804  ; NUMBAT
001472  4638              MOV      r0,r7                 ;804
001474  f7fffffe          BL       __2sprintf
001478  4605              MOV      r5,r0                 ;804
                  |L1.5242|
00147a  e5e6              B        |L1.4170|
                  |L1.5244|
00147c  1d21              ADDS     r1,r4,#4              ;807
00147e  4638              MOV      r0,r7                 ;807
001480  f7fffffe          BL       __2sprintf
001484  4605              MOV      r5,r0                 ;807
                  |L1.5254|
001486  e5e0              B        |L1.4170|
                  |L1.5256|
001488  461a              MOV      r2,r3                 ;810
00148a  1d21              ADDS     r1,r4,#4              ;810
00148c  4638              MOV      r0,r7                 ;810
00148e  f7fffffe          BL       __2sprintf
001492  4605              MOV      r5,r0                 ;810
001494  e5d9              B        |L1.4170|
                  |L1.5270|
001496  48e7              LDR      r0,|L1.6196|
001498  1d21              ADDS     r1,r4,#4              ;813
00149a  f9b02000          LDRSH    r2,[r0,#0]            ;813  ; NUMBYPASS
00149e  4638              MOV      r0,r7                 ;813
0014a0  f7fffffe          BL       __2sprintf
0014a4  4605              MOV      r5,r0                 ;813
                  |L1.5286|
0014a6  e5d0              B        |L1.4170|
                  |L1.5288|
0014a8  465a              MOV      r2,r11                ;816
0014aa  1d21              ADDS     r1,r4,#4              ;816
0014ac  4638              MOV      r0,r7                 ;816
0014ae  f7fffffe          BL       __2sprintf
0014b2  4605              MOV      r5,r0                 ;816
                  |L1.5300|
0014b4  e5c9              B        |L1.4170|
                  |L1.5302|
0014b6  4672              MOV      r2,lr                 ;819
0014b8  1d21              ADDS     r1,r4,#4              ;819
0014ba  4638              MOV      r0,r7                 ;819
0014bc  f7fffffe          BL       __2sprintf
0014c0  4605              MOV      r5,r0                 ;819
                  |L1.5314|
0014c2  e5c2              B        |L1.4170|
                  |L1.5316|
0014c4  f7fffffe          BL       http_get_lang
0014c8  4605              MOV      r5,r0                 ;828
0014ca  a1db              ADR      r1,|L1.6200|
0014cc  4628              MOV      r0,r5                 ;829
0014ce  f7fffffe          BL       strcmp
0014d2  b368              CBZ      r0,|L1.5424|
0014d4  a1d9              ADR      r1,|L1.6204|
0014d6  4628              MOV      r0,r5                 ;832
0014d8  f7fffffe          BL       strcmp
0014dc  b350              CBZ      r0,|L1.5428|
0014de  a1d9              ADR      r1,|L1.6212|
0014e0  4628              MOV      r0,r5                 ;835
0014e2  f7fffffe          BL       strcmp
0014e6  b338              CBZ      r0,|L1.5432|
0014e8  a1d8              ADR      r1,|L1.6220|
0014ea  4628              MOV      r0,r5                 ;838
0014ec  f7fffffe          BL       strcmp
0014f0  b320              CBZ      r0,|L1.5436|
0014f2  a1d7              ADR      r1,|L1.6224|
0014f4  4628              MOV      r0,r5                 ;841
0014f6  f7fffffe          BL       strcmp
0014fa  b308              CBZ      r0,|L1.5440|
0014fc  a1d6              ADR      r1,|L1.6232|
0014fe  4628              MOV      r0,r5                 ;844
001500  f7fffffe          BL       strcmp
001504  b1f0              CBZ      r0,|L1.5444|
001506  a1d6              ADR      r1,|L1.6240|
001508  4628              MOV      r0,r5                 ;847
00150a  f7fffffe          BL       strcmp
00150e  b1d8              CBZ      r0,|L1.5448|
001510  a1d4              ADR      r1,|L1.6244|
001512  4628              MOV      r0,r5                 ;850
001514  f7fffffe          BL       strcmp
001518  b1c0              CBZ      r0,|L1.5452|
00151a  a5d3              ADR      r5,|L1.6248|
                  |L1.5404|
00151c  f7fffffe          BL       http_get_lang
001520  4603              MOV      r3,r0                 ;856
001522  462a              MOV      r2,r5                 ;856
001524  1ca1              ADDS     r1,r4,#2              ;856
001526  4638              MOV      r0,r7                 ;856
001528  f7fffffe          BL       __2sprintf
00152c  4605              MOV      r5,r0                 ;856
                  |L1.5422|
00152e  e58c              B        |L1.4170|
                  |L1.5424|
001530  a5cf              ADR      r5,|L1.6256|
001532  e7f3              B        |L1.5404|
                  |L1.5428|
001534  a5d0              ADR      r5,|L1.6264|
001536  e7f1              B        |L1.5404|
                  |L1.5432|
001538  a5d2              ADR      r5,|L1.6276|
00153a  e7ef              B        |L1.5404|
                  |L1.5436|
00153c  a5d4              ADR      r5,|L1.6288|
00153e  e7ed              B        |L1.5404|
                  |L1.5440|
001540  a5d5              ADR      r5,|L1.6296|
001542  e7eb              B        |L1.5404|
                  |L1.5444|
001544  a5d7              ADR      r5,|L1.6308|
001546  e7e9              B        |L1.5404|
                  |L1.5448|
001548  a5d9              ADR      r5,|L1.6320|
00154a  e7e7              B        |L1.5404|
                  |L1.5452|
00154c  a5da              ADR      r5,|L1.6328|
00154e  e7e5              B        |L1.5404|
                  |L1.5456|
001550  78a0              LDRB     r0,[r4,#2]            ;861
001552  2831              CMP      r0,#0x31              ;861
001554  d088              BEQ      |L1.5224|
001556  2832              CMP      r0,#0x32              ;861
                  |L1.5464|
001558  e577              B        |L1.4170|
                  |L1.5466|
00155a  48d9              LDR      r0,|L1.6336|
00155c  78a1              LDRB     r1,[r4,#2]            ;873
00155e  6840              LDR      r0,[r0,#4]            ;876
001560  2931              CMP      r1,#0x31              ;873
001562  d004              BEQ      |L1.5486|
001564  2932              CMP      r1,#0x32              ;873
001566  d009              BEQ      |L1.5500|
001568  2933              CMP      r1,#0x33              ;873
00156a  d186              BNE      |L1.5242|
00156c  e01b              B        |L1.5542|
                  |L1.5486|
00156e  4602              MOV      r2,r0                 ;876
001570  1d21              ADDS     r1,r4,#4              ;876
001572  4638              MOV      r0,r7                 ;876
001574  f7fffffe          BL       __2sprintf
001578  4605              MOV      r5,r0                 ;876
                  |L1.5498|
00157a  e566              B        |L1.4170|
                  |L1.5500|
00157c  f7fffffe          BL       __aeabi_ui2f
001580  f7fffffe          BL       __aeabi_f2d
001584  f04f3266          MOV      r2,#0x66666666        ;879
001588  4bce              LDR      r3,|L1.6340|
00158a  f7fffffe          BL       __aeabi_dmul
00158e  f06f0209          MVN      r2,#9                 ;879
001592  f7fffffe          BL       __ARM_scalbn
001596  4602              MOV      r2,r0                 ;879
001598  460b              MOV      r3,r1                 ;879
00159a  1d21              ADDS     r1,r4,#4              ;879
00159c  4638              MOV      r0,r7                 ;879
00159e  f7fffffe          BL       __2sprintf
0015a2  4605              MOV      r5,r0                 ;879
                  |L1.5540|
0015a4  e551              B        |L1.4170|
                  |L1.5542|
0015a6  49c6              LDR      r1,|L1.6336|
0015a8  f04f0264          MOV      r2,#0x64              ;882
0015ac  fb00f002          MUL      r0,r0,r2              ;882
0015b0  ea4f2290          LSR      r2,r0,#10             ;882
0015b4  604a              STR      r2,[r1,#4]            ;882  ; adv
0015b6  f1040104          ADD      r1,r4,#4              ;883
0015ba  4638              MOV      r0,r7                 ;883
0015bc  f7fffffe          BL       __2sprintf
0015c0  4605              MOV      r5,r0                 ;883
                  |L1.5570|
0015c2  e542              B        |L1.4170|
                  |L1.5572|
0015c4  7860              LDRB     r0,[r4,#1]            ;890
0015c6  2831              CMP      r0,#0x31              ;890
0015c8  d006              BEQ      |L1.5592|
0015ca  2832              CMP      r0,#0x32              ;890
0015cc  d00e              BEQ      |L1.5612|
0015ce  2833              CMP      r0,#0x33              ;890
0015d0  d016              BEQ      |L1.5632|
0015d2  2834              CMP      r0,#0x34              ;890
0015d4  d1ab              BNE      |L1.5422|
0015d6  e01d              B        |L1.5652|
                  |L1.5592|
0015d8  2000              MOVS     r0,#0                 ;892
0015da  f7fffffe          BL       http_tm_sk_output
0015de  4602              MOV      r2,r0                 ;892
0015e0  1ce1              ADDS     r1,r4,#3              ;892
0015e2  4638              MOV      r0,r7                 ;892
0015e4  f7fffffe          BL       __2sprintf
0015e8  4605              MOV      r5,r0                 ;892
                  |L1.5610|
0015ea  e52e              B        |L1.4170|
                  |L1.5612|
0015ec  2001              MOVS     r0,#1                 ;895
0015ee  f7fffffe          BL       http_tm_sk_output
0015f2  4602              MOV      r2,r0                 ;895
0015f4  1ce1              ADDS     r1,r4,#3              ;895
0015f6  4638              MOV      r0,r7                 ;895
0015f8  f7fffffe          BL       __2sprintf
0015fc  4605              MOV      r5,r0                 ;895
0015fe  e524              B        |L1.4170|
                  |L1.5632|
001600  2002              MOVS     r0,#2                 ;898
001602  f7fffffe          BL       http_tm_sk_output
001606  4602              MOV      r2,r0                 ;898
001608  1ce1              ADDS     r1,r4,#3              ;898
00160a  4638              MOV      r0,r7                 ;898
00160c  f7fffffe          BL       __2sprintf
001610  4605              MOV      r5,r0                 ;898
                  |L1.5650|
001612  e51a              B        |L1.4170|
                  |L1.5652|
001614  2003              MOVS     r0,#3                 ;901
001616  f7fffffe          BL       http_tm_sk_output
00161a  4602              MOV      r2,r0                 ;901
00161c  1ce1              ADDS     r1,r4,#3              ;901
00161e  4638              MOV      r0,r7                 ;901
001620  f7fffffe          BL       __2sprintf
001624  4605              MOV      r5,r0                 ;901
                  |L1.5670|
001626  e510              B        |L1.4170|
001628  7860              LDRB     r0,[r4,#1]            ;907
00162a  2831              CMP      r0,#0x31              ;907
00162c  d004              BEQ      |L1.5688|
00162e  2832              CMP      r0,#0x32              ;907
001630  d00b              BEQ      |L1.5706|
001632  2833              CMP      r0,#0x33              ;907
001634  d190              BNE      |L1.5464|
001636  e011              B        |L1.5724|
                  |L1.5688|
001638  48a3              LDR      r0,|L1.6344|
00163a  1ce1              ADDS     r1,r4,#3              ;909
00163c  f9b02000          LDRSH    r2,[r0,#0]            ;909  ; web_cnt_2hz
001640  4638              MOV      r0,r7                 ;909
001642  f7fffffe          BL       __2sprintf
001646  4605              MOV      r5,r0                 ;909
                  |L1.5704|
001648  e4ff              B        |L1.4170|
                  |L1.5706|
00164a  48a0              LDR      r0,|L1.6348|
00164c  1ce1              ADDS     r1,r4,#3              ;912
00164e  f9b02000          LDRSH    r2,[r0,#0]            ;912  ; web_cnt_main
001652  4638              MOV      r0,r7                 ;912
001654  f7fffffe          BL       __2sprintf
001658  4605              MOV      r5,r0                 ;912
                  |L1.5722|
00165a  e4f6              B        |L1.4170|
                  |L1.5724|
00165c  b133              CBZ      r3,|L1.5740|
00165e  a29c              ADR      r2,|L1.6352|
001660  1ce1              ADDS     r1,r4,#3              ;915
001662  4638              MOV      r0,r7                 ;915
001664  f7fffffe          BL       __2sprintf
001668  4605              MOV      r5,r0                 ;915
                  |L1.5738|
00166a  e4ee              B        |L1.4170|
                  |L1.5740|
00166c  a29a              ADR      r2,|L1.6360|
00166e  1ce1              ADDS     r1,r4,#3              ;916
001670  4638              MOV      r0,r7                 ;916
001672  f7fffffe          BL       __2sprintf
001676  4605              MOV      r5,r0                 ;916
                  |L1.5752|
001678  e4e7              B        |L1.4170|
00167a  7860              LDRB     r0,[r4,#1]            ;923
00167c  2846              CMP      r0,#0x46              ;923
00167e  d02c              BEQ      |L1.5850|
001680  dc07              BGT      |L1.5778|
001682  4997              LDR      r1,|L1.6368|
001684  2841              CMP      r0,#0x41              ;923
001686  d010              BEQ      |L1.5802|
001688  2842              CMP      r0,#0x42              ;923
00168a  d016              BEQ      |L1.5818|
00168c  2843              CMP      r0,#0x43              ;923
00168e  d189              BNE      |L1.5540|
001690  e01b              B        |L1.5834|
                  |L1.5778|
001692  2853              CMP      r0,#0x53              ;923
001694  d02a              BEQ      |L1.5868|
001696  286e              CMP      r0,#0x6e              ;923
001698  d184              BNE      |L1.5540|
00169a  4892              LDR      r0,|L1.6372|
00169c  1ce1              ADDS     r1,r4,#3              ;925
00169e  7802              LDRB     r2,[r0,#0]            ;925  ; http_power_num_of_phases
0016a0  4638              MOV      r0,r7                 ;925
0016a2  f7fffffe          BL       __2sprintf
0016a6  4605              MOV      r5,r0                 ;925
                  |L1.5800|
0016a8  e4cf              B        |L1.4170|
                  |L1.5802|
0016aa  f9b12000          LDRSH    r2,[r1,#0]            ;928  ; http_power_voltage_of_phase
0016ae  1ce1              ADDS     r1,r4,#3              ;928
0016b0  4638              MOV      r0,r7                 ;928
0016b2  f7fffffe          BL       __2sprintf
0016b6  4605              MOV      r5,r0                 ;928
0016b8  e4c7              B        |L1.4170|
                  |L1.5818|
0016ba  f9b12002          LDRSH    r2,[r1,#2]            ;931  ; http_power_voltage_of_phase
0016be  1ce1              ADDS     r1,r4,#3              ;931
0016c0  4638              MOV      r0,r7                 ;931
0016c2  f7fffffe          BL       __2sprintf
0016c6  4605              MOV      r5,r0                 ;931
0016c8  e4bf              B        |L1.4170|
                  |L1.5834|
0016ca  f9b12004          LDRSH    r2,[r1,#4]            ;934  ; http_power_voltage_of_phase
0016ce  1ce1              ADDS     r1,r4,#3              ;934
0016d0  4638              MOV      r0,r7                 ;934
0016d2  f7fffffe          BL       __2sprintf
0016d6  4605              MOV      r5,r0                 ;934
0016d8  e4b7              B        |L1.4170|
                  |L1.5850|
0016da  4883              LDR      r0,|L1.6376|
0016dc  1ce1              ADDS     r1,r4,#3              ;937
0016de  f9b02000          LDRSH    r2,[r0,#0]            ;937  ; http_power_frequncy
0016e2  4638              MOV      r0,r7                 ;937
0016e4  f7fffffe          BL       __2sprintf
0016e8  4605              MOV      r5,r0                 ;937
                  |L1.5866|
0016ea  e4ae              B        |L1.4170|
                  |L1.5868|
0016ec  487f              LDR      r0,|L1.6380|
0016ee  1ce1              ADDS     r1,r4,#3              ;940
0016f0  7802              LDRB     r2,[r0,#0]            ;940  ; http_power_status
0016f2  4638              MOV      r0,r7                 ;940
0016f4  f7fffffe          BL       __2sprintf
0016f8  4605              MOV      r5,r0                 ;940
0016fa  e4a6              B        |L1.4170|
0016fc  7860              LDRB     r0,[r4,#1]            ;946
0016fe  2831              CMP      r0,#0x31              ;946
001700  d004              BEQ      |L1.5900|
001702  2832              CMP      r0,#0x32              ;946
001704  d00c              BEQ      |L1.5920|
001706  2833              CMP      r0,#0x33              ;946
001708  d18d              BNE      |L1.5670|
00170a  e013              B        |L1.5940|
                  |L1.5900|
00170c  2000              MOVS     r0,#0                 ;948
00170e  f7fffffe          BL       http_tm_dt_output
001712  4602              MOV      r2,r0                 ;948
001714  1ce1              ADDS     r1,r4,#3              ;948
001716  4638              MOV      r0,r7                 ;948
001718  f7fffffe          BL       __2sprintf
00171c  4605              MOV      r5,r0                 ;948
00171e  e494              B        |L1.4170|
                  |L1.5920|
001720  2001              MOVS     r0,#1                 ;951
001722  f7fffffe          BL       http_tm_dt_output
001726  4602              MOV      r2,r0                 ;951
001728  1ce1              ADDS     r1,r4,#3              ;951
00172a  4638              MOV      r0,r7                 ;951
00172c  f7fffffe          BL       __2sprintf
001730  4605              MOV      r5,r0                 ;951
001732  e48a              B        |L1.4170|
                  |L1.5940|
001734  2002              MOVS     r0,#2                 ;954
001736  f7fffffe          BL       http_tm_dt_output
00173a  4602              MOV      r2,r0                 ;954
00173c  1ce1              ADDS     r1,r4,#3              ;954
00173e  4638              MOV      r0,r7                 ;954
001740  f7fffffe          BL       __2sprintf
001744  4605              MOV      r5,r0                 ;954
001746  e480              B        |L1.4170|
                  |L1.5960|
001748  4e69              LDR      r6,|L1.6384|
00174a  7860              LDRB     r0,[r4,#1]            ;961
00174c  7832              LDRB     r2,[r6,#0]            ;966
00174e  2830              CMP      r0,#0x30              ;961
001750  d017              BEQ      |L1.6018|
001752  2864              CMP      r0,#0x64              ;961
001754  d004              BEQ      |L1.5984|
001756  2865              CMP      r0,#0x65              ;961
001758  d028              BEQ      |L1.6060|
00175a  286e              CMP      r0,#0x6e              ;961
00175c  d185              BNE      |L1.5738|
00175e  e008              B        |L1.6002|
                  |L1.5984|
001760  f7fffffe          BL       http_get_log_deep
001764  4602              MOV      r2,r0                 ;963
001766  1ce1              ADDS     r1,r4,#3              ;963
001768  4638              MOV      r0,r7                 ;963
00176a  f7fffffe          BL       __2sprintf
00176e  4605              MOV      r5,r0                 ;963
001770  e46b              B        |L1.4170|
                  |L1.6002|
001772  1ce1              ADDS     r1,r4,#3              ;966
001774  4638              MOV      r0,r7                 ;966
001776  f7fffffe          BL       __2sprintf
00177a  4605              MOV      r5,r0                 ;966
00177c  f88a9000          STRB     r9,[r10,#0]           ;967
001780  e463              B        |L1.4170|
                  |L1.6018|
001782  b149              CBZ      r1,|L1.6040|
001784  b2d8              UXTB     r0,r3                 ;973
001786  f7fffffe          BL       http_get_log_rec
00178a  4602              MOV      r2,r0                 ;973
00178c  1ce1              ADDS     r1,r4,#3              ;973
00178e  4638              MOV      r0,r7                 ;973
001790  f7fffffe          BL       __2sprintf
001794  4605              MOV      r5,r0                 ;973
001796  e458              B        |L1.4170|
                  |L1.6040|
001798  4610              MOV      r0,r2                 ;970
00179a  f7fffffe          BL       http_get_log_rec
00179e  4602              MOV      r2,r0                 ;970
0017a0  1ce1              ADDS     r1,r4,#3              ;970
0017a2  4638              MOV      r0,r7                 ;970
0017a4  f7fffffe          BL       __2sprintf
0017a8  4605              MOV      r5,r0                 ;970
0017aa  e44e              B        |L1.4170|
                  |L1.6060|
0017ac  a051              ADR      r0,|L1.6388|
0017ae  f7fffffe          BL       pal_cyr_coder
0017b2  4602              MOV      r2,r0                 ;978
0017b4  1ce1              ADDS     r1,r4,#3              ;978
0017b6  4638              MOV      r0,r7                 ;978
0017b8  f7fffffe          BL       __2sprintf
0017bc  4605              MOV      r5,r0                 ;978
0017be  f7fffffe          BL       http_get_log_deep
0017c2  4601              MOV      r1,r0                 ;979
0017c4  7830              LDRB     r0,[r6,#0]            ;979  ; log_item_cnt
0017c6  1c40              ADDS     r0,r0,#1              ;979
0017c8  b2c0              UXTB     r0,r0                 ;979
0017ca  7030              STRB     r0,[r6,#0]            ;979
0017cc  4281              CMP      r1,r0                 ;979
0017ce  dc8c              BGT      |L1.5866|
0017d0  f8869000          STRB     r9,[r6,#0]            ;979
0017d4  e439              B        |L1.4170|
0017d6  7860              LDRB     r0,[r4,#1]            ;987
0017d8  2869              CMP      r0,#0x69              ;987
0017da  d00a              BEQ      |L1.6130|
0017dc  2875              CMP      r0,#0x75              ;987
0017de  d184              BNE      |L1.5866|
0017e0  4845              LDR      r0,|L1.6392|
0017e2  1ce1              ADDS     r1,r4,#3              ;989
0017e4  f9b02000          LDRSH    r2,[r0,#0]            ;989  ; load_U
0017e8  4638              MOV      r0,r7                 ;989
0017ea  f7fffffe          BL       __2sprintf
0017ee  4605              MOV      r5,r0                 ;989
0017f0  e42b              B        |L1.4170|
                  |L1.6130|
0017f2  4842              LDR      r0,|L1.6396|
0017f4  1ce1              ADDS     r1,r4,#3              ;992
0017f6  f9b02000          LDRSH    r2,[r0,#0]            ;992  ; load_I
0017fa  4638              MOV      r0,r7                 ;992
0017fc  f7fffffe          BL       __2sprintf
001800  4605              MOV      r5,r0                 ;992
001802  e422              B        |L1.4170|
                  |L1.6148|
001804  c8c1ddcf          DCB      200,193,221,207,"380/48-120",192,"-4/4",0
001808  3338302f
00180c  34382d31
001810  3230c02d
001814  342f3400
                  |L1.6168|
001818  c8c1ddcf          DCB      200,193,221,207,"220/48-120",192,"-4/4",0
00181c  3232302f
001820  34382d31
001824  3230c02d
001828  342f3400
                  |L1.6188|
                          DCD      place_holder
                  |L1.6192|
                          DCD      NUMBAT
                  |L1.6196|
                          DCD      NUMBYPASS
                  |L1.6200|
001838  656e00            DCB      "en",0
00183b  00                DCB      0
                  |L1.6204|
00183c  656e2d75          DCB      "en-us",0
001840  7300    
001842  00                DCB      0
001843  00                DCB      0
                  |L1.6212|
001844  656e2d67          DCB      "en-gb",0
001848  6200    
00184a  00                DCB      0
00184b  00                DCB      0
                  |L1.6220|
00184c  646500            DCB      "de",0
00184f  00                DCB      0
                  |L1.6224|
001850  64652d63          DCB      "de-ch",0
001854  6800    
001856  00                DCB      0
001857  00                DCB      0
                  |L1.6232|
001858  64652d61          DCB      "de-at",0
00185c  7400    
00185e  00                DCB      0
00185f  00                DCB      0
                  |L1.6240|
001860  667200            DCB      "fr",0
001863  00                DCB      0
                  |L1.6244|
001864  736c00            DCB      "sl",0
001867  00                DCB      0
                  |L1.6248|
001868  556e6b6e          DCB      "Unknown",0
00186c  6f776e00
                  |L1.6256|
001870  456e676c          DCB      "English",0
001874  69736800
                  |L1.6264|
001878  456e676c          DCB      "English USA",0
00187c  69736820
001880  55534100
                  |L1.6276|
001884  456e676c          DCB      "English GB",0
001888  69736820
00188c  474200  
00188f  00                DCB      0
                  |L1.6288|
001890  4765726d          DCB      "German",0
001894  616e00  
001897  00                DCB      0
                  |L1.6296|
001898  4765726d          DCB      "German CH",0
00189c  616e2043
0018a0  4800    
0018a2  00                DCB      0
0018a3  00                DCB      0
                  |L1.6308|
0018a4  4765726d          DCB      "German AT",0
0018a8  616e2041
0018ac  5400    
0018ae  00                DCB      0
0018af  00                DCB      0
                  |L1.6320|
0018b0  4672656e          DCB      "French",0
0018b4  636800  
0018b7  00                DCB      0
                  |L1.6328|
0018b8  536c6f76          DCB      "Slovene",0
0018bc  656e6500
                  |L1.6336|
                          DCD      ||.data||
                  |L1.6340|
                          DCD      0x400a6666
                  |L1.6344|
                          DCD      web_cnt_2hz
                  |L1.6348|
                          DCD      web_cnt_main
                  |L1.6352|
0018d0  6572726f          DCB      "error",0
0018d4  7200    
0018d6  00                DCB      0
0018d7  00                DCB      0
                  |L1.6360|
0018d8  676f6f64          DCB      "good",0
0018dc  00      
0018dd  00                DCB      0
0018de  00                DCB      0
0018df  00                DCB      0
                  |L1.6368|
                          DCD      http_power_voltage_of_phase
                  |L1.6372|
                          DCD      http_power_num_of_phases
                  |L1.6376|
                          DCD      http_power_frequncy
                  |L1.6380|
                          DCD      http_power_status
                  |L1.6384|
                          DCD      log_item_cnt
                  |L1.6388|
0018f4  656e6400          DCB      "end",0
                  |L1.6392|
                          DCD      load_U
                  |L1.6396|
                          DCD      load_I
001900  7860              LDRB     r0,[r4,#1]            ;999
001902  2830              CMP      r0,#0x30              ;999
001904  d002              BEQ      |L1.6412|
001906  2831              CMP      r0,#0x31              ;999
001908  d16f              BNE      |L1.6634|
00190a  e06f              B        |L1.6636|
                  |L1.6412|
00190c  78a0              LDRB     r0,[r4,#2]            ;1001
00190e  3830              SUBS     r0,r0,#0x30           ;1001
001910  280a              CMP      r0,#0xa               ;1001
001912  d26a              BCS      |L1.6634|
001914  e8dff000          TBB      [pc,r0]               ;1001
001918  050f1923          DCB      0x05,0x0f,0x19,0x23
00191c  2d37414b          DCB      0x2d,0x37,0x41,0x4b
001920  555f              DCB      0x55,0x5f
001922  2000              MOVS     r0,#0                 ;1003
001924  f7fffffe          BL       http_tm_src_output
001928  4602              MOV      r2,r0                 ;1003
00192a  1d21              ADDS     r1,r4,#4              ;1003
00192c  4638              MOV      r0,r7                 ;1003
00192e  f7fffffe          BL       __2sprintf
001932  4605              MOV      r5,r0                 ;1003
                  |L1.6452|
001934  e408              B        |L1.4424|
001936  2001              MOVS     r0,#1                 ;1006
001938  f7fffffe          BL       http_tm_src_output
00193c  4602              MOV      r2,r0                 ;1006
00193e  1d21              ADDS     r1,r4,#4              ;1006
001940  4638              MOV      r0,r7                 ;1006
001942  f7fffffe          BL       __2sprintf
001946  4605              MOV      r5,r0                 ;1006
001948  e42c              B        |L1.4516|
00194a  2002              MOVS     r0,#2                 ;1009
00194c  f7fffffe          BL       http_tm_src_output
001950  4602              MOV      r2,r0                 ;1009
001952  1d21              ADDS     r1,r4,#4              ;1009
001954  4638              MOV      r0,r7                 ;1009
001956  f7fffffe          BL       __2sprintf
00195a  4605              MOV      r5,r0                 ;1009
00195c  e422              B        |L1.4516|
00195e  2003              MOVS     r0,#3                 ;1012
001960  f7fffffe          BL       http_tm_src_output
001964  4602              MOV      r2,r0                 ;1012
001966  1d21              ADDS     r1,r4,#4              ;1012
001968  4638              MOV      r0,r7                 ;1012
00196a  f7fffffe          BL       __2sprintf
00196e  4605              MOV      r5,r0                 ;1012
001970  e418              B        |L1.4516|
001972  2004              MOVS     r0,#4                 ;1015
001974  f7fffffe          BL       http_tm_src_output
001978  4602              MOV      r2,r0                 ;1015
00197a  1d21              ADDS     r1,r4,#4              ;1015
00197c  4638              MOV      r0,r7                 ;1015
00197e  f7fffffe          BL       __2sprintf
001982  4605              MOV      r5,r0                 ;1015
001984  e40e              B        |L1.4516|
001986  2005              MOVS     r0,#5                 ;1018
001988  f7fffffe          BL       http_tm_src_output
00198c  4602              MOV      r2,r0                 ;1018
00198e  1d21              ADDS     r1,r4,#4              ;1018
001990  4638              MOV      r0,r7                 ;1018
001992  f7fffffe          BL       __2sprintf
001996  4605              MOV      r5,r0                 ;1018
001998  e404              B        |L1.4516|
00199a  2006              MOVS     r0,#6                 ;1021
00199c  f7fffffe          BL       http_tm_src_output
0019a0  4602              MOV      r2,r0                 ;1021
0019a2  1d21              ADDS     r1,r4,#4              ;1021
0019a4  4638              MOV      r0,r7                 ;1021
0019a6  f7fffffe          BL       __2sprintf
0019aa  4605              MOV      r5,r0                 ;1021
0019ac  e404              B        |L1.4536|
0019ae  2007              MOVS     r0,#7                 ;1024
0019b0  f7fffffe          BL       http_tm_src_output
0019b4  4602              MOV      r2,r0                 ;1024
0019b6  1d21              ADDS     r1,r4,#4              ;1024
0019b8  4638              MOV      r0,r7                 ;1024
0019ba  f7fffffe          BL       __2sprintf
0019be  4605              MOV      r5,r0                 ;1024
0019c0  e404              B        |L1.4556|
0019c2  2008              MOVS     r0,#8                 ;1027
0019c4  f7fffffe          BL       http_tm_src_output
0019c8  4602              MOV      r2,r0                 ;1027
0019ca  1d21              ADDS     r1,r4,#4              ;1027
0019cc  4638              MOV      r0,r7                 ;1027
0019ce  f7fffffe          BL       __2sprintf
0019d2  4605              MOV      r5,r0                 ;1027
0019d4  e410              B        |L1.4600|
0019d6  2009              MOVS     r0,#9                 ;1030
0019d8  f7fffffe          BL       http_tm_src_output
0019dc  4602              MOV      r2,r0                 ;1030
0019de  1d21              ADDS     r1,r4,#4              ;1030
0019e0  4638              MOV      r0,r7                 ;1030
0019e2  f7fffffe          BL       __2sprintf
0019e6  4605              MOV      r5,r0                 ;1030
0019e8  e406              B        |L1.4600|
                  |L1.6634|
0019ea  e249              B        |L1.7808|
                  |L1.6636|
0019ec  78a0              LDRB     r0,[r4,#2]            ;1035
0019ee  3830              SUBS     r0,r0,#0x30           ;1035
0019f0  280a              CMP      r0,#0xa               ;1035
0019f2  d29f              BCS      |L1.6452|
0019f4  e8dff000          TBB      [pc,r0]               ;1035
0019f8  050f1923          DCB      0x05,0x0f,0x19,0x23
0019fc  2d37414b          DCB      0x2d,0x37,0x41,0x4b
001a00  555f              DCB      0x55,0x5f
001a02  200a              MOVS     r0,#0xa               ;1037
001a04  f7fffffe          BL       http_tm_src_output
001a08  4602              MOV      r2,r0                 ;1037
001a0a  1d21              ADDS     r1,r4,#4              ;1037
001a0c  4638              MOV      r0,r7                 ;1037
001a0e  f7fffffe          BL       __2sprintf
001a12  4605              MOV      r5,r0                 ;1037
                  |L1.6676|
001a14  e404              B        |L1.4640|
001a16  200b              MOVS     r0,#0xb               ;1040
001a18  f7fffffe          BL       http_tm_src_output
001a1c  4602              MOV      r2,r0                 ;1040
001a1e  1d21              ADDS     r1,r4,#4              ;1040
001a20  4638              MOV      r0,r7                 ;1040
001a22  f7fffffe          BL       __2sprintf
001a26  4605              MOV      r5,r0                 ;1040
001a28  e404              B        |L1.4660|
001a2a  200c              MOVS     r0,#0xc               ;1043
001a2c  f7fffffe          BL       http_tm_src_output
001a30  4602              MOV      r2,r0                 ;1043
001a32  1d21              ADDS     r1,r4,#4              ;1043
001a34  4638              MOV      r0,r7                 ;1043
001a36  f7fffffe          BL       __2sprintf
001a3a  4605              MOV      r5,r0                 ;1043
001a3c  e404              B        |L1.4680|
001a3e  200d              MOVS     r0,#0xd               ;1046
001a40  f7fffffe          BL       http_tm_src_output
001a44  4602              MOV      r2,r0                 ;1046
001a46  1d21              ADDS     r1,r4,#4              ;1046
001a48  4638              MOV      r0,r7                 ;1046
001a4a  f7fffffe          BL       __2sprintf
001a4e  4605              MOV      r5,r0                 ;1046
001a50  e40a              B        |L1.4712|
001a52  200e              MOVS     r0,#0xe               ;1049
001a54  f7fffffe          BL       http_tm_src_output
001a58  4602              MOV      r2,r0                 ;1049
001a5a  1d21              ADDS     r1,r4,#4              ;1049
001a5c  4638              MOV      r0,r7                 ;1049
001a5e  f7fffffe          BL       __2sprintf
001a62  4605              MOV      r5,r0                 ;1049
001a64  e40a              B        |L1.4732|
001a66  200f              MOVS     r0,#0xf               ;1052
001a68  f7fffffe          BL       http_tm_src_output
001a6c  4602              MOV      r2,r0                 ;1052
001a6e  1d21              ADDS     r1,r4,#4              ;1052
001a70  4638              MOV      r0,r7                 ;1052
001a72  f7fffffe          BL       __2sprintf
001a76  4605              MOV      r5,r0                 ;1052
001a78  e40e              B        |L1.4760|
001a7a  2010              MOVS     r0,#0x10              ;1055
001a7c  f7fffffe          BL       http_tm_src_output
001a80  4602              MOV      r2,r0                 ;1055
001a82  1d21              ADDS     r1,r4,#4              ;1055
001a84  4638              MOV      r0,r7                 ;1055
001a86  f7fffffe          BL       __2sprintf
001a8a  4605              MOV      r5,r0                 ;1055
001a8c  e404              B        |L1.4760|
001a8e  2011              MOVS     r0,#0x11              ;1058
001a90  f7fffffe          BL       http_tm_src_output
001a94  4602              MOV      r2,r0                 ;1058
001a96  1d21              ADDS     r1,r4,#4              ;1058
001a98  4638              MOV      r0,r7                 ;1058
001a9a  f7fffffe          BL       __2sprintf
001a9e  4605              MOV      r5,r0                 ;1058
001aa0  e4c7              B        |L1.5170|
001aa2  2012              MOVS     r0,#0x12              ;1061
001aa4  f7fffffe          BL       http_tm_src_output
001aa8  4602              MOV      r2,r0                 ;1061
001aaa  1d21              ADDS     r1,r4,#4              ;1061
001aac  4638              MOV      r0,r7                 ;1061
001aae  f7fffffe          BL       __2sprintf
001ab2  4605              MOV      r5,r0                 ;1061
001ab4  e4bd              B        |L1.5170|
001ab6  2013              MOVS     r0,#0x13              ;1064
001ab8  f7fffffe          BL       http_tm_src_output
001abc  4602              MOV      r2,r0                 ;1064
001abe  1d21              ADDS     r1,r4,#4              ;1064
001ac0  4638              MOV      r0,r7                 ;1064
001ac2  f7fffffe          BL       __2sprintf
001ac6  4605              MOV      r5,r0                 ;1064
001ac8  e4b3              B        |L1.5170|
001aca  7860              LDRB     r0,[r4,#1]            ;1075
001acc  2834              CMP      r0,#0x34              ;1075
001ace  d070              BEQ      |L1.7090|
001ad0  dc08              BGT      |L1.6884|
001ad2  2830              CMP      r0,#0x30              ;1075
001ad4  d013              BEQ      |L1.6910|
001ad6  2831              CMP      r0,#0x31              ;1075
001ad8  d06f              BEQ      |L1.7098|
001ada  2832              CMP      r0,#0x32              ;1075
001adc  d06b              BEQ      |L1.7094|
001ade  2833              CMP      r0,#0x33              ;1075
001ae0  d198              BNE      |L1.6676|
001ae2  e121              B        |L1.7464|
                  |L1.6884|
001ae4  2835              CMP      r0,#0x35              ;1075
001ae6  d067              BEQ      |L1.7096|
001ae8  2836              CMP      r0,#0x36              ;1075
001aea  d079              BEQ      |L1.7136|
001aec  286e              CMP      r0,#0x6e              ;1075
001aee  d191              BNE      |L1.6676|
001af0  2240              MOVS     r2,#0x40              ;1077
001af2  1ce1              ADDS     r1,r4,#3              ;1077
001af4  4638              MOV      r0,r7                 ;1077
001af6  f7fffffe          BL       __2sprintf
001afa  4605              MOV      r5,r0                 ;1077
                  |L1.6908|
001afc  e499              B        |L1.5170|
                  |L1.6910|
001afe  78a0              LDRB     r0,[r4,#2]            ;1080
001b00  3830              SUBS     r0,r0,#0x30           ;1080
001b02  280a              CMP      r0,#0xa               ;1080
001b04  d286              BCS      |L1.6676|
001b06  e8dff000          TBB      [pc,r0]               ;1080
001b0a  050c              DCB      0x05,0x0c
001b0c  141c242c          DCB      0x14,0x1c,0x24,0x2c
001b10  343c444c          DCB      0x34,0x3c,0x44,0x4c
001b14  4af8              LDR      r2,|L1.7928|
001b16  1d21              ADDS     r1,r4,#4              ;1082
001b18  4638              MOV      r0,r7                 ;1082
001b1a  f7fffffe          BL       __2sprintf
001b1e  4605              MOV      r5,r0                 ;1082
001b20  e487              B        |L1.5170|
001b22  4af5              LDR      r2,|L1.7928|
001b24  1d21              ADDS     r1,r4,#4              ;1085
001b26  3208              ADDS     r2,r2,#8              ;1085
001b28  4638              MOV      r0,r7                 ;1085
001b2a  f7fffffe          BL       __2sprintf
001b2e  4605              MOV      r5,r0                 ;1085
001b30  e47f              B        |L1.5170|
001b32  4af1              LDR      r2,|L1.7928|
001b34  1d21              ADDS     r1,r4,#4              ;1088
001b36  3210              ADDS     r2,r2,#0x10           ;1088
001b38  4638              MOV      r0,r7                 ;1088
001b3a  f7fffffe          BL       __2sprintf
001b3e  4605              MOV      r5,r0                 ;1088
001b40  e477              B        |L1.5170|
001b42  4aed              LDR      r2,|L1.7928|
001b44  1d21              ADDS     r1,r4,#4              ;1091
001b46  3218              ADDS     r2,r2,#0x18           ;1091
001b48  4638              MOV      r0,r7                 ;1091
001b4a  f7fffffe          BL       __2sprintf
001b4e  4605              MOV      r5,r0                 ;1091
001b50  e46f              B        |L1.5170|
001b52  4ae9              LDR      r2,|L1.7928|
001b54  1d21              ADDS     r1,r4,#4              ;1094
001b56  3220              ADDS     r2,r2,#0x20           ;1094
001b58  4638              MOV      r0,r7                 ;1094
001b5a  f7fffffe          BL       __2sprintf
001b5e  4605              MOV      r5,r0                 ;1094
001b60  e467              B        |L1.5170|
001b62  4ae5              LDR      r2,|L1.7928|
001b64  1d21              ADDS     r1,r4,#4              ;1097
001b66  3228              ADDS     r2,r2,#0x28           ;1097
001b68  4638              MOV      r0,r7                 ;1097
001b6a  f7fffffe          BL       __2sprintf
001b6e  4605              MOV      r5,r0                 ;1097
001b70  e45f              B        |L1.5170|
001b72  4ae1              LDR      r2,|L1.7928|
001b74  1d21              ADDS     r1,r4,#4              ;1100
001b76  3230              ADDS     r2,r2,#0x30           ;1100
001b78  4638              MOV      r0,r7                 ;1100
001b7a  f7fffffe          BL       __2sprintf
001b7e  4605              MOV      r5,r0                 ;1100
001b80  e457              B        |L1.5170|
001b82  4add              LDR      r2,|L1.7928|
001b84  1d21              ADDS     r1,r4,#4              ;1103
001b86  3238              ADDS     r2,r2,#0x38           ;1103
001b88  4638              MOV      r0,r7                 ;1103
001b8a  f7fffffe          BL       __2sprintf
001b8e  4605              MOV      r5,r0                 ;1103
                  |L1.7056|
001b90  e44f              B        |L1.5170|
001b92  4ad9              LDR      r2,|L1.7928|
001b94  1d21              ADDS     r1,r4,#4              ;1106
001b96  3240              ADDS     r2,r2,#0x40           ;1106
001b98  4638              MOV      r0,r7                 ;1106
001b9a  f7fffffe          BL       __2sprintf
001b9e  4605              MOV      r5,r0                 ;1106
001ba0  e447              B        |L1.5170|
001ba2  4ad5              LDR      r2,|L1.7928|
001ba4  1d21              ADDS     r1,r4,#4              ;1109
001ba6  3248              ADDS     r2,r2,#0x48           ;1109
001ba8  4638              MOV      r0,r7                 ;1109
001baa  f7fffffe          BL       __2sprintf
001bae  4605              MOV      r5,r0                 ;1109
001bb0  e43f              B        |L1.5170|
                  |L1.7090|
001bb2  e113              B        |L1.7644|
001bb4  e001              B        |L1.7098|
                  |L1.7094|
001bb6  e05c              B        |L1.7282|
                  |L1.7096|
001bb8  e16b              B        |L1.7826|
                  |L1.7098|
001bba  78a0              LDRB     r0,[r4,#2]            ;1114
001bbc  3830              SUBS     r0,r0,#0x30           ;1114
001bbe  280a              CMP      r0,#0xa               ;1114
001bc0  d29c              BCS      |L1.6908|
001bc2  e8dff000          TBB      [pc,r0]               ;1114
001bc6  050e              DCB      0x05,0x0e
001bc8  161e262e          DCB      0x16,0x1e,0x26,0x2e
001bcc  363e464e          DCB      0x36,0x3e,0x46,0x4e
001bd0  4ac9              LDR      r2,|L1.7928|
001bd2  1d21              ADDS     r1,r4,#4              ;1116
001bd4  3250              ADDS     r2,r2,#0x50           ;1116
001bd6  4638              MOV      r0,r7                 ;1116
001bd8  f7fffffe          BL       __2sprintf
001bdc  4605              MOV      r5,r0                 ;1116
001bde  e428              B        |L1.5170|
                  |L1.7136|
001be0  e1b5              B        |L1.8014|
001be2  4ac5              LDR      r2,|L1.7928|
001be4  1d21              ADDS     r1,r4,#4              ;1119
001be6  3258              ADDS     r2,r2,#0x58           ;1119
001be8  4638              MOV      r0,r7                 ;1119
001bea  f7fffffe          BL       __2sprintf
001bee  4605              MOV      r5,r0                 ;1119
001bf0  e41f              B        |L1.5170|
001bf2  4ac1              LDR      r2,|L1.7928|
001bf4  1d21              ADDS     r1,r4,#4              ;1122
001bf6  3260              ADDS     r2,r2,#0x60           ;1122
001bf8  4638              MOV      r0,r7                 ;1122
001bfa  f7fffffe          BL       __2sprintf
001bfe  4605              MOV      r5,r0                 ;1122
001c00  e417              B        |L1.5170|
001c02  4abd              LDR      r2,|L1.7928|
001c04  1d21              ADDS     r1,r4,#4              ;1125
001c06  3268              ADDS     r2,r2,#0x68           ;1125
001c08  4638              MOV      r0,r7                 ;1125
001c0a  f7fffffe          BL       __2sprintf
001c0e  4605              MOV      r5,r0                 ;1125
001c10  e40f              B        |L1.5170|
001c12  4ab9              LDR      r2,|L1.7928|
001c14  1d21              ADDS     r1,r4,#4              ;1128
001c16  3270              ADDS     r2,r2,#0x70           ;1128
001c18  4638              MOV      r0,r7                 ;1128
001c1a  f7fffffe          BL       __2sprintf
001c1e  4605              MOV      r5,r0                 ;1128
001c20  e407              B        |L1.5170|
001c22  4ab5              LDR      r2,|L1.7928|
001c24  1d21              ADDS     r1,r4,#4              ;1131
001c26  3278              ADDS     r2,r2,#0x78           ;1131
001c28  4638              MOV      r0,r7                 ;1131
001c2a  f7fffffe          BL       __2sprintf
001c2e  4605              MOV      r5,r0                 ;1131
001c30  e409              B        |L1.5190|
001c32  4ab1              LDR      r2,|L1.7928|
001c34  1d21              ADDS     r1,r4,#4              ;1134
001c36  3280              ADDS     r2,r2,#0x80           ;1134
001c38  4638              MOV      r0,r7                 ;1134
001c3a  f7fffffe          BL       __2sprintf
001c3e  4605              MOV      r5,r0                 ;1134
                  |L1.7232|
001c40  e408              B        |L1.5204|
001c42  4aad              LDR      r2,|L1.7928|
001c44  1d21              ADDS     r1,r4,#4              ;1137
001c46  3288              ADDS     r2,r2,#0x88           ;1137
001c48  4638              MOV      r0,r7                 ;1137
001c4a  f7fffffe          BL       __2sprintf
001c4e  4605              MOV      r5,r0                 ;1137
001c50  e40a              B        |L1.5224|
001c52  4aa9              LDR      r2,|L1.7928|
001c54  1d21              ADDS     r1,r4,#4              ;1140
001c56  3290              ADDS     r2,r2,#0x90           ;1140
001c58  4638              MOV      r0,r7                 ;1140
001c5a  f7fffffe          BL       __2sprintf
001c5e  4605              MOV      r5,r0                 ;1140
001c60  e40b              B        |L1.5242|
001c62  4aa5              LDR      r2,|L1.7928|
001c64  1d21              ADDS     r1,r4,#4              ;1143
001c66  3298              ADDS     r2,r2,#0x98           ;1143
001c68  4638              MOV      r0,r7                 ;1143
001c6a  f7fffffe          BL       __2sprintf
001c6e  4605              MOV      r5,r0                 ;1143
001c70  e409              B        |L1.5254|
                  |L1.7282|
001c72  78a0              LDRB     r0,[r4,#2]            ;1148
001c74  3830              SUBS     r0,r0,#0x30           ;1148
001c76  280a              CMP      r0,#0xa               ;1148
001c78  d28a              BCS      |L1.7056|
001c7a  e8dff000          TBB      [pc,r0]               ;1148
001c7e  050d              DCB      0x05,0x0d
001c80  151d252d          DCB      0x15,0x1d,0x25,0x2d
001c84  353d454d          DCB      0x35,0x3d,0x45,0x4d
001c88  4a9b              LDR      r2,|L1.7928|
001c8a  1d21              ADDS     r1,r4,#4              ;1150
001c8c  32a0              ADDS     r2,r2,#0xa0           ;1150
001c8e  4638              MOV      r0,r7                 ;1150
001c90  f7fffffe          BL       __2sprintf
001c94  4605              MOV      r5,r0                 ;1150
001c96  e406              B        |L1.5286|
001c98  4a97              LDR      r2,|L1.7928|
001c9a  1d21              ADDS     r1,r4,#4              ;1153
001c9c  32a8              ADDS     r2,r2,#0xa8           ;1153
001c9e  4638              MOV      r0,r7                 ;1153
001ca0  f7fffffe          BL       __2sprintf
001ca4  4605              MOV      r5,r0                 ;1153
001ca6  e405              B        |L1.5300|
001ca8  4a93              LDR      r2,|L1.7928|
001caa  1d21              ADDS     r1,r4,#4              ;1156
001cac  32b0              ADDS     r2,r2,#0xb0           ;1156
001cae  4638              MOV      r0,r7                 ;1156
001cb0  f7fffffe          BL       __2sprintf
001cb4  4605              MOV      r5,r0                 ;1156
001cb6  e404              B        |L1.5314|
001cb8  4a8f              LDR      r2,|L1.7928|
001cba  1d21              ADDS     r1,r4,#4              ;1159
001cbc  32b8              ADDS     r2,r2,#0xb8           ;1159
001cbe  4638              MOV      r0,r7                 ;1159
001cc0  f7fffffe          BL       __2sprintf
001cc4  4605              MOV      r5,r0                 ;1159
001cc6  e432              B        |L1.5422|
001cc8  4a8b              LDR      r2,|L1.7928|
001cca  1d21              ADDS     r1,r4,#4              ;1162
001ccc  32c0              ADDS     r2,r2,#0xc0           ;1162
001cce  4638              MOV      r0,r7                 ;1162
001cd0  f7fffffe          BL       __2sprintf
001cd4  4605              MOV      r5,r0                 ;1162
001cd6  e42a              B        |L1.5422|
001cd8  4a87              LDR      r2,|L1.7928|
001cda  1d21              ADDS     r1,r4,#4              ;1165
001cdc  32c8              ADDS     r2,r2,#0xc8           ;1165
001cde  4638              MOV      r0,r7                 ;1165
001ce0  f7fffffe          BL       __2sprintf
001ce4  4605              MOV      r5,r0                 ;1165
001ce6  e422              B        |L1.5422|
001ce8  4a83              LDR      r2,|L1.7928|
001cea  1d21              ADDS     r1,r4,#4              ;1168
001cec  32d0              ADDS     r2,r2,#0xd0           ;1168
001cee  4638              MOV      r0,r7                 ;1168
001cf0  f7fffffe          BL       __2sprintf
001cf4  4605              MOV      r5,r0                 ;1168
                  |L1.7414|
001cf6  e41a              B        |L1.5422|
001cf8  4a7f              LDR      r2,|L1.7928|
001cfa  1d21              ADDS     r1,r4,#4              ;1171
001cfc  32d8              ADDS     r2,r2,#0xd8           ;1171
001cfe  4638              MOV      r0,r7                 ;1171
001d00  f7fffffe          BL       __2sprintf
001d04  4605              MOV      r5,r0                 ;1171
001d06  e412              B        |L1.5422|
001d08  4a7b              LDR      r2,|L1.7928|
001d0a  1d21              ADDS     r1,r4,#4              ;1174
001d0c  32e0              ADDS     r2,r2,#0xe0           ;1174
001d0e  4638              MOV      r0,r7                 ;1174
001d10  f7fffffe          BL       __2sprintf
001d14  4605              MOV      r5,r0                 ;1174
001d16  e40a              B        |L1.5422|
001d18  4a77              LDR      r2,|L1.7928|
001d1a  1d21              ADDS     r1,r4,#4              ;1177
001d1c  32e8              ADDS     r2,r2,#0xe8           ;1177
001d1e  4638              MOV      r0,r7                 ;1177
001d20  f7fffffe          BL       __2sprintf
001d24  4605              MOV      r5,r0                 ;1177
001d26  e417              B        |L1.5464|
                  |L1.7464|
001d28  78a0              LDRB     r0,[r4,#2]            ;1182
001d2a  3830              SUBS     r0,r0,#0x30           ;1182
001d2c  280a              CMP      r0,#0xa               ;1182
001d2e  d287              BCS      |L1.7232|
001d30  e8dff000          TBB      [pc,r0]               ;1182
001d34  050d151c          DCB      0x05,0x0d,0x15,0x1c
001d38  242c343c          DCB      0x24,0x2c,0x34,0x3c
001d3c  444c              DCB      0x44,0x4c
001d3e  4a6e              LDR      r2,|L1.7928|
001d40  1d21              ADDS     r1,r4,#4              ;1184
001d42  32f0              ADDS     r2,r2,#0xf0           ;1184
001d44  4638              MOV      r0,r7                 ;1184
001d46  f7fffffe          BL       __2sprintf
001d4a  4605              MOV      r5,r0                 ;1184
001d4c  e404              B        |L1.5464|
001d4e  4a6a              LDR      r2,|L1.7928|
001d50  1d21              ADDS     r1,r4,#4              ;1187
001d52  32f8              ADDS     r2,r2,#0xf8           ;1187
001d54  4638              MOV      r0,r7                 ;1187
001d56  f7fffffe          BL       __2sprintf
001d5a  4605              MOV      r5,r0                 ;1187
001d5c  e40d              B        |L1.5498|
001d5e  4a67              LDR      r2,|L1.7932|
001d60  1d21              ADDS     r1,r4,#4              ;1190
001d62  4638              MOV      r0,r7                 ;1190
001d64  f7fffffe          BL       __2sprintf
001d68  4605              MOV      r5,r0                 ;1190
001d6a  e406              B        |L1.5498|
001d6c  4a63              LDR      r2,|L1.7932|
001d6e  1d21              ADDS     r1,r4,#4              ;1193
001d70  3208              ADDS     r2,r2,#8              ;1193
001d72  4638              MOV      r0,r7                 ;1193
001d74  f7fffffe          BL       __2sprintf
001d78  4605              MOV      r5,r0                 ;1193
001d7a  e413              B        |L1.5540|
001d7c  4a5f              LDR      r2,|L1.7932|
001d7e  1d21              ADDS     r1,r4,#4              ;1196
001d80  3210              ADDS     r2,r2,#0x10           ;1196
001d82  4638              MOV      r0,r7                 ;1196
001d84  f7fffffe          BL       __2sprintf
001d88  4605              MOV      r5,r0                 ;1196
001d8a  e40b              B        |L1.5540|
001d8c  4a5b              LDR      r2,|L1.7932|
001d8e  1d21              ADDS     r1,r4,#4              ;1199
001d90  3218              ADDS     r2,r2,#0x18           ;1199
001d92  4638              MOV      r0,r7                 ;1199
001d94  f7fffffe          BL       __2sprintf
001d98  4605              MOV      r5,r0                 ;1199
001d9a  e412              B        |L1.5570|
001d9c  4a57              LDR      r2,|L1.7932|
001d9e  1d21              ADDS     r1,r4,#4              ;1202
001da0  3220              ADDS     r2,r2,#0x20           ;1202
001da2  4638              MOV      r0,r7                 ;1202
001da4  f7fffffe          BL       __2sprintf
001da8  4605              MOV      r5,r0                 ;1202
                  |L1.7594|
001daa  e40a              B        |L1.5570|
001dac  4a53              LDR      r2,|L1.7932|
001dae  1d21              ADDS     r1,r4,#4              ;1205
001db0  3228              ADDS     r2,r2,#0x28           ;1205
001db2  4638              MOV      r0,r7                 ;1205
001db4  f7fffffe          BL       __2sprintf
001db8  4605              MOV      r5,r0                 ;1205
001dba  e416              B        |L1.5610|
001dbc  4a4f              LDR      r2,|L1.7932|
001dbe  1d21              ADDS     r1,r4,#4              ;1208
001dc0  3230              ADDS     r2,r2,#0x30           ;1208
001dc2  4638              MOV      r0,r7                 ;1208
001dc4  f7fffffe          BL       __2sprintf
001dc8  4605              MOV      r5,r0                 ;1208
001dca  e40e              B        |L1.5610|
001dcc  4a4b              LDR      r2,|L1.7932|
001dce  1d21              ADDS     r1,r4,#4              ;1211
001dd0  3238              ADDS     r2,r2,#0x38           ;1211
001dd2  4638              MOV      r0,r7                 ;1211
001dd4  f7fffffe          BL       __2sprintf
001dd8  4605              MOV      r5,r0                 ;1211
001dda  e406              B        |L1.5610|
                  |L1.7644|
001ddc  78a0              LDRB     r0,[r4,#2]            ;1216
001dde  3830              SUBS     r0,r0,#0x30           ;1216
001de0  280a              CMP      r0,#0xa               ;1216
001de2  d288              BCS      |L1.7414|
001de4  e8dff000          TBB      [pc,r0]               ;1216
001de8  050d151d          DCB      0x05,0x0d,0x15,0x1d
001dec  252d353d          DCB      0x25,0x2d,0x35,0x3d
001df0  454d              DCB      0x45,0x4d
001df2  4a42              LDR      r2,|L1.7932|
001df4  1d21              ADDS     r1,r4,#4              ;1218
001df6  3240              ADDS     r2,r2,#0x40           ;1218
001df8  4638              MOV      r0,r7                 ;1218
001dfa  f7fffffe          BL       __2sprintf
001dfe  4605              MOV      r5,r0                 ;1218
001e00  e407              B        |L1.5650|
001e02  4a3e              LDR      r2,|L1.7932|
001e04  1d21              ADDS     r1,r4,#4              ;1221
001e06  3248              ADDS     r2,r2,#0x48           ;1221
001e08  4638              MOV      r0,r7                 ;1221
001e0a  f7fffffe          BL       __2sprintf
001e0e  4605              MOV      r5,r0                 ;1221
001e10  e409              B        |L1.5670|
001e12  4a3a              LDR      r2,|L1.7932|
001e14  1d21              ADDS     r1,r4,#4              ;1224
001e16  3250              ADDS     r2,r2,#0x50           ;1224
001e18  4638              MOV      r0,r7                 ;1224
001e1a  f7fffffe          BL       __2sprintf
001e1e  4605              MOV      r5,r0                 ;1224
001e20  e412              B        |L1.5704|
001e22  4a36              LDR      r2,|L1.7932|
001e24  1d21              ADDS     r1,r4,#4              ;1227
001e26  3258              ADDS     r2,r2,#0x58           ;1227
001e28  4638              MOV      r0,r7                 ;1227
001e2a  f7fffffe          BL       __2sprintf
001e2e  4605              MOV      r5,r0                 ;1227
001e30  e40a              B        |L1.5704|
001e32  4a32              LDR      r2,|L1.7932|
001e34  1d21              ADDS     r1,r4,#4              ;1230
001e36  3260              ADDS     r2,r2,#0x60           ;1230
001e38  4638              MOV      r0,r7                 ;1230
001e3a  f7fffffe          BL       __2sprintf
001e3e  4605              MOV      r5,r0                 ;1230
001e40  e40b              B        |L1.5722|
001e42  4a2e              LDR      r2,|L1.7932|
001e44  1d21              ADDS     r1,r4,#4              ;1233
001e46  3268              ADDS     r2,r2,#0x68           ;1233
001e48  4638              MOV      r0,r7                 ;1233
001e4a  f7fffffe          BL       __2sprintf
001e4e  4605              MOV      r5,r0                 ;1233
001e50  e40b              B        |L1.5738|
001e52  4a2a              LDR      r2,|L1.7932|
001e54  1d21              ADDS     r1,r4,#4              ;1236
001e56  3270              ADDS     r2,r2,#0x70           ;1236
001e58  4638              MOV      r0,r7                 ;1236
001e5a  f7fffffe          BL       __2sprintf
001e5e  4605              MOV      r5,r0                 ;1236
001e60  e40a              B        |L1.5752|
001e62  4a26              LDR      r2,|L1.7932|
001e64  1d21              ADDS     r1,r4,#4              ;1239
001e66  3278              ADDS     r2,r2,#0x78           ;1239
001e68  4638              MOV      r0,r7                 ;1239
001e6a  f7fffffe          BL       __2sprintf
001e6e  4605              MOV      r5,r0                 ;1239
                  |L1.7792|
001e70  e41a              B        |L1.5800|
001e72  4a22              LDR      r2,|L1.7932|
001e74  1d21              ADDS     r1,r4,#4              ;1242
001e76  3280              ADDS     r2,r2,#0x80           ;1242
001e78  4638              MOV      r0,r7                 ;1242
001e7a  f7fffffe          BL       __2sprintf
001e7e  4605              MOV      r5,r0                 ;1242
                  |L1.7808|
001e80  e206              B        |L1.8848|
001e82  4a1e              LDR      r2,|L1.7932|
001e84  1d21              ADDS     r1,r4,#4              ;1245
001e86  3288              ADDS     r2,r2,#0x88           ;1245
001e88  4638              MOV      r0,r7                 ;1245
001e8a  f7fffffe          BL       __2sprintf
001e8e  4605              MOV      r5,r0                 ;1245
001e90  e1fe              B        |L1.8848|
                  |L1.7826|
001e92  78a0              LDRB     r0,[r4,#2]            ;1250
001e94  3830              SUBS     r0,r0,#0x30           ;1250
001e96  280a              CMP      r0,#0xa               ;1250
001e98  d287              BCS      |L1.7594|
001e9a  e8dff000          TBB      [pc,r0]               ;1250
001e9e  050d              DCB      0x05,0x0d
001ea0  151d2531          DCB      0x15,0x1d,0x25,0x31
001ea4  38404850          DCB      0x38,0x40,0x48,0x50
001ea8  4a14              LDR      r2,|L1.7932|
001eaa  1d21              ADDS     r1,r4,#4              ;1252
001eac  3290              ADDS     r2,r2,#0x90           ;1252
001eae  4638              MOV      r0,r7                 ;1252
001eb0  f7fffffe          BL       __2sprintf
001eb4  4605              MOV      r5,r0                 ;1252
001eb6  e1eb              B        |L1.8848|
001eb8  4a10              LDR      r2,|L1.7932|
001eba  1d21              ADDS     r1,r4,#4              ;1255
001ebc  3298              ADDS     r2,r2,#0x98           ;1255
001ebe  4638              MOV      r0,r7                 ;1255
001ec0  f7fffffe          BL       __2sprintf
001ec4  4605              MOV      r5,r0                 ;1255
001ec6  e1e3              B        |L1.8848|
001ec8  4a0c              LDR      r2,|L1.7932|
001eca  1d21              ADDS     r1,r4,#4              ;1258
001ecc  32a0              ADDS     r2,r2,#0xa0           ;1258
001ece  4638              MOV      r0,r7                 ;1258
001ed0  f7fffffe          BL       __2sprintf
001ed4  4605              MOV      r5,r0                 ;1258
                  |L1.7894|
001ed6  e1db              B        |L1.8848|
001ed8  4a08              LDR      r2,|L1.7932|
001eda  1d21              ADDS     r1,r4,#4              ;1261
001edc  32a8              ADDS     r2,r2,#0xa8           ;1261
001ede  4638              MOV      r0,r7                 ;1261
001ee0  f7fffffe          BL       __2sprintf
001ee4  4605              MOV      r5,r0                 ;1261
001ee6  e1d3              B        |L1.8848|
001ee8  4a04              LDR      r2,|L1.7932|
001eea  1d21              ADDS     r1,r4,#4              ;1264
001eec  32b0              ADDS     r2,r2,#0xb0           ;1264
001eee  4638              MOV      r0,r7                 ;1264
001ef0  f7fffffe          BL       __2sprintf
001ef4  4605              MOV      r5,r0                 ;1264
                  |L1.7926|
001ef6  e1cb              B        |L1.8848|
                  |L1.7928|
                          DCD      snmp_enmv_data
                  |L1.7932|
                          DCD      snmp_enmv_data+0x100
001f00  4af8              LDR      r2,|L1.8932|
001f02  1d21              ADDS     r1,r4,#4              ;1267
001f04  4638              MOV      r0,r7                 ;1267
001f06  f7fffffe          BL       __2sprintf
001f0a  4605              MOV      r5,r0                 ;1267
                  |L1.7948|
001f0c  e1c0              B        |L1.8848|
001f0e  4af5              LDR      r2,|L1.8932|
001f10  1d21              ADDS     r1,r4,#4              ;1270
001f12  3208              ADDS     r2,r2,#8              ;1270
001f14  4638              MOV      r0,r7                 ;1270
001f16  f7fffffe          BL       __2sprintf
001f1a  4605              MOV      r5,r0                 ;1270
001f1c  e1b8              B        |L1.8848|
001f1e  4af1              LDR      r2,|L1.8932|
001f20  1d21              ADDS     r1,r4,#4              ;1273
001f22  3210              ADDS     r2,r2,#0x10           ;1273
001f24  4638              MOV      r0,r7                 ;1273
001f26  f7fffffe          BL       __2sprintf
001f2a  4605              MOV      r5,r0                 ;1273
001f2c  e1b0              B        |L1.8848|
001f2e  4aed              LDR      r2,|L1.8932|
001f30  1d21              ADDS     r1,r4,#4              ;1276
001f32  3218              ADDS     r2,r2,#0x18           ;1276
001f34  4638              MOV      r0,r7                 ;1276
001f36  f7fffffe          BL       __2sprintf
001f3a  4605              MOV      r5,r0                 ;1276
001f3c  e1a8              B        |L1.8848|
001f3e  4ae9              LDR      r2,|L1.8932|
001f40  1d21              ADDS     r1,r4,#4              ;1279
001f42  3220              ADDS     r2,r2,#0x20           ;1279
001f44  4638              MOV      r0,r7                 ;1279
001f46  f7fffffe          BL       __2sprintf
001f4a  4605              MOV      r5,r0                 ;1279
001f4c  e1a0              B        |L1.8848|
                  |L1.8014|
001f4e  78a0              LDRB     r0,[r4,#2]            ;1284
001f50  2830              CMP      r0,#0x30              ;1284
001f52  d006              BEQ      |L1.8034|
001f54  2831              CMP      r0,#0x31              ;1284
001f56  d00c              BEQ      |L1.8050|
001f58  2832              CMP      r0,#0x32              ;1284
001f5a  d012              BEQ      |L1.8066|
001f5c  2833              CMP      r0,#0x33              ;1284
001f5e  d187              BNE      |L1.7792|
001f60  e017              B        |L1.8082|
                  |L1.8034|
001f62  4ae0              LDR      r2,|L1.8932|
001f64  1d21              ADDS     r1,r4,#4              ;1286
001f66  3228              ADDS     r2,r2,#0x28           ;1286
001f68  4638              MOV      r0,r7                 ;1286
001f6a  f7fffffe          BL       __2sprintf
001f6e  4605              MOV      r5,r0                 ;1286
001f70  e18e              B        |L1.8848|
                  |L1.8050|
001f72  4adc              LDR      r2,|L1.8932|
001f74  1d21              ADDS     r1,r4,#4              ;1289
001f76  3230              ADDS     r2,r2,#0x30           ;1289
001f78  4638              MOV      r0,r7                 ;1289
001f7a  f7fffffe          BL       __2sprintf
001f7e  4605              MOV      r5,r0                 ;1289
001f80  e186              B        |L1.8848|
                  |L1.8066|
001f82  4ad8              LDR      r2,|L1.8932|
001f84  1d21              ADDS     r1,r4,#4              ;1292
001f86  3238              ADDS     r2,r2,#0x38           ;1292
001f88  4638              MOV      r0,r7                 ;1292
001f8a  f7fffffe          BL       __2sprintf
001f8e  4605              MOV      r5,r0                 ;1292
001f90  e17e              B        |L1.8848|
                  |L1.8082|
001f92  4ad4              LDR      r2,|L1.8932|
001f94  1d21              ADDS     r1,r4,#4              ;1295
001f96  3240              ADDS     r2,r2,#0x40           ;1295
001f98  4638              MOV      r0,r7                 ;1295
001f9a  f7fffffe          BL       __2sprintf
001f9e  4605              MOV      r5,r0                 ;1295
001fa0  e176              B        |L1.8848|
001fa2  7860              LDRB     r0,[r4,#1]            ;1305
001fa4  4bd0              LDR      r3,|L1.8936|
001fa6  4ed1              LDR      r6,|L1.8940|
001fa8  2834              CMP      r0,#0x34              ;1305
001faa  d071              BEQ      |L1.8336|
001fac  dc08              BGT      |L1.8128|
001fae  2830              CMP      r0,#0x30              ;1305
001fb0  d01c              BEQ      |L1.8172|
001fb2  2831              CMP      r0,#0x31              ;1305
001fb4  d06d              BEQ      |L1.8338|
001fb6  2832              CMP      r0,#0x32              ;1305
001fb8  d06c              BEQ      |L1.8340|
001fba  2833              CMP      r0,#0x33              ;1305
001fbc  d18b              BNE      |L1.7894|
001fbe  e172              B        |L1.8870|
                  |L1.8128|
001fc0  f8dfc32c          LDR      r12,|L1.8944|
001fc4  4ecb              LDR      r6,|L1.8948|
001fc6  f2411878          MOV      r8,#0x1178            ;1552
001fca  f9bc3006          LDRSH    r3,[r12,#6]           ;1544
001fce  f9b66000          LDRSH    r6,[r6,#0]            ;1549
001fd2  2835              CMP      r0,#0x35              ;1305
001fd4  d073              BEQ      |L1.8382|
001fd6  2836              CMP      r0,#0x36              ;1305
001fd8  d072              BEQ      |L1.8384|
001fda  286e              CMP      r0,#0x6e              ;1305
001fdc  d18b              BNE      |L1.7926|
001fde  2242              MOVS     r2,#0x42              ;1307
001fe0  1ce1              ADDS     r1,r4,#3              ;1307
001fe2  4638              MOV      r0,r7                 ;1307
001fe4  f7fffffe          BL       __2sprintf
001fe8  4605              MOV      r5,r0                 ;1307
001fea  e151              B        |L1.8848|
                  |L1.8172|
001fec  78a0              LDRB     r0,[r4,#2]            ;1310
001fee  3831              SUBS     r0,r0,#0x31           ;1310
001ff0  2809              CMP      r0,#9                 ;1310
001ff2  d28b              BCS      |L1.7948|
001ff4  e8dff000          TBB      [pc,r0]               ;1310
001ff8  050d1826          DCB      0x05,0x0d,0x18,0x26
001ffc  34424f59          DCB      0x34,0x42,0x4f,0x59
002000  6500              DCB      0x65,0x00
002002  a3bd              ADR      r3,|L1.8952|
002004  4662              MOV      r2,r12                ;1312
002006  1d21              ADDS     r1,r4,#4              ;1312
002008  4638              MOV      r0,r7                 ;1312
00200a  f7fffffe          BL       __2sprintf
00200e  4605              MOV      r5,r0                 ;1312
                  |L1.8208|
002010  e13e              B        |L1.8848|
002012  48ba              LDR      r0,|L1.8956|
002014  f7fffffe          BL       pal_cyr_coder
002018  4603              MOV      r3,r0                 ;1315
00201a  2200              MOVS     r2,#0                 ;1315
00201c  1d21              ADDS     r1,r4,#4              ;1315
00201e  4638              MOV      r0,r7                 ;1315
002020  f7fffffe          BL       __2sprintf
002024  4605              MOV      r5,r0                 ;1315
002026  e133              B        |L1.8848|
002028  48b5              LDR      r0,|L1.8960|
00202a  8800              LDRH     r0,[r0,#0]            ;1318  ; ZV_ON
00202c  2801              CMP      r0,#1                 ;1318
00202e  d007              BEQ      |L1.8256|
002030  2200              MOVS     r2,#0                 ;1318
                  |L1.8242|
002032  a3b1              ADR      r3,|L1.8952|
002034  1d21              ADDS     r1,r4,#4              ;1318
002036  4638              MOV      r0,r7                 ;1318
002038  f7fffffe          BL       __2sprintf
00203c  4605              MOV      r5,r0                 ;1318
00203e  e127              B        |L1.8848|
                  |L1.8256|
002040  2201              MOVS     r2,#1                 ;1318
002042  e7f6              B        |L1.8242|
002044  48af              LDR      r0,|L1.8964|
002046  8800              LDRH     r0,[r0,#0]            ;1321  ; PAR
002048  2801              CMP      r0,#1                 ;1321
00204a  d007              BEQ      |L1.8284|
00204c  2200              MOVS     r2,#0                 ;1321
                  |L1.8270|
00204e  a3aa              ADR      r3,|L1.8952|
002050  1d21              ADDS     r1,r4,#4              ;1321
002052  4638              MOV      r0,r7                 ;1321
002054  f7fffffe          BL       __2sprintf
002058  4605              MOV      r5,r0                 ;1321
00205a  e119              B        |L1.8848|
                  |L1.8284|
00205c  2201              MOVS     r2,#1                 ;1321
00205e  e7f6              B        |L1.8270|
002060  48a9              LDR      r0,|L1.8968|
002062  8800              LDRH     r0,[r0,#0]            ;1324  ; AV_OFF_AVT
002064  2801              CMP      r0,#1                 ;1324
002066  d007              BEQ      |L1.8312|
002068  2200              MOVS     r2,#0                 ;1324
                  |L1.8298|
00206a  a3a3              ADR      r3,|L1.8952|
00206c  1d21              ADDS     r1,r4,#4              ;1324
00206e  4638              MOV      r0,r7                 ;1324
002070  f7fffffe          BL       __2sprintf
002074  4605              MOV      r5,r0                 ;1324
002076  e10b              B        |L1.8848|
                  |L1.8312|
002078  2201              MOVS     r2,#1                 ;1324
00207a  e7f6              B        |L1.8298|
00207c  48a3              LDR      r0,|L1.8972|
00207e  a39e              ADR      r3,|L1.8952|
002080  1d21              ADDS     r1,r4,#4              ;1327
002082  f9b02000          LDRSH    r2,[r0,#0]            ;1327  ; UMN
002086  4638              MOV      r0,r7                 ;1327
002088  f7fffffe          BL       __2sprintf
00208c  4605              MOV      r5,r0                 ;1327
00208e  e0ff              B        |L1.8848|
                  |L1.8336|
002090  e1ff              B        |L1.9362|
                  |L1.8338|
002092  e021              B        |L1.8408|
                  |L1.8340|
002094  e090              B        |L1.8632|
002096  489e              LDR      r0,|L1.8976|
002098  a397              ADR      r3,|L1.8952|
00209a  1d21              ADDS     r1,r4,#4              ;1330
00209c  f9b02000          LDRSH    r2,[r0,#0]            ;1330  ; UMAXN
0020a0  4638              MOV      r0,r7                 ;1330
0020a2  f7fffffe          BL       __2sprintf
0020a6  4605              MOV      r5,r0                 ;1330
0020a8  e0f2              B        |L1.8848|
0020aa  489a              LDR      r0,|L1.8980|
0020ac  a392              ADR      r3,|L1.8952|
0020ae  1d21              ADDS     r1,r4,#4              ;1333
0020b0  f9b02000          LDRSH    r2,[r0,#0]            ;1333  ; FORVARDBPSCHHOUR
0020b4  4638              MOV      r0,r7                 ;1333
0020b6  f7fffffe          BL       __2sprintf
0020ba  4605              MOV      r5,r0                 ;1333
0020bc  e0e8              B        |L1.8848|
                  |L1.8382|
0020be  e294              B        |L1.9706|
                  |L1.8384|
0020c0  e334              B        |L1.10028|
0020c2  a095              ADR      r0,|L1.8984|
0020c4  f7fffffe          BL       pal_cyr_coder
0020c8  4603              MOV      r3,r0                 ;1336
0020ca  2200              MOVS     r2,#0                 ;1336
0020cc  1d21              ADDS     r1,r4,#4              ;1336
0020ce  4638              MOV      r0,r7                 ;1336
0020d0  f7fffffe          BL       __2sprintf
0020d4  4605              MOV      r5,r0                 ;1336
                  |L1.8406|
0020d6  e0db              B        |L1.8848|
                  |L1.8408|
0020d8  499c              LDR      r1,|L1.9036|
0020da  78a0              LDRB     r0,[r4,#2]            ;1341
0020dc  3830              SUBS     r0,r0,#0x30           ;1341
0020de  f9b12000          LDRSH    r2,[r1,#0]            ;1352
0020e2  280a              CMP      r0,#0xa               ;1341
0020e4  d294              BCS      |L1.8208|
0020e6  e8dff000          TBB      [pc,r0]               ;1341
0020ea  050f              DCB      0x05,0x0f
0020ec  19232e35          DCB      0x19,0x23,0x2e,0x35
0020f0  3f49535d          DCB      0x3f,0x49,0x53,0x5d
0020f4  4896              LDR      r0,|L1.9040|
0020f6  a380              ADR      r3,|L1.8952|
0020f8  1d21              ADDS     r1,r4,#4              ;1343
0020fa  f9b02000          LDRSH    r2,[r0,#0]            ;1343  ; IMAX
0020fe  4638              MOV      r0,r7                 ;1343
002100  f7fffffe          BL       __2sprintf
002104  4605              MOV      r5,r0                 ;1343
002106  e3f0              B        |L1.10474|
002108  4892              LDR      r0,|L1.9044|
00210a  a37b              ADR      r3,|L1.8952|
00210c  1d21              ADDS     r1,r4,#4              ;1346
00210e  f9b02000          LDRSH    r2,[r0,#0]            ;1346  ; IMIN
002112  4638              MOV      r0,r7                 ;1346
002114  f7fffffe          BL       __2sprintf
002118  4605              MOV      r5,r0                 ;1346
00211a  e3e6              B        |L1.10474|
00211c  488e              LDR      r0,|L1.9048|
00211e  a376              ADR      r3,|L1.8952|
002120  1d21              ADDS     r1,r4,#4              ;1349
002122  f9b02000          LDRSH    r2,[r0,#0]            ;1349  ; UMAX
002126  4638              MOV      r0,r7                 ;1349
002128  f7fffffe          BL       __2sprintf
00212c  4605              MOV      r5,r0                 ;1349
00212e  e3dc              B        |L1.10474|
002130  488a              LDR      r0,|L1.9052|
002132  a371              ADR      r3,|L1.8952|
002134  1d21              ADDS     r1,r4,#4              ;1352
002136  f9b00000          LDRSH    r0,[r0,#0]            ;1352  ; DU
00213a  1a12              SUBS     r2,r2,r0              ;1352
00213c  4638              MOV      r0,r7                 ;1352
00213e  f7fffffe          BL       __2sprintf
002142  4605              MOV      r5,r0                 ;1352
002144  e3d1              B        |L1.10474|
002146  a36c              ADR      r3,|L1.8952|
002148  1d21              ADDS     r1,r4,#4              ;1355
00214a  4638              MOV      r0,r7                 ;1355
00214c  f7fffffe          BL       __2sprintf
002150  4605              MOV      r5,r0                 ;1355
002152  e3ca              B        |L1.10474|
002154  4882              LDR      r0,|L1.9056|
002156  a368              ADR      r3,|L1.8952|
002158  1d21              ADDS     r1,r4,#4              ;1358
00215a  f9b02000          LDRSH    r2,[r0,#0]            ;1358  ; UB0
00215e  4638              MOV      r0,r7                 ;1358
002160  f7fffffe          BL       __2sprintf
002164  4605              MOV      r5,r0                 ;1358
002166  e3c0              B        |L1.10474|
002168  487e              LDR      r0,|L1.9060|
00216a  a363              ADR      r3,|L1.8952|
00216c  1d21              ADDS     r1,r4,#4              ;1361
00216e  f9b02000          LDRSH    r2,[r0,#0]            ;1361  ; USIGN
002172  4638              MOV      r0,r7                 ;1361
002174  f7fffffe          BL       __2sprintf
002178  4605              MOV      r5,r0                 ;1361
00217a  e3b6              B        |L1.10474|
00217c  487a              LDR      r0,|L1.9064|
00217e  a35e              ADR      r3,|L1.8952|
002180  1d21              ADDS     r1,r4,#4              ;1364
002182  f9b02000          LDRSH    r2,[r0,#0]            ;1364  ; IZMAX
002186  4638              MOV      r0,r7                 ;1364
002188  f7fffffe          BL       __2sprintf
00218c  4605              MOV      r5,r0                 ;1364
00218e  e3ac              B        |L1.10474|
002190  4876              LDR      r0,|L1.9068|
002192  a359              ADR      r3,|L1.8952|
002194  1d21              ADDS     r1,r4,#4              ;1367
002196  f9b02000          LDRSH    r2,[r0,#0]            ;1367  ; TBATSIGN
00219a  4638              MOV      r0,r7                 ;1367
00219c  f7fffffe          BL       __2sprintf
0021a0  4605              MOV      r5,r0                 ;1367
0021a2  e3a2              B        |L1.10474|
0021a4  4872              LDR      r0,|L1.9072|
0021a6  a354              ADR      r3,|L1.8952|
0021a8  1d21              ADDS     r1,r4,#4              ;1370
0021aa  f9b02000          LDRSH    r2,[r0,#0]            ;1370  ; TBATMAX
0021ae  4638              MOV      r0,r7                 ;1370
0021b0  f7fffffe          BL       __2sprintf
0021b4  4605              MOV      r5,r0                 ;1370
0021b6  e398              B        |L1.10474|
                  |L1.8632|
0021b8  78a0              LDRB     r0,[r4,#2]            ;1375
0021ba  3830              SUBS     r0,r0,#0x30           ;1375
0021bc  280a              CMP      r0,#0xa               ;1375
0021be  d28a              BCS      |L1.8406|
0021c0  e8dff000          TBB      [pc,r0]               ;1375
0021c4  050f1923          DCB      0x05,0x0f,0x19,0x23
0021c8  2d374553          DCB      0x2d,0x37,0x45,0x53
0021cc  5d67              DCB      0x5d,0x67
0021ce  4869              LDR      r0,|L1.9076|
0021d0  a349              ADR      r3,|L1.8952|
0021d2  1d21              ADDS     r1,r4,#4              ;1377
0021d4  f9b02000          LDRSH    r2,[r0,#0]            ;1377  ; UVZ
0021d8  4638              MOV      r0,r7                 ;1377
0021da  f7fffffe          BL       __2sprintf
0021de  4605              MOV      r5,r0                 ;1377
                  |L1.8672|
0021e0  e383              B        |L1.10474|
0021e2  4865              LDR      r0,|L1.9080|
0021e4  a344              ADR      r3,|L1.8952|
0021e6  1d21              ADDS     r1,r4,#4              ;1380
0021e8  f9b02000          LDRSH    r2,[r0,#0]            ;1380  ; VZ_HR
0021ec  4638              MOV      r0,r7                 ;1380
0021ee  f7fffffe          BL       __2sprintf
0021f2  4605              MOV      r5,r0                 ;1380
0021f4  e379              B        |L1.10474|
0021f6  4861              LDR      r0,|L1.9084|
0021f8  a33f              ADR      r3,|L1.8952|
0021fa  1d21              ADDS     r1,r4,#4              ;1383
0021fc  f9b02000          LDRSH    r2,[r0,#0]            ;1383  ; TSIGN
002200  4638              MOV      r0,r7                 ;1383
002202  f7fffffe          BL       __2sprintf
002206  4605              MOV      r5,r0                 ;1383
002208  e36f              B        |L1.10474|
00220a  485d              LDR      r0,|L1.9088|
00220c  a33a              ADR      r3,|L1.8952|
00220e  1d21              ADDS     r1,r4,#4              ;1386
002210  f9b02000          LDRSH    r2,[r0,#0]            ;1386  ; TMAX
002214  4638              MOV      r0,r7                 ;1386
002216  f7fffffe          BL       __2sprintf
00221a  4605              MOV      r5,r0                 ;1386
00221c  e365              B        |L1.10474|
00221e  4859              LDR      r0,|L1.9092|
002220  a335              ADR      r3,|L1.8952|
002222  1d21              ADDS     r1,r4,#4              ;1389
002224  f9b02000          LDRSH    r2,[r0,#0]            ;1389  ; TZAS
002228  4638              MOV      r0,r7                 ;1389
00222a  f7fffffe          BL       __2sprintf
00222e  4605              MOV      r5,r0                 ;1389
002230  e35b              B        |L1.10474|
002232  4855              LDR      r0,|L1.9096|
002234  7800              LDRB     r0,[r0,#0]            ;1392  ; APV_ON1
002236  2801              CMP      r0,#1                 ;1392
002238  d007              BEQ      |L1.8778|
00223a  2200              MOVS     r2,#0                 ;1392
                  |L1.8764|
00223c  a32e              ADR      r3,|L1.8952|
00223e  1d21              ADDS     r1,r4,#4              ;1392
002240  4638              MOV      r0,r7                 ;1392
002242  f7fffffe          BL       __2sprintf
002246  4605              MOV      r5,r0                 ;1392
002248  e34f              B        |L1.10474|
                  |L1.8778|
00224a  2201              MOVS     r2,#1                 ;1392
00224c  e7f6              B        |L1.8764|
00224e  484f              LDR      r0,|L1.9100|
002250  7800              LDRB     r0,[r0,#0]            ;1395  ; APV_ON2
002252  2801              CMP      r0,#1                 ;1395
002254  d007              BEQ      |L1.8806|
002256  2200              MOVS     r2,#0                 ;1395
                  |L1.8792|
002258  a327              ADR      r3,|L1.8952|
00225a  1d21              ADDS     r1,r4,#4              ;1395
00225c  4638              MOV      r0,r7                 ;1395
00225e  f7fffffe          BL       __2sprintf
002262  4605              MOV      r5,r0                 ;1395
002264  e341              B        |L1.10474|
                  |L1.8806|
002266  2201              MOVS     r2,#1                 ;1395
002268  e7f6              B        |L1.8792|
00226a  4849              LDR      r0,|L1.9104|
00226c  a322              ADR      r3,|L1.8952|
00226e  1d21              ADDS     r1,r4,#4              ;1398
002270  f9b02000          LDRSH    r2,[r0,#0]            ;1398  ; APV_ON2_TIME
002274  4638              MOV      r0,r7                 ;1398
002276  f7fffffe          BL       __2sprintf
00227a  4605              MOV      r5,r0                 ;1398
00227c  e335              B        |L1.10474|
00227e  4845              LDR      r0,|L1.9108|
002280  a31d              ADR      r3,|L1.8952|
002282  1d21              ADDS     r1,r4,#4              ;1401
002284  f9b02000          LDRSH    r2,[r0,#0]            ;1401  ; U0B
002288  4638              MOV      r0,r7                 ;1401
00228a  f7fffffe          BL       __2sprintf
00228e  4605              MOV      r5,r0                 ;1401
                  |L1.8848|
002290  e32b              B        |L1.10474|
002292  4841              LDR      r0,|L1.9112|
002294  a318              ADR      r3,|L1.8952|
002296  1d21              ADDS     r1,r4,#4              ;1404
002298  f9b02000          LDRSH    r2,[r0,#0]            ;1404  ; TBAT
00229c  4638              MOV      r0,r7                 ;1404
00229e  f7fffffe          BL       __2sprintf
0022a2  4605              MOV      r5,r0                 ;1404
0022a4  e321              B        |L1.10474|
                  |L1.8870|
0022a6  78a1              LDRB     r1,[r4,#2]            ;1409
0022a8  483c              LDR      r0,|L1.9116|
0022aa  3930              SUBS     r1,r1,#0x30           ;1409
0022ac  290a              CMP      r1,#0xa               ;1409
0022ae  d297              BCS      |L1.8672|
0022b0  e8dff001          TBB      [pc,r1]               ;1409
0022b4  050f7882          DCB      0x05,0x0f,0x78,0x82
0022b8  8c96a0aa          DCB      0x8c,0x96,0xa0,0xaa
0022bc  cfdf              DCB      0xcf,0xdf
0022be  4838              LDR      r0,|L1.9120|
0022c0  a30d              ADR      r3,|L1.8952|
0022c2  1d21              ADDS     r1,r4,#4              ;1411
0022c4  f9b02000          LDRSH    r2,[r0,#0]            ;1411  ; IKB
0022c8  4638              MOV      r0,r7                 ;1411
0022ca  f7fffffe          BL       __2sprintf
0022ce  4605              MOV      r5,r0                 ;1411
0022d0  e30b              B        |L1.10474|
0022d2  8f82              LDRH     r2,[r0,#0x3c]         ;1414
0022d4  a308              ADR      r3,|L1.8952|
0022d6  1d21              ADDS     r1,r4,#4              ;1414
0022d8  4638              MOV      r0,r7                 ;1414
0022da  f7fffffe          BL       __2sprintf
0022de  4605              MOV      r5,r0                 ;1414
0022e0  e303              B        |L1.10474|
0022e2  0000              DCW      0x0000
                  |L1.8932|
                          DCD      snmp_enmv_data+0x1b8
                  |L1.8936|
                          DCD      sk_stat
                  |L1.8940|
                          DCD      SK_SIGN
                  |L1.8944|
                          DCD      SK_ZVUK_EN
                  |L1.8948|
                          DCD      SNTP_GMT
                  |L1.8952|
0022f8  2000              DCB      " ",0
0022fa  00                DCB      0
0022fb  00                DCB      0
                  |L1.8956|
                          DCD      place_holder
                  |L1.8960|
                          DCD      ZV_ON
                  |L1.8964|
                          DCD      PAR
                  |L1.8968|
                          DCD      AV_OFF_AVT
                  |L1.8972|
                          DCD      UMN
                  |L1.8976|
                          DCD      UMAXN
                  |L1.8980|
                          DCD      FORVARDBPSCHHOUR
                  |L1.8984|
002318  cdeee2ee          DCB      205,238,226,238,241,232,225,232,240,241,234," ",205,238,226
00231c  f1e8e1e8
002320  f0f1ea20
002324  cdeee2  
002327  eeebf3e3          DCB      238,235,243,227,238,226,238,229," 1234567890123456789012"
00232b  eee2eee5
00232f  20313233
002333  34353637
002337  38393031
00233b  32333435
00233f  36373839
002343  303132  
002346  333400            DCB      "34",0
002349  00                DCB      0
00234a  00                DCB      0
00234b  00                DCB      0
                  |L1.9036|
                          DCD      UB20
                  |L1.9040|
                          DCD      IMAX
                  |L1.9044|
                          DCD      IMIN
                  |L1.9048|
                          DCD      UMAX
                  |L1.9052|
                          DCD      ||DU||
                  |L1.9056|
                          DCD      UB0
                  |L1.9060|
                          DCD      USIGN
                  |L1.9064|
                          DCD      IZMAX
                  |L1.9068|
                          DCD      TBATSIGN
                  |L1.9072|
                          DCD      TBATMAX
                  |L1.9076|
                          DCD      UVZ
                  |L1.9080|
                          DCD      VZ_HR
                  |L1.9084|
                          DCD      TSIGN
                  |L1.9088|
                          DCD      TMAX
                  |L1.9092|
                          DCD      TZAS
                  |L1.9096|
                          DCD      APV_ON1
                  |L1.9100|
                          DCD      APV_ON2
                  |L1.9104|
                          DCD      APV_ON2_TIME
                  |L1.9108|
                          DCD      U0B
                  |L1.9112|
                          DCD      TBAT
                  |L1.9116|
                          DCD      0x40024000
                  |L1.9120|
                          DCD      IKB
0023a4  f8902038          LDRB     r2,[r0,#0x38]         ;1417
0023a8  f2af03b4          ADR      r3,|L1.8952|
0023ac  1d21              ADDS     r1,r4,#4              ;1417
0023ae  4638              MOV      r0,r7                 ;1417
0023b0  f7fffffe          BL       __2sprintf
0023b4  4605              MOV      r5,r0                 ;1417
                  |L1.9142|
0023b6  e298              B        |L1.10474|
0023b8  f890202c          LDRB     r2,[r0,#0x2c]         ;1420
0023bc  f2af03c8          ADR      r3,|L1.8952|
0023c0  1d21              ADDS     r1,r4,#4              ;1420
0023c2  4638              MOV      r0,r7                 ;1420
0023c4  f7fffffe          BL       __2sprintf
0023c8  4605              MOV      r5,r0                 ;1420
0023ca  e28e              B        |L1.10474|
0023cc  f8902028          LDRB     r2,[r0,#0x28]         ;1423
0023d0  f2af03dc          ADR      r3,|L1.8952|
0023d4  1d21              ADDS     r1,r4,#4              ;1423
0023d6  4638              MOV      r0,r7                 ;1423
0023d8  f7fffffe          BL       __2sprintf
0023dc  4605              MOV      r5,r0                 ;1423
0023de  e284              B        |L1.10474|
0023e0  f8902024          LDRB     r2,[r0,#0x24]         ;1426
0023e4  f2af03f0          ADR      r3,|L1.8952|
0023e8  1d21              ADDS     r1,r4,#4              ;1426
0023ea  4638              MOV      r0,r7                 ;1426
0023ec  f7fffffe          BL       __2sprintf
0023f0  4605              MOV      r5,r0                 ;1426
0023f2  e27a              B        |L1.10474|
0023f4  f8902020          LDRB     r2,[r0,#0x20]         ;1429
0023f8  f2af1304          ADR      r3,|L1.8952|
0023fc  1d21              ADDS     r1,r4,#4              ;1429
0023fe  4638              MOV      r0,r7                 ;1429
002400  f7fffffe          BL       __2sprintf
002404  4605              MOV      r5,r0                 ;1429
002406  e270              B        |L1.10474|
002408  48f8              LDR      r0,|L1.10220|
00240a  7800              LDRB     r0,[r0,#0]            ;1432  ; AVZ
00240c  2801              CMP      r0,#1                 ;1432
00240e  d011              BEQ      |L1.9268|
002410  2802              CMP      r0,#2                 ;1433
002412  d012              BEQ      |L1.9274|
002414  2803              CMP      r0,#3                 ;1434
002416  d013              BEQ      |L1.9280|
002418  2806              CMP      r0,#6                 ;1435
00241a  d014              BEQ      |L1.9286|
00241c  280c              CMP      r0,#0xc               ;1436
00241e  d015              BEQ      |L1.9292|
002420  f04f0200          MOV      r2,#0                 ;1437
                  |L1.9252|
002424  f2af1330          ADR      r3,|L1.8952|
002428  1d21              ADDS     r1,r4,#4              ;1438
00242a  4638              MOV      r0,r7                 ;1438
00242c  f7fffffe          BL       __2sprintf
002430  4605              MOV      r5,r0                 ;1438
002432  e25a              B        |L1.10474|
                  |L1.9268|
002434  f04f0201          MOV      r2,#1                 ;1432
002438  e7f4              B        |L1.9252|
                  |L1.9274|
00243a  f04f0202          MOV      r2,#2                 ;1433
00243e  e7f1              B        |L1.9252|
                  |L1.9280|
002440  f04f0203          MOV      r2,#3                 ;1434
002444  e7ee              B        |L1.9252|
                  |L1.9286|
002446  f04f0204          MOV      r2,#4                 ;1435
00244a  e7eb              B        |L1.9252|
                  |L1.9292|
00244c  f04f0205          MOV      r2,#5                 ;1436
002450  e7e8              B        |L1.9252|
002452  7818              LDRB     r0,[r3,#0]            ;1441  ; sk_stat
002454  2801              CMP      r0,#1                 ;1441
002456  d009              BEQ      |L1.9324|
002458  f04f0200          MOV      r2,#0                 ;1442
                  |L1.9308|
00245c  f2af1368          ADR      r3,|L1.8952|
002460  1d21              ADDS     r1,r4,#4              ;1443
002462  4638              MOV      r0,r7                 ;1443
002464  f7fffffe          BL       __2sprintf
002468  4605              MOV      r5,r0                 ;1443
00246a  e23e              B        |L1.10474|
                  |L1.9324|
00246c  f04f0201          MOV      r2,#1                 ;1441
002470  e7f4              B        |L1.9308|
002472  8830              LDRH     r0,[r6,#0]            ;1446  ; SK_SIGN
002474  2801              CMP      r0,#1                 ;1446
002476  d009              BEQ      |L1.9356|
002478  f04f0201          MOV      r2,#1                 ;1447
                  |L1.9340|
00247c  f2af1388          ADR      r3,|L1.8952|
002480  1d21              ADDS     r1,r4,#4              ;1448
002482  4638              MOV      r0,r7                 ;1448
002484  f7fffffe          BL       __2sprintf
002488  4605              MOV      r5,r0                 ;1448
00248a  e22e              B        |L1.10474|
                  |L1.9356|
00248c  f04f0200          MOV      r2,#0                 ;1446
002490  e7f4              B        |L1.9340|
                  |L1.9362|
002492  78a1              LDRB     r1,[r4,#2]            ;1453
002494  48d6              LDR      r0,|L1.10224|
002496  3930              SUBS     r1,r1,#0x30           ;1453
002498  290a              CMP      r1,#0xa               ;1453
00249a  d28c              BCS      |L1.9142|
00249c  e8dff001          TBB      [pc,r1]               ;1453
0024a0  05152535          DCB      0x05,0x15,0x25,0x35
0024a4  45556575          DCB      0x45,0x55,0x65,0x75
0024a8  8595              DCB      0x85,0x95
0024aa  7800              LDRB     r0,[r0,#0]            ;1455  ; sk_av_stat
0024ac  2801              CMP      r0,#1                 ;1455
0024ae  d009              BEQ      |L1.9412|
0024b0  f04f0200          MOV      r2,#0                 ;1456
                  |L1.9396|
0024b4  f2af13c0          ADR      r3,|L1.8952|
0024b8  1d21              ADDS     r1,r4,#4              ;1457
0024ba  4638              MOV      r0,r7                 ;1457
0024bc  f7fffffe          BL       __2sprintf
0024c0  4605              MOV      r5,r0                 ;1457
0024c2  e212              B        |L1.10474|
                  |L1.9412|
0024c4  f04f0201          MOV      r2,#1                 ;1455
0024c8  e7f4              B        |L1.9396|
0024ca  7858              LDRB     r0,[r3,#1]            ;1460  ; sk_stat
0024cc  2801              CMP      r0,#1                 ;1460
0024ce  d009              BEQ      |L1.9444|
0024d0  f04f0200          MOV      r2,#0                 ;1461
                  |L1.9428|
0024d4  f2af13e0          ADR      r3,|L1.8952|
0024d8  1d21              ADDS     r1,r4,#4              ;1462
0024da  4638              MOV      r0,r7                 ;1462
0024dc  f7fffffe          BL       __2sprintf
0024e0  4605              MOV      r5,r0                 ;1462
0024e2  e202              B        |L1.10474|
                  |L1.9444|
0024e4  f04f0201          MOV      r2,#1                 ;1460
0024e8  e7f4              B        |L1.9428|
0024ea  8870              LDRH     r0,[r6,#2]            ;1465  ; SK_SIGN
0024ec  2801              CMP      r0,#1                 ;1465
0024ee  d009              BEQ      |L1.9476|
0024f0  f04f0201          MOV      r2,#1                 ;1466
                  |L1.9460|
0024f4  f2af2300          ADR      r3,|L1.8952|
0024f8  1d21              ADDS     r1,r4,#4              ;1467
0024fa  4638              MOV      r0,r7                 ;1467
0024fc  f7fffffe          BL       __2sprintf
002500  4605              MOV      r5,r0                 ;1467
002502  e1f2              B        |L1.10474|
                  |L1.9476|
002504  f04f0200          MOV      r2,#0                 ;1465
002508  e7f4              B        |L1.9460|
00250a  7840              LDRB     r0,[r0,#1]            ;1470  ; sk_av_stat
00250c  2801              CMP      r0,#1                 ;1470
00250e  d009              BEQ      |L1.9508|
002510  f04f0200          MOV      r2,#0                 ;1471
                  |L1.9492|
002514  f2af2320          ADR      r3,|L1.8952|
002518  1d21              ADDS     r1,r4,#4              ;1472
00251a  4638              MOV      r0,r7                 ;1472
00251c  f7fffffe          BL       __2sprintf
002520  4605              MOV      r5,r0                 ;1472
002522  e1e2              B        |L1.10474|
                  |L1.9508|
002524  f04f0201          MOV      r2,#1                 ;1470
002528  e7f4              B        |L1.9492|
00252a  7898              LDRB     r0,[r3,#2]            ;1475  ; sk_stat
00252c  2801              CMP      r0,#1                 ;1475
00252e  d009              BEQ      |L1.9540|
002530  f04f0200          MOV      r2,#0                 ;1476
                  |L1.9524|
002534  f2af2340          ADR      r3,|L1.8952|
002538  1d21              ADDS     r1,r4,#4              ;1477
00253a  4638              MOV      r0,r7                 ;1477
00253c  f7fffffe          BL       __2sprintf
002540  4605              MOV      r5,r0                 ;1477
002542  e1d2              B        |L1.10474|
                  |L1.9540|
002544  f04f0201          MOV      r2,#1                 ;1475
002548  e7f4              B        |L1.9524|
00254a  88b0              LDRH     r0,[r6,#4]            ;1480  ; SK_SIGN
00254c  2801              CMP      r0,#1                 ;1480
00254e  d009              BEQ      |L1.9572|
002550  f04f0201          MOV      r2,#1                 ;1481
                  |L1.9556|
002554  f2af2360          ADR      r3,|L1.8952|
002558  1d21              ADDS     r1,r4,#4              ;1482
00255a  4638              MOV      r0,r7                 ;1482
00255c  f7fffffe          BL       __2sprintf
002560  4605              MOV      r5,r0                 ;1482
002562  e1c2              B        |L1.10474|
                  |L1.9572|
002564  f04f0200          MOV      r2,#0                 ;1480
002568  e7f4              B        |L1.9556|
00256a  7880              LDRB     r0,[r0,#2]            ;1485  ; sk_av_stat
00256c  2801              CMP      r0,#1                 ;1485
00256e  d009              BEQ      |L1.9604|
002570  f04f0200          MOV      r2,#0                 ;1486
                  |L1.9588|
002574  f2af2380          ADR      r3,|L1.8952|
002578  1d21              ADDS     r1,r4,#4              ;1487
00257a  4638              MOV      r0,r7                 ;1487
00257c  f7fffffe          BL       __2sprintf
002580  4605              MOV      r5,r0                 ;1487
002582  e1b2              B        |L1.10474|
                  |L1.9604|
002584  f04f0201          MOV      r2,#1                 ;1485
002588  e7f4              B        |L1.9588|
00258a  78d8              LDRB     r0,[r3,#3]            ;1490  ; sk_stat
00258c  2801              CMP      r0,#1                 ;1490
00258e  d009              BEQ      |L1.9636|
002590  f04f0200          MOV      r2,#0                 ;1491
                  |L1.9620|
002594  f2af23a0          ADR      r3,|L1.8952|
002598  1d21              ADDS     r1,r4,#4              ;1492
00259a  4638              MOV      r0,r7                 ;1492
00259c  f7fffffe          BL       __2sprintf
0025a0  4605              MOV      r5,r0                 ;1492
0025a2  e1a2              B        |L1.10474|
                  |L1.9636|
0025a4  f04f0201          MOV      r2,#1                 ;1490
0025a8  e7f4              B        |L1.9620|
0025aa  88f0              LDRH     r0,[r6,#6]            ;1495  ; SK_SIGN
0025ac  2801              CMP      r0,#1                 ;1495
0025ae  d009              BEQ      |L1.9668|
0025b0  f04f0201          MOV      r2,#1                 ;1496
                  |L1.9652|
0025b4  f2af23c0          ADR      r3,|L1.8952|
0025b8  1d21              ADDS     r1,r4,#4              ;1497
0025ba  4638              MOV      r0,r7                 ;1497
0025bc  f7fffffe          BL       __2sprintf
0025c0  4605              MOV      r5,r0                 ;1497
0025c2  e192              B        |L1.10474|
                  |L1.9668|
0025c4  f04f0200          MOV      r2,#0                 ;1495
0025c8  e7f4              B        |L1.9652|
0025ca  78c0              LDRB     r0,[r0,#3]            ;1500  ; sk_av_stat
0025cc  2801              CMP      r0,#1                 ;1500
0025ce  d009              BEQ      |L1.9700|
0025d0  f04f0200          MOV      r2,#0                 ;1501
                  |L1.9684|
0025d4  f2af23e0          ADR      r3,|L1.8952|
0025d8  1d21              ADDS     r1,r4,#4              ;1502
0025da  4638              MOV      r0,r7                 ;1502
0025dc  f7fffffe          BL       __2sprintf
0025e0  4605              MOV      r5,r0                 ;1502
0025e2  e182              B        |L1.10474|
                  |L1.9700|
0025e4  f04f0201          MOV      r2,#1                 ;1500
0025e8  e7f4              B        |L1.9684|
                  |L1.9706|
0025ea  78a1              LDRB     r1,[r4,#2]            ;1507
0025ec  4881              LDR      r0,|L1.10228|
0025ee  3930              SUBS     r1,r1,#0x30           ;1507
0025f0  290a              CMP      r1,#0xa               ;1507
0025f2  d211              BCS      |L1.9752|
0025f4  e8dff001          TBB      [pc,r1]               ;1507
0025f8  05142332          DCB      0x05,0x14,0x23,0x32
0025fc  41516171          DCB      0x41,0x51,0x61,0x71
002600  7f88              DCB      0x7f,0x88
002602  8800              LDRH     r0,[r0,#0]            ;1509  ; SK_LCD_EN
002604  b148              CBZ      r0,|L1.9754|
002606  f04f0200          MOV      r2,#0                 ;1510
                  |L1.9738|
00260a  f2af3314          ADR      r3,|L1.8952|
00260e  1d21              ADDS     r1,r4,#4              ;1511
002610  4638              MOV      r0,r7                 ;1511
002612  f7fffffe          BL       __2sprintf
002616  4605              MOV      r5,r0                 ;1511
                  |L1.9752|
002618  e167              B        |L1.10474|
                  |L1.9754|
00261a  f04f0201          MOV      r2,#1                 ;1509
00261e  e7f4              B        |L1.9738|
002620  8840              LDRH     r0,[r0,#2]            ;1514  ; SK_LCD_EN
002622  b148              CBZ      r0,|L1.9784|
002624  f04f0200          MOV      r2,#0                 ;1515
                  |L1.9768|
002628  f2af3334          ADR      r3,|L1.8952|
00262c  1d21              ADDS     r1,r4,#4              ;1516
00262e  4638              MOV      r0,r7                 ;1516
002630  f7fffffe          BL       __2sprintf
002634  4605              MOV      r5,r0                 ;1516
002636  e158              B        |L1.10474|
                  |L1.9784|
002638  f04f0201          MOV      r2,#1                 ;1514
00263c  e7f4              B        |L1.9768|
00263e  8880              LDRH     r0,[r0,#4]            ;1519  ; SK_LCD_EN
002640  b148              CBZ      r0,|L1.9814|
002642  f04f0200          MOV      r2,#0                 ;1520
                  |L1.9798|
002646  f2af3350          ADR      r3,|L1.8952|
00264a  1d21              ADDS     r1,r4,#4              ;1521
00264c  4638              MOV      r0,r7                 ;1521
00264e  f7fffffe          BL       __2sprintf
002652  4605              MOV      r5,r0                 ;1521
002654  e149              B        |L1.10474|
                  |L1.9814|
002656  f04f0201          MOV      r2,#1                 ;1519
00265a  e7f4              B        |L1.9798|
00265c  88c0              LDRH     r0,[r0,#6]            ;1524  ; SK_LCD_EN
00265e  b148              CBZ      r0,|L1.9844|
002660  f04f0200          MOV      r2,#0                 ;1525
                  |L1.9828|
002664  f2af3370          ADR      r3,|L1.8952|
002668  1d21              ADDS     r1,r4,#4              ;1526
00266a  4638              MOV      r0,r7                 ;1526
00266c  f7fffffe          BL       __2sprintf
002670  4605              MOV      r5,r0                 ;1526
002672  e13a              B        |L1.10474|
                  |L1.9844|
002674  f04f0201          MOV      r2,#1                 ;1524
002678  e7f4              B        |L1.9828|
00267a  f8bc0000          LDRH     r0,[r12,#0]           ;1529  ; SK_ZVUK_EN
00267e  b148              CBZ      r0,|L1.9876|
002680  f04f0200          MOV      r2,#0                 ;1530
                  |L1.9860|
002684  f2af3390          ADR      r3,|L1.8952|
002688  1d21              ADDS     r1,r4,#4              ;1531
00268a  4638              MOV      r0,r7                 ;1531
00268c  f7fffffe          BL       __2sprintf
002690  4605              MOV      r5,r0                 ;1531
002692  e12a              B        |L1.10474|
                  |L1.9876|
002694  f04f0201          MOV      r2,#1                 ;1529
002698  e7f4              B        |L1.9860|
00269a  f8bc0002          LDRH     r0,[r12,#2]           ;1534  ; SK_ZVUK_EN
00269e  b148              CBZ      r0,|L1.9908|
0026a0  f04f0200          MOV      r2,#0                 ;1535
                  |L1.9892|
0026a4  f2af33b0          ADR      r3,|L1.8952|
0026a8  1d21              ADDS     r1,r4,#4              ;1536
0026aa  4638              MOV      r0,r7                 ;1536
0026ac  f7fffffe          BL       __2sprintf
0026b0  4605              MOV      r5,r0                 ;1536
0026b2  e11a              B        |L1.10474|
                  |L1.9908|
0026b4  f04f0201          MOV      r2,#1                 ;1534
0026b8  e7f4              B        |L1.9892|
0026ba  f8bc0004          LDRH     r0,[r12,#4]           ;1539  ; SK_ZVUK_EN
0026be  b148              CBZ      r0,|L1.9940|
0026c0  f04f0200          MOV      r2,#0                 ;1540
                  |L1.9924|
0026c4  f2af33d0          ADR      r3,|L1.8952|
0026c8  1d21              ADDS     r1,r4,#4              ;1541
0026ca  4638              MOV      r0,r7                 ;1541
0026cc  f7fffffe          BL       __2sprintf
0026d0  4605              MOV      r5,r0                 ;1541
0026d2  e10a              B        |L1.10474|
                  |L1.9940|
0026d4  f04f0201          MOV      r2,#1                 ;1539
0026d8  e7f4              B        |L1.9924|
0026da  b14b              CBZ      r3,|L1.9968|
0026dc  f04f0200          MOV      r2,#0                 ;1545
                  |L1.9952|
0026e0  f2af33ec          ADR      r3,|L1.8952|
0026e4  1d21              ADDS     r1,r4,#4              ;1546
0026e6  4638              MOV      r0,r7                 ;1546
0026e8  f7fffffe          BL       __2sprintf
0026ec  4605              MOV      r5,r0                 ;1546
0026ee  e0fc              B        |L1.10474|
                  |L1.9968|
0026f0  f04f0201          MOV      r2,#1                 ;1544
0026f4  e7f4              B        |L1.9952|
0026f6  f2af4300          ADR      r3,|L1.8952|
0026fa  4632              MOV      r2,r6                 ;1549
0026fc  1d21              ADDS     r1,r4,#4              ;1549
0026fe  4638              MOV      r0,r7                 ;1549
002700  f7fffffe          BL       __2sprintf
002704  4605              MOV      r5,r0                 ;1549
002706  e0f0              B        |L1.10474|
002708  4640              MOV      r0,r8                 ;1552
00270a  f7fffffe          BL       lc640_read_int
00270e  2801              CMP      r0,#1                 ;1552
002710  d009              BEQ      |L1.10022|
002712  f04f0201          MOV      r2,#1                 ;1553
                  |L1.10006|
002716  f2af4320          ADR      r3,|L1.8952|
00271a  1d21              ADDS     r1,r4,#4              ;1554
00271c  4638              MOV      r0,r7                 ;1554
00271e  f7fffffe          BL       __2sprintf
002722  4605              MOV      r5,r0                 ;1554
002724  e0e1              B        |L1.10474|
                  |L1.10022|
002726  f04f0200          MOV      r2,#0                 ;1552
00272a  e7f4              B        |L1.10006|
                  |L1.10028|
00272c  78a0              LDRB     r0,[r4,#2]            ;1560
00272e  3830              SUBS     r0,r0,#0x30           ;1560
002730  280a              CMP      r0,#0xa               ;1560
002732  d226              BCS      |L1.10114|
002734  e8dff000          TBB      [pc,r0]               ;1560
002738  05262e3f          DCB      0x05,0x26,0x2e,0x3f
00273c  4851626d          DCB      0x48,0x51,0x62,0x6d
002740  7b84              DCB      0x7b,0x84
002742  f44f508c          MOV      r0,#0x1180            ;1562
002746  f7fffffe          BL       lc640_read_int
00274a  b2c6              UXTB     r6,r0                 ;1562
00274c  f241107e          MOV      r0,#0x117e            ;1562
002750  f7fffffe          BL       lc640_read_int
002754  b2c5              UXTB     r5,r0                 ;1562
002756  f241107c          MOV      r0,#0x117c            ;1562
00275a  f7fffffe          BL       lc640_read_int
00275e  f00008ff          AND      r8,r0,#0xff           ;1562
002762  f241107a          MOV      r0,#0x117a            ;1562
002766  f7fffffe          BL       lc640_read_int
00276a  b2c0              UXTB     r0,r0                 ;1562
00276c  4633              MOV      r3,r6                 ;1562
00276e  462a              MOV      r2,r5                 ;1562
002770  4641              MOV      r1,r8                 ;1562
002772  f7fffffe          BL       http_ip_output
002776  4602              MOV      r2,r0                 ;1562
002778  1d21              ADDS     r1,r4,#4              ;1562
00277a  4638              MOV      r0,r7                 ;1562
00277c  f7fffffe          BL       __2sprintf
002780  4605              MOV      r5,r0                 ;1562
                  |L1.10114|
002782  e0b2              B        |L1.10474|
002784  f2af4390          ADR      r3,|L1.8952|
002788  1d21              ADDS     r1,r4,#4              ;1568
00278a  4638              MOV      r0,r7                 ;1568
00278c  f7fffffe          BL       __2sprintf
002790  4605              MOV      r5,r0                 ;1568
002792  e0aa              B        |L1.10474|
002794  4818              LDR      r0,|L1.10232|
002796  8800              LDRH     r0,[r0,#0]            ;1571  ; NUMPHASE
002798  2801              CMP      r0,#1                 ;1571
00279a  d009              BEQ      |L1.10160|
00279c  f04f0201          MOV      r2,#1                 ;1572
                  |L1.10144|
0027a0  f2af43ac          ADR      r3,|L1.8952|
0027a4  1d21              ADDS     r1,r4,#4              ;1573
0027a6  4638              MOV      r0,r7                 ;1573
0027a8  f7fffffe          BL       __2sprintf
0027ac  4605              MOV      r5,r0                 ;1573
0027ae  e09c              B        |L1.10474|
                  |L1.10160|
0027b0  f04f0200          MOV      r2,#0                 ;1571
0027b4  e7f4              B        |L1.10144|
0027b6  f2af43c0          ADR      r3,|L1.8952|
0027ba  465a              MOV      r2,r11                ;1576
0027bc  1d21              ADDS     r1,r4,#4              ;1576
0027be  4638              MOV      r0,r7                 ;1576
0027c0  f7fffffe          BL       __2sprintf
0027c4  4605              MOV      r5,r0                 ;1576
0027c6  e090              B        |L1.10474|
0027c8  f2af43d4          ADR      r3,|L1.8952|
0027cc  4672              MOV      r2,lr                 ;1579
0027ce  1d21              ADDS     r1,r4,#4              ;1579
0027d0  4638              MOV      r0,r7                 ;1579
0027d2  f7fffffe          BL       __2sprintf
0027d6  4605              MOV      r5,r0                 ;1579
0027d8  e087              B        |L1.10474|
0027da  f2af43e4          ADR      r3,|L1.8952|
0027de  460a              MOV      r2,r1                 ;1582
0027e0  1d21              ADDS     r1,r4,#4              ;1582
0027e2  4638              MOV      r0,r7                 ;1582
0027e4  f7fffffe          BL       __2sprintf
0027e8  4605              MOV      r5,r0                 ;1582
0027ea  e07e              B        |L1.10474|
                  |L1.10220|
                          DCD      AVZ
                  |L1.10224|
                          DCD      sk_av_stat
                  |L1.10228|
                          DCD      SK_LCD_EN
                  |L1.10232|
                          DCD      NUMPHASE
0027fc  f2af5308          ADR      r3,|L1.8952|
002800  483c              LDR      r0,|L1.10484|
002802  1d21              ADDS     r1,r4,#4              ;1585
002804  f9b02000          LDRSH    r2,[r0,#0]            ;1585  ; NUMENMV
002808  4638              MOV      r0,r7                 ;1585
00280a  f7fffffe          BL       __2sprintf
00280e  4605              MOV      r5,r0                 ;1585
002810  e06b              B        |L1.10474|
002812  b14b              CBZ      r3,|L1.10280|
002814  f04f0200          MOV      r2,#0                 ;1589
                  |L1.10264|
002818  f2af5324          ADR      r3,|L1.8952|
00281c  1d21              ADDS     r1,r4,#4              ;1590
00281e  4638              MOV      r0,r7                 ;1590
002820  f7fffffe          BL       __2sprintf
002824  4605              MOV      r5,r0                 ;1590
002826  e060              B        |L1.10474|
                  |L1.10280|
002828  f04f0201          MOV      r2,#1                 ;1588
00282c  e7f4              B        |L1.10264|
00282e  f2af5338          ADR      r3,|L1.8952|
002832  4632              MOV      r2,r6                 ;1593
002834  1d21              ADDS     r1,r4,#4              ;1593
002836  4638              MOV      r0,r7                 ;1593
002838  f7fffffe          BL       __2sprintf
00283c  4605              MOV      r5,r0                 ;1593
00283e  e054              B        |L1.10474|
002840  4640              MOV      r0,r8                 ;1596
002842  f7fffffe          BL       lc640_read_int
002846  2801              CMP      r0,#1                 ;1596
002848  d009              BEQ      |L1.10334|
00284a  f04f0201          MOV      r2,#1                 ;1597
                  |L1.10318|
00284e  f2af5358          ADR      r3,|L1.8952|
002852  1d21              ADDS     r1,r4,#4              ;1598
002854  4638              MOV      r0,r7                 ;1598
002856  f7fffffe          BL       __2sprintf
00285a  4605              MOV      r5,r0                 ;1598
00285c  e045              B        |L1.10474|
                  |L1.10334|
00285e  f04f0200          MOV      r2,#0                 ;1596
002862  e7f4              B        |L1.10318|
002864  f89a0000          LDRB     r0,[r10,#0]           ;1606  ; uku_set_autorized
002868  b130              CBZ      r0,|L1.10360|
00286a  a223              ADR      r2,|L1.10488|
00286c  1c61              ADDS     r1,r4,#1              ;1606
00286e  4638              MOV      r0,r7                 ;1606
002870  f7fffffe          BL       __2sprintf
002874  4605              MOV      r5,r0                 ;1606
002876  e038              B        |L1.10474|
                  |L1.10360|
002878  b133              CBZ      r3,|L1.10376|
00287a  a220              ADR      r2,|L1.10492|
00287c  1c61              ADDS     r1,r4,#1              ;1607
00287e  4638              MOV      r0,r7                 ;1607
002880  f7fffffe          BL       __2sprintf
002884  4605              MOV      r5,r0                 ;1607
002886  e030              B        |L1.10474|
                  |L1.10376|
002888  a21e              ADR      r2,|L1.10500|
00288a  1c61              ADDS     r1,r4,#1              ;1608
00288c  4638              MOV      r0,r7                 ;1608
00288e  f7fffffe          BL       __2sprintf
002892  4605              MOV      r5,r0                 ;1608
002894  e029              B        |L1.10474|
                  |L1.10390|
002896  7011              STRB     r1,[r2,#0]
;;;1614         len = sprintf((char *)buf,"<checkbox><id>button%c</id><on>%s</on></checkbox>",
;;;1615                       env[1],(/*web_cnt_main*/3 & (1 << (env[1]-'0'))) ? "true" : "false");
002898  7862              LDRB     r2,[r4,#1]
00289a  a31b              ADR      r3,|L1.10504|
00289c  f1a20030          SUB      r0,r2,#0x30
0028a0  fa06f600          LSL      r6,r6,r0
0028a4  07b0              LSLS     r0,r6,#30
0028a6  d100              BNE      |L1.10410|
0028a8  a319              ADR      r3,|L1.10512|
                  |L1.10410|
0028aa  a11b              ADR      r1,|L1.10520|
0028ac  4638              MOV      r0,r7
0028ae  f7fffffe          BL       __2sprintf
0028b2  4605              MOV      r5,r0
;;;1616         break;
0028b4  e019              B        |L1.10474|
                  |L1.10422|
;;;1617       case '3':
;;;1618         /* Button state - xml file 'button.cgx' */
;;;1619   	  web_plazma[0]++;
0028b6  7011              STRB     r1,[r2,#0]
;;;1620         len = sprintf((char *)buf,"<checkbox><id>button%c</id><on>%s</on></checkbox>",
;;;1621                       env[1],(/*web_cnt_main*/ 6 & (1 << (env[1]-'0'))) ? "true" : "false");
0028b8  7862              LDRB     r2,[r4,#1]
0028ba  a313              ADR      r3,|L1.10504|
0028bc  f1a20030          SUB      r0,r2,#0x30
0028c0  fa06f600          LSL      r6,r6,r0
0028c4  f0160f06          TST      r6,#6
0028c8  d100              BNE      |L1.10444|
0028ca  a311              ADR      r3,|L1.10512|
                  |L1.10444|
0028cc  a112              ADR      r1,|L1.10520|
0028ce  4638              MOV      r0,r7
0028d0  f7fffffe          BL       __2sprintf
0028d4  4605              MOV      r5,r0
;;;1622         break;
0028d6  e008              B        |L1.10474|
;;;1623       case 'z':
;;;1624   		/*   */
;;;1625         	len = sprintf((char *)buf,(const char *)&env[2],"end");
0028d8  f6af72e8          ADR      r2,|L1.6388|
0028dc  1ca1              ADDS     r1,r4,#2
0028de  4638              MOV      r0,r7
0028e0  f7fffffe          BL       __2sprintf
0028e4  4605              MOV      r5,r0
;;;1626   		uku_set_autorized=0;
0028e6  f88a9000          STRB     r9,[r10,#0]
                  |L1.10474|
;;;1627      		break;
;;;1628     }
;;;1629     return ((U16)len);
;;;1630   }
0028ea  b007              ADD      sp,sp,#0x1c
0028ec  b2a8              UXTH     r0,r5                 ;1629
0028ee  e8bd8ff0          POP      {r4-r11,pc}
;;;1631   
                          ENDP

0028f2  0000              DCW      0x0000
                  |L1.10484|
                          DCD      NUMENMV
                  |L1.10488|
0028f8  4f4e00            DCB      "ON",0
0028fb  00                DCB      0
                  |L1.10492|
0028fc  44454e49          DCB      "DENIED",0
002900  454400  
002903  00                DCB      0
                  |L1.10500|
002904  4f464600          DCB      "OFF",0
                  |L1.10504|
002908  74727565          DCB      "true",0
00290c  00      
00290d  00                DCB      0
00290e  00                DCB      0
00290f  00                DCB      0
                  |L1.10512|
002910  66616c73          DCB      "false",0
002914  6500    
002916  00                DCB      0
002917  00                DCB      0
                  |L1.10520|
002918  3c636865          DCB      "<checkbox><id>button%c</id><on>%s</on></checkbox>",0
00291c  636b626f
002920  783e3c69
002924  643e6275
002928  74746f6e
00292c  25633c2f
002930  69643e3c
002934  6f6e3e25
002938  733c2f6f
00293c  6e3e3c2f
002940  63686563
002944  6b626f78
002948  3e00    
00294a  00                DCB      0
00294b  00                DCB      0

                          AREA ||.constdata||, DATA, READONLY, ALIGN=2

                  state
000000  46524545          DCB      0x46,0x52,0x45,0x45
000004  00000000          DCB      0x00,0x00,0x00,0x00
000008  00000043          DCB      0x00,0x00,0x00,0x43
00000c  4c4f5345          DCB      0x4c,0x4f,0x53,0x45
000010  44000000          DCB      0x44,0x00,0x00,0x00
000014  00004c49          DCB      0x00,0x00,0x4c,0x49
000018  5354454e          DCB      0x53,0x54,0x45,0x4e
00001c  00000000          DCB      0x00,0x00,0x00,0x00
000020  0053594e          DCB      0x00,0x53,0x59,0x4e
000024  5f524543          DCB      0x5f,0x52,0x45,0x43
000028  00000000          DCB      0x00,0x00,0x00,0x00
00002c  53594e5f          DCB      0x53,0x59,0x4e,0x5f
000030  53454e54          DCB      0x53,0x45,0x4e,0x54
000034  00000046          DCB      0x00,0x00,0x00,0x46
000038  494e5731          DCB      0x49,0x4e,0x57,0x31
00003c  00000000          DCB      0x00,0x00,0x00,0x00
000040  00004649          DCB      0x00,0x00,0x46,0x49
000044  4e573200          DCB      0x4e,0x57,0x32,0x00
                          DCD      0x00000000
00004c  00434c4f          DCB      0x00,0x43,0x4c,0x4f
000050  53494e47          DCB      0x53,0x49,0x4e,0x47
000054  00000000          DCB      0x00,0x00,0x00,0x00
000058  4c415354          DCB      0x4c,0x41,0x53,0x54
00005c  5f41434b          DCB      0x5f,0x41,0x43,0x4b
000060  00000054          DCB      0x00,0x00,0x00,0x54
000064  57414954          DCB      0x57,0x41,0x49,0x54
000068  00000000          DCB      0x00,0x00,0x00,0x00
00006c  0000434f          DCB      0x00,0x00,0x43,0x4f
000070  4e4e4543          DCB      0x4e,0x4e,0x45,0x43
000074  54000000          DCB      0x54,0x00,0x00,0x00
000078  00000000          DCB      0x00,0x00,0x00,0x00
00007c  20202020          DCB      0x20,0x20,0x20,0x20
000080  20202020          DCB      0x20,0x20,0x20,0x20
000084  20202020          DCB      0x20,0x20,0x20,0x20
000088  20202020          DCB      0x20,0x20,0x20,0x20
00008c  20202020          DCB      0x20,0x20,0x20,0x20
000090  20202020          DCB      0x20,0x20,0x20,0x20
000094  20202020          DCB      0x20,0x20,0x20,0x20
000098  20202020          DCB      0x20,0x20,0x20,0x20
00009c  20202020          DCB      0x20,0x20,0x20,0x20
0000a0  20202020          DCB      0x20,0x20,0x20,0x20
0000a4  20202020          DCB      0x20,0x20,0x20,0x20
0000a8  20202020          DCB      0x20,0x20,0x20,0x20
0000ac  20202020          DCB      0x20,0x20,0x20,0x20
0000b0  20202020          DCB      0x20,0x20,0x20,0x20
0000b4  20202020          DCB      0x20,0x20,0x20,0x20
0000b8  20202020          DCB      0x20,0x20,0x20,0x20
0000bc  20202020          DCB      0x20,0x20,0x20,0x20
0000c0  20200000          DCB      0x20,0x20,0x00,0x00
0000c4  3c74643e          DCB      0x3c,0x74,0x64,0x3e
0000c8  25643c2f          DCB      0x25,0x64,0x3c,0x2f
0000cc  74643e3c          DCB      0x74,0x64,0x3e,0x3c
0000d0  74643e25          DCB      0x74,0x64,0x3e,0x25
0000d4  733c2f74          DCB      0x73,0x3c,0x2f,0x74
0000d8  643e3c74          DCB      0x64,0x3e,0x3c,0x74
0000dc  643e2d3c          DCB      0x64,0x3e,0x2d,0x3c
0000e0  2f74643e          DCB      0x2f,0x74,0x64,0x3e
0000e4  3c74643e          DCB      0x3c,0x74,0x64,0x3e
0000e8  2d3c2f74          DCB      0x2d,0x3c,0x2f,0x74
0000ec  643e3c74          DCB      0x64,0x3e,0x3c,0x74
0000f0  643e2d3c          DCB      0x64,0x3e,0x2d,0x3c
0000f4  2f74643e          DCB      0x2f,0x74,0x64,0x3e
0000f8  3c74643e          DCB      0x3c,0x74,0x64,0x3e
0000fc  2d3c2f74          DCB      0x2d,0x3c,0x2f,0x74
000100  643e3c2f          DCB      0x64,0x3e,0x3c,0x2f
000104  74723e0d          DCB      0x74,0x72,0x3e,0x0d
000108  0a000000          DCB      0x0a,0x00,0x00,0x00
00010c  3c74643e          DCB      0x3c,0x74,0x64,0x3e
000110  25643c2f          DCB      0x25,0x64,0x3c,0x2f
000114  74643e3c          DCB      0x74,0x64,0x3e,0x3c
000118  74643e25          DCB      0x74,0x64,0x3e,0x25
00011c  733c2f74          DCB      0x73,0x3c,0x2f,0x74
000120  643e3c74          DCB      0x64,0x3e,0x3c,0x74
000124  643e2d3c          DCB      0x64,0x3e,0x2d,0x3c
000128  2f74643e          DCB      0x2f,0x74,0x64,0x3e
00012c  3c74643e          DCB      0x3c,0x74,0x64,0x3e
000130  2d3c2f74          DCB      0x2d,0x3c,0x2f,0x74
000134  643e3c74          DCB      0x64,0x3e,0x3c,0x74
000138  643e2564          DCB      0x64,0x3e,0x25,0x64
00013c  3c2f7464          DCB      0x3c,0x2f,0x74,0x64
000140  3e3c7464          DCB      0x3e,0x3c,0x74,0x64
000144  3e2d3c2f          DCB      0x3e,0x2d,0x3c,0x2f
000148  74643e3c          DCB      0x74,0x64,0x3e,0x3c
00014c  2f74723e          DCB      0x2f,0x74,0x72,0x3e
000150  0d0a0000          DCB      0x0d,0x0a,0x00,0x00
000154  3c74643e          DCB      0x3c,0x74,0x64,0x3e
000158  25643c2f          DCB      0x25,0x64,0x3c,0x2f
00015c  74643e3c          DCB      0x74,0x64,0x3e,0x3c
000160  74643e25          DCB      0x74,0x64,0x3e,0x25
000164  733c2f74          DCB      0x73,0x3c,0x2f,0x74
000168  643e3c74          DCB      0x64,0x3e,0x3c,0x74
00016c  643e2564          DCB      0x64,0x3e,0x25,0x64
000170  2e25642e          DCB      0x2e,0x25,0x64,0x2e
000174  25642e25          DCB      0x25,0x64,0x2e,0x25
000178  643c2f74          DCB      0x64,0x3c,0x2f,0x74
00017c  643e3c74          DCB      0x64,0x3e,0x3c,0x74
000180  643e2564          DCB      0x64,0x3e,0x25,0x64
000184  3c2f7464          DCB      0x3c,0x2f,0x74,0x64
000188  3e3c7464          DCB      0x3e,0x3c,0x74,0x64
00018c  3e25643c          DCB      0x3e,0x25,0x64,0x3c
000190  2f74643e          DCB      0x2f,0x74,0x64,0x3e
000194  3c74643e          DCB      0x3c,0x74,0x64,0x3e
000198  25643c2f          DCB      0x25,0x64,0x3c,0x2f
00019c  74643e3c          DCB      0x74,0x64,0x3e,0x3c
0001a0  2f74723e          DCB      0x2f,0x74,0x72,0x3e
0001a4  0d0a00            DCB      0x0d,0x0a,0x00

                          AREA ||.data||, DATA, ALIGN=2

                  psw_err
000000  00                DCB      0x00
                  ||P2||
000001  000000            DCB      0x00,0x00,0x00
                  adv
                          DCD      0x00000000

;*** Start embedded assembler ***

#line 1 "HTTP_CGI.c"
	AREA ||.emb_text||, CODE, READONLY
	THUMB
	EXPORT |__asm___10_HTTP_CGI_c_909c35f6____REV16|
#line 112 "C:\\Keil\\ARM\\CMSIS\\Include\\core_cmInstr.h"
|__asm___10_HTTP_CGI_c_909c35f6____REV16| PROC
#line 113

 rev16 r0, r0
 bx lr
	ENDP
	AREA ||.emb_text||, CODE, READONLY
	THUMB
	EXPORT |__asm___10_HTTP_CGI_c_909c35f6____REVSH|
#line 130
|__asm___10_HTTP_CGI_c_909c35f6____REVSH| PROC
#line 131

 revsh r0, r0
 bx lr
	ENDP

;*** End   embedded assembler ***
