; generated by ARM C/C++ Compiler, 4.1 [Build 644]
; commandline ArmCC [--list --debug -c --asm --interleave -o.\EXE\full_can.o --asm_dir=.\ --list_dir=.\ --depend=.\EXE\full_can.d --feedback=.\EXE\UKU_220_IPS_TERMOKOMPENSAT.fed --cpu=Cortex-M3 --apcs=interwork -O1 -IC:\Keil\ARM\CMSIS\Include -IC:\Keil\ARM\INC\NXP\LPC17xx -D__MICROLIB -DUKU_220_IPS_TERMOKOMPENSAT -DUKU2071x -DUKU_ZVU -DAPSENERGIA --omf_browse=.\EXE\full_can.crf full_can.c]
                          THUMB

                          AREA ||.text||, CODE, READONLY, ALIGN=2

                  CRC1_in PROC
;;;108    //-----------------------------------------------
;;;109    char CRC1_in(void)
000000  b530              PUSH     {r4,r5,lr}
;;;110    {
;;;111    char r,j,lb;
;;;112    lb=(RXBUFF[1]&0x1f)+0x04;
000002  4bff              LDR      r3,|L1.1024|
000004  7858              LDRB     r0,[r3,#1]  ; RXBUFF
000006  f000021f          AND      r2,r0,#0x1f
00000a  f1020204          ADD      r2,r2,#4
;;;113    r=RXBUFF[0];
00000e  7818              LDRB     r0,[r3,#0]  ; RXBUFF
;;;114    for(j=1;j<(lb+1);j++)
000010  f04f0101          MOV      r1,#1
;;;115    	{
;;;116    	r=(RXBUFF[j]^Table87[r]);
000014  4cfb              LDR      r4,|L1.1028|
000016  f1020201          ADD      r2,r2,#1              ;114
00001a  e006              B        |L1.42|
                  |L1.28|
00001c  5c5d              LDRB     r5,[r3,r1]
00001e  5c20              LDRB     r0,[r4,r0]
000020  ea850000          EOR      r0,r5,r0
000024  f1010101          ADD      r1,r1,#1              ;114
000028  b2c9              UXTB     r1,r1                 ;114
                  |L1.42|
00002a  4291              CMP      r1,r2                 ;114
00002c  d3f6              BCC      |L1.28|
;;;117    	}
;;;118    if(r==0)r=0xFF;
00002e  2800              CMP      r0,#0
000030  d101              BNE      |L1.54|
000032  f04f00ff          MOV      r0,#0xff
                  |L1.54|
;;;119    return r;	
;;;120    } 
000036  bd30              POP      {r4,r5,pc}
;;;121    
                          ENDP

                  CRC2_in PROC
;;;122    //-----------------------------------------------
;;;123    char CRC2_in(void)
000038  b530              PUSH     {r4,r5,lr}
;;;124    {
;;;125    char r,j,lb;
;;;126    lb=(RXBUFF[1]&0x1f)+0x04;
00003a  4bf1              LDR      r3,|L1.1024|
00003c  7858              LDRB     r0,[r3,#1]  ; RXBUFF
00003e  f000021f          AND      r2,r0,#0x1f
000042  f1020204          ADD      r2,r2,#4
;;;127    r=RXBUFF[0];
000046  7818              LDRB     r0,[r3,#0]  ; RXBUFF
;;;128    for(j=1;j<(lb+1);j++)
000048  f04f0101          MOV      r1,#1
;;;129    	{
;;;130    	r=(RXBUFF[j]^Table95[r]);
00004c  4cee              LDR      r4,|L1.1032|
00004e  f1020201          ADD      r2,r2,#1              ;128
000052  e006              B        |L1.98|
                  |L1.84|
000054  5c5d              LDRB     r5,[r3,r1]
000056  5c20              LDRB     r0,[r4,r0]
000058  ea850000          EOR      r0,r5,r0
00005c  f1010101          ADD      r1,r1,#1              ;128
000060  b2c9              UXTB     r1,r1                 ;128
                  |L1.98|
000062  4291              CMP      r1,r2                 ;128
000064  d3f6              BCC      |L1.84|
;;;131    	}
;;;132    if(r==0)r=0xFF;
000066  2800              CMP      r0,#0
000068  d101              BNE      |L1.110|
00006a  f04f00ff          MOV      r0,#0xff
                  |L1.110|
;;;133    return r;	
;;;134    }  
00006e  bd30              POP      {r4,r5,pc}
;;;135    
                          ENDP

                  CRC1_out PROC
;;;136    //-----------------------------------------------
;;;137    char CRC1_out(void)
000070  b530              PUSH     {r4,r5,lr}
;;;138    {
;;;139    char r,j,lb;
;;;140    lb=(TXBUFF[1]&0x1f)+0x04;
000072  4be3              LDR      r3,|L1.1024|
000074  3328              ADDS     r3,r3,#0x28
000076  7858              LDRB     r0,[r3,#1]  ; TXBUFF
000078  f000021f          AND      r2,r0,#0x1f
00007c  f1020204          ADD      r2,r2,#4
;;;141    r=TXBUFF[0];
000080  7818              LDRB     r0,[r3,#0]  ; TXBUFF
;;;142    for(j=1;j<(lb+1);j++)
000082  f04f0101          MOV      r1,#1
;;;143    	{
;;;144    	r=(TXBUFF[j]^Table87[r]);
000086  4cdf              LDR      r4,|L1.1028|
000088  f1020201          ADD      r2,r2,#1              ;142
00008c  e006              B        |L1.156|
                  |L1.142|
00008e  5c5d              LDRB     r5,[r3,r1]
000090  5c20              LDRB     r0,[r4,r0]
000092  ea850000          EOR      r0,r5,r0
000096  f1010101          ADD      r1,r1,#1              ;142
00009a  b2c9              UXTB     r1,r1                 ;142
                  |L1.156|
00009c  4291              CMP      r1,r2                 ;142
00009e  d3f6              BCC      |L1.142|
;;;145    	}
;;;146    if(r==0)r=0xFF;
0000a0  2800              CMP      r0,#0
0000a2  d101              BNE      |L1.168|
0000a4  f04f00ff          MOV      r0,#0xff
                  |L1.168|
;;;147    return r;	
;;;148    } 
0000a8  bd30              POP      {r4,r5,pc}
;;;149    
                          ENDP

                  CRC2_out PROC
;;;150    //-----------------------------------------------
;;;151    char CRC2_out(void)
0000aa  b530              PUSH     {r4,r5,lr}
;;;152    {
;;;153    char r,j,lb;
;;;154    lb=(TXBUFF[1]&0x1f)+0x04;
0000ac  4bd4              LDR      r3,|L1.1024|
0000ae  3328              ADDS     r3,r3,#0x28
0000b0  7858              LDRB     r0,[r3,#1]  ; TXBUFF
0000b2  f000021f          AND      r2,r0,#0x1f
0000b6  f1020204          ADD      r2,r2,#4
;;;155    r=TXBUFF[0];
0000ba  7818              LDRB     r0,[r3,#0]  ; TXBUFF
;;;156    for(j=1;j<(lb+1);j++)
0000bc  f04f0101          MOV      r1,#1
;;;157    	{
;;;158    	r=(TXBUFF[j]^Table95[r]);
0000c0  4cd1              LDR      r4,|L1.1032|
0000c2  f1020201          ADD      r2,r2,#1              ;156
0000c6  e006              B        |L1.214|
                  |L1.200|
0000c8  5c5d              LDRB     r5,[r3,r1]
0000ca  5c20              LDRB     r0,[r4,r0]
0000cc  ea850000          EOR      r0,r5,r0
0000d0  f1010101          ADD      r1,r1,#1              ;156
0000d4  b2c9              UXTB     r1,r1                 ;156
                  |L1.214|
0000d6  4291              CMP      r1,r2                 ;156
0000d8  d3f6              BCC      |L1.200|
;;;159    	}
;;;160    if(r==0)r=0xFF;
0000da  2800              CMP      r0,#0
0000dc  d101              BNE      |L1.226|
0000de  f04f00ff          MOV      r0,#0xff
                  |L1.226|
;;;161    return r;	
;;;162    }
0000e2  bd30              POP      {r4,r5,pc}
;;;163    
                          ENDP

                  can1_out_adr PROC
;;;164    //-----------------------------------------------
;;;165    void can1_out_adr(char* ptr,char num)
0000e4  e92d4ff0          PUSH     {r4-r11,lr}
;;;166    {
;;;167    
;;;168    if(num<=8)
;;;169    	{
;;;170    	can1_info[ptr_can1_tx_wr]=(((long)num)<<16)&0x000f0000UL;
0000e8  4fc8              LDR      r7,|L1.1036|
0000ea  f8dfa324          LDR      r10,|L1.1040|
;;;171    	can1_id[ptr_can1_tx_wr]=0x0000009eUL;
;;;172    	*((char*)&can1_data[ptr_can1_tx_wr])=ptr[0];
;;;173    	*(((char*)&can1_data[ptr_can1_tx_wr])+1)=ptr[1];
;;;174    	*(((char*)&can1_data[ptr_can1_tx_wr])+2)=ptr[2];
;;;175    	*(((char*)&can1_data[ptr_can1_tx_wr])+3)=ptr[3];
;;;176    	*((char*)&can1_datb[ptr_can1_tx_wr])=ptr[4];
;;;177    	*(((char*)&can1_datb[ptr_can1_tx_wr])+1)=ptr[5];
;;;178    	*(((char*)&can1_datb[ptr_can1_tx_wr])+2)=ptr[6];
;;;179    	*(((char*)&can1_datb[ptr_can1_tx_wr])+3)=ptr[7];	
;;;180    	ptr_can1_tx_wr++;
;;;181    	if(ptr_can1_tx_wr>=8)ptr_can1_tx_wr=0;
0000ee  2500              MOVS     r5,#0
0000f0  78fa              LDRB     r2,[r7,#3]            ;170
0000f2  f10a0920          ADD      r9,r10,#0x20          ;171
0000f6  1c53              ADDS     r3,r2,#1              ;180
0000f8  b2de              UXTB     r6,r3                 ;180
0000fa  f1090c20          ADD      r12,r9,#0x20          ;172
0000fe  f1090840          ADD      r8,r9,#0x40           ;176
000102  f04f0e9e          MOV      lr,#0x9e              ;171
000106  eb080382          ADD      r3,r8,r2,LSL #2       ;176
00010a  eb0c0482          ADD      r4,r12,r2,LSL #2      ;172
00010e  2908              CMP      r1,#8                 ;168
000110  d81e              BHI      |L1.336|
000112  f44f2b70          MOV      r11,#0xf0000          ;170
000116  ea0b4101          AND      r1,r11,r1,LSL #16     ;170
00011a  f84a1022          STR      r1,[r10,r2,LSL #2]    ;170
00011e  f849e022          STR      lr,[r9,r2,LSL #2]     ;171
000122  7801              LDRB     r1,[r0,#0]            ;172
000124  f80c1022          STRB     r1,[r12,r2,LSL #2]    ;172
000128  7841              LDRB     r1,[r0,#1]            ;173
00012a  7061              STRB     r1,[r4,#1]            ;173
00012c  7881              LDRB     r1,[r0,#2]            ;174
00012e  70a1              STRB     r1,[r4,#2]            ;174
000130  78c1              LDRB     r1,[r0,#3]            ;175
000132  70e1              STRB     r1,[r4,#3]            ;175
000134  7901              LDRB     r1,[r0,#4]            ;176
000136  f8081022          STRB     r1,[r8,r2,LSL #2]     ;176
00013a  7941              LDRB     r1,[r0,#5]            ;177
00013c  7059              STRB     r1,[r3,#1]            ;177
00013e  7981              LDRB     r1,[r0,#6]            ;178
000140  7099              STRB     r1,[r3,#2]            ;178
000142  79c0              LDRB     r0,[r0,#7]            ;179
000144  70d8              STRB     r0,[r3,#3]            ;179
000146  70fe              STRB     r6,[r7,#3]            ;180
000148  2e08              CMP      r6,#8
00014a  d300              BCC      |L1.334|
00014c  70fd              STRB     r5,[r7,#3]
                  |L1.334|
00014e  e155              B        |L1.1020|
                  |L1.336|
;;;182    	}
;;;183    	
;;;184    else if(num<=16)
;;;185    	{
;;;186    	can1_info[ptr_can1_tx_wr]=(8UL<<16)&0x000f0000UL;
000150  f44f2b00          MOV      r11,#0x80000
000154  2910              CMP      r1,#0x10              ;184
000156  d849              BHI      |L1.492|
000158  f84ab022          STR      r11,[r10,r2,LSL #2]
;;;187    	can1_id[ptr_can1_tx_wr]=0x0000009eUL;
00015c  f849e022          STR      lr,[r9,r2,LSL #2]
;;;188    	*((char*)&can1_data[ptr_can1_tx_wr])=ptr[0];
000160  f890b000          LDRB     r11,[r0,#0]
000164  f80cb022          STRB     r11,[r12,r2,LSL #2]
;;;189    	*(((char*)&can1_data[ptr_can1_tx_wr])+1)=ptr[1];
000168  f890b001          LDRB     r11,[r0,#1]
00016c  f884b001          STRB     r11,[r4,#1]
;;;190    	*(((char*)&can1_data[ptr_can1_tx_wr])+2)=ptr[2];
000170  f890b002          LDRB     r11,[r0,#2]
000174  f884b002          STRB     r11,[r4,#2]
;;;191    	*(((char*)&can1_data[ptr_can1_tx_wr])+3)=ptr[3];
000178  f890b003          LDRB     r11,[r0,#3]
00017c  f884b003          STRB     r11,[r4,#3]
;;;192    	*((char*)&can1_datb[ptr_can1_tx_wr])=ptr[4];
000180  7904              LDRB     r4,[r0,#4]
000182  f8084022          STRB     r4,[r8,r2,LSL #2]
;;;193    	*(((char*)&can1_datb[ptr_can1_tx_wr])+1)=ptr[5];
000186  7942              LDRB     r2,[r0,#5]
000188  705a              STRB     r2,[r3,#1]
;;;194    	*(((char*)&can1_datb[ptr_can1_tx_wr])+2)=ptr[6];
00018a  7982              LDRB     r2,[r0,#6]
00018c  709a              STRB     r2,[r3,#2]
;;;195    	*(((char*)&can1_datb[ptr_can1_tx_wr])+3)=ptr[7];	
00018e  79c2              LDRB     r2,[r0,#7]
000190  70da              STRB     r2,[r3,#3]
;;;196    	ptr_can1_tx_wr++;
000192  70fe              STRB     r6,[r7,#3]
;;;197    	if(ptr_can1_tx_wr>=8)ptr_can1_tx_wr=0;
000194  2e08              CMP      r6,#8
000196  d300              BCC      |L1.410|
000198  70fd              STRB     r5,[r7,#3]
                  |L1.410|
;;;198    	
;;;199    	can1_info[ptr_can1_tx_wr]=(((long)(num-8))<<16)&0x000f0000UL;
00019a  f1a10108          SUB      r1,r1,#8
00019e  f44f2270          MOV      r2,#0xf0000
0001a2  ea024201          AND      r2,r2,r1,LSL #16
0001a6  78f9              LDRB     r1,[r7,#3]  ; ptr_can1_tx_wr
0001a8  f84a2021          STR      r2,[r10,r1,LSL #2]
;;;200    	can1_id[ptr_can1_tx_wr]=0x0000009eUL;
0001ac  f849e021          STR      lr,[r9,r1,LSL #2]
;;;201    	*((char*)&can1_data[ptr_can1_tx_wr])=ptr[8];
0001b0  7a02              LDRB     r2,[r0,#8]
0001b2  f80c2021          STRB     r2,[r12,r1,LSL #2]
;;;202    	*(((char*)&can1_data[ptr_can1_tx_wr])+1)=ptr[9];
0001b6  eb0c0381          ADD      r3,r12,r1,LSL #2
0001ba  7a42              LDRB     r2,[r0,#9]
0001bc  705a              STRB     r2,[r3,#1]
;;;203    	*(((char*)&can1_data[ptr_can1_tx_wr])+2)=ptr[10];
0001be  7a82              LDRB     r2,[r0,#0xa]
0001c0  709a              STRB     r2,[r3,#2]
;;;204    	*(((char*)&can1_data[ptr_can1_tx_wr])+3)=ptr[11];
0001c2  7ac2              LDRB     r2,[r0,#0xb]
0001c4  70da              STRB     r2,[r3,#3]
;;;205    	*((char*)&can1_datb[ptr_can1_tx_wr])=ptr[12];
0001c6  7b02              LDRB     r2,[r0,#0xc]
0001c8  f8082021          STRB     r2,[r8,r1,LSL #2]
;;;206    	*(((char*)&can1_datb[ptr_can1_tx_wr])+1)=ptr[13];
0001cc  eb080281          ADD      r2,r8,r1,LSL #2
0001d0  7b43              LDRB     r3,[r0,#0xd]
0001d2  7053              STRB     r3,[r2,#1]
;;;207    	*(((char*)&can1_datb[ptr_can1_tx_wr])+2)=ptr[14];
0001d4  7b83              LDRB     r3,[r0,#0xe]
0001d6  7093              STRB     r3,[r2,#2]
;;;208    	*(((char*)&can1_datb[ptr_can1_tx_wr])+3)=ptr[15];	
0001d8  7bc0              LDRB     r0,[r0,#0xf]
0001da  70d0              STRB     r0,[r2,#3]
;;;209    	ptr_can1_tx_wr++;
0001dc  f1010101          ADD      r1,r1,#1
0001e0  b2c8              UXTB     r0,r1
0001e2  70f8              STRB     r0,[r7,#3]
;;;210    	if(ptr_can1_tx_wr>=8)ptr_can1_tx_wr=0;	
0001e4  2808              CMP      r0,#8
0001e6  d3b2              BCC      |L1.334|
0001e8  70fd              STRB     r5,[r7,#3]
0001ea  e107              B        |L1.1020|
                  |L1.492|
;;;211    	}	
;;;212    
;;;213    else if(num<=24)
0001ec  2918              CMP      r1,#0x18
0001ee  d870              BHI      |L1.722|
;;;214    	{
;;;215    	can1_info[ptr_can1_tx_wr]=(8UL<<16)&0x000f0000UL;
0001f0  f44f2b00          MOV      r11,#0x80000
0001f4  f84ab022          STR      r11,[r10,r2,LSL #2]
;;;216    	can1_id[ptr_can1_tx_wr]=0x0000009eUL;
0001f8  f849e022          STR      lr,[r9,r2,LSL #2]
;;;217    	*((char*)&can1_data[ptr_can1_tx_wr])=ptr[0];
0001fc  f890b000          LDRB     r11,[r0,#0]
000200  f80cb022          STRB     r11,[r12,r2,LSL #2]
;;;218    	*(((char*)&can1_data[ptr_can1_tx_wr])+1)=ptr[1];
000204  f890b001          LDRB     r11,[r0,#1]
000208  f884b001          STRB     r11,[r4,#1]
;;;219    	*(((char*)&can1_data[ptr_can1_tx_wr])+2)=ptr[2];
00020c  f890b002          LDRB     r11,[r0,#2]
000210  f884b002          STRB     r11,[r4,#2]
;;;220    	*(((char*)&can1_data[ptr_can1_tx_wr])+3)=ptr[3];
000214  f890b003          LDRB     r11,[r0,#3]
000218  f884b003          STRB     r11,[r4,#3]
;;;221    	*((char*)&can1_datb[ptr_can1_tx_wr])=ptr[4];
00021c  7904              LDRB     r4,[r0,#4]
00021e  f8084022          STRB     r4,[r8,r2,LSL #2]
;;;222    	*(((char*)&can1_datb[ptr_can1_tx_wr])+1)=ptr[5];
000222  7942              LDRB     r2,[r0,#5]
000224  705a              STRB     r2,[r3,#1]
;;;223    	*(((char*)&can1_datb[ptr_can1_tx_wr])+2)=ptr[6];
000226  7982              LDRB     r2,[r0,#6]
000228  709a              STRB     r2,[r3,#2]
;;;224    	*(((char*)&can1_datb[ptr_can1_tx_wr])+3)=ptr[7];	
00022a  79c2              LDRB     r2,[r0,#7]
00022c  70da              STRB     r2,[r3,#3]
;;;225    	ptr_can1_tx_wr++;
00022e  70fe              STRB     r6,[r7,#3]
;;;226    	if(ptr_can1_tx_wr>=8)ptr_can1_tx_wr=0;
000230  2e08              CMP      r6,#8
000232  d300              BCC      |L1.566|
000234  70fd              STRB     r5,[r7,#3]
                  |L1.566|
;;;227    
;;;228    	can1_info[ptr_can1_tx_wr]=(8UL<<16)&0x000f0000UL;
000236  78fa              LDRB     r2,[r7,#3]  ; ptr_can1_tx_wr
000238  f44f2300          MOV      r3,#0x80000
00023c  f84a3022          STR      r3,[r10,r2,LSL #2]
;;;229    	can1_id[ptr_can1_tx_wr]=0x0000009eUL;
000240  f849e022          STR      lr,[r9,r2,LSL #2]
;;;230    	*((char*)&can1_data[ptr_can1_tx_wr])=ptr[8];
000244  7a03              LDRB     r3,[r0,#8]
000246  f80c3022          STRB     r3,[r12,r2,LSL #2]
;;;231    	*(((char*)&can1_data[ptr_can1_tx_wr])+1)=ptr[9];
00024a  eb0c0382          ADD      r3,r12,r2,LSL #2
00024e  7a44              LDRB     r4,[r0,#9]
000250  705c              STRB     r4,[r3,#1]
;;;232    	*(((char*)&can1_data[ptr_can1_tx_wr])+2)=ptr[10];
000252  7a84              LDRB     r4,[r0,#0xa]
000254  709c              STRB     r4,[r3,#2]
;;;233    	*(((char*)&can1_data[ptr_can1_tx_wr])+3)=ptr[11];
000256  7ac4              LDRB     r4,[r0,#0xb]
000258  70dc              STRB     r4,[r3,#3]
;;;234    	*((char*)&can1_datb[ptr_can1_tx_wr])=ptr[12];
00025a  7b03              LDRB     r3,[r0,#0xc]
00025c  f8083022          STRB     r3,[r8,r2,LSL #2]
;;;235    	*(((char*)&can1_datb[ptr_can1_tx_wr])+1)=ptr[13];
000260  eb080382          ADD      r3,r8,r2,LSL #2
000264  7b44              LDRB     r4,[r0,#0xd]
000266  705c              STRB     r4,[r3,#1]
;;;236    	*(((char*)&can1_datb[ptr_can1_tx_wr])+2)=ptr[14];
000268  7b84              LDRB     r4,[r0,#0xe]
00026a  709c              STRB     r4,[r3,#2]
;;;237    	*(((char*)&can1_datb[ptr_can1_tx_wr])+3)=ptr[15];	
00026c  7bc4              LDRB     r4,[r0,#0xf]
00026e  70dc              STRB     r4,[r3,#3]
;;;238    	ptr_can1_tx_wr++;
000270  f1020201          ADD      r2,r2,#1
000274  b2d2              UXTB     r2,r2
000276  70fa              STRB     r2,[r7,#3]
;;;239    	if(ptr_can1_tx_wr>=8)ptr_can1_tx_wr=0;
000278  2a08              CMP      r2,#8
00027a  d300              BCC      |L1.638|
00027c  70fd              STRB     r5,[r7,#3]
                  |L1.638|
;;;240    	
;;;241    	can1_info[ptr_can1_tx_wr]=(((long)(num-16))<<16)&0x000f0000UL;
00027e  f1a10110          SUB      r1,r1,#0x10
000282  f44f2270          MOV      r2,#0xf0000
000286  ea024201          AND      r2,r2,r1,LSL #16
00028a  78f9              LDRB     r1,[r7,#3]  ; ptr_can1_tx_wr
00028c  f84a2021          STR      r2,[r10,r1,LSL #2]
;;;242    	can1_id[ptr_can1_tx_wr]=0x0000009eUL;
000290  f849e021          STR      lr,[r9,r1,LSL #2]
;;;243    	*((char*)&can1_data[ptr_can1_tx_wr])=ptr[16];
000294  7c02              LDRB     r2,[r0,#0x10]
000296  f80c2021          STRB     r2,[r12,r1,LSL #2]
;;;244    	*(((char*)&can1_data[ptr_can1_tx_wr])+1)=ptr[17];
00029a  eb0c0381          ADD      r3,r12,r1,LSL #2
00029e  7c42              LDRB     r2,[r0,#0x11]
0002a0  705a              STRB     r2,[r3,#1]
;;;245    	*(((char*)&can1_data[ptr_can1_tx_wr])+2)=ptr[18];
0002a2  7c82              LDRB     r2,[r0,#0x12]
0002a4  709a              STRB     r2,[r3,#2]
;;;246    	*(((char*)&can1_data[ptr_can1_tx_wr])+3)=ptr[19];
0002a6  7cc2              LDRB     r2,[r0,#0x13]
0002a8  70da              STRB     r2,[r3,#3]
;;;247    	*((char*)&can1_datb[ptr_can1_tx_wr])=ptr[20];
0002aa  7d02              LDRB     r2,[r0,#0x14]
0002ac  f8082021          STRB     r2,[r8,r1,LSL #2]
;;;248    	*(((char*)&can1_datb[ptr_can1_tx_wr])+1)=ptr[21];
0002b0  eb080281          ADD      r2,r8,r1,LSL #2
0002b4  7d43              LDRB     r3,[r0,#0x15]
0002b6  7053              STRB     r3,[r2,#1]
;;;249    	*(((char*)&can1_datb[ptr_can1_tx_wr])+2)=ptr[22];
0002b8  7d83              LDRB     r3,[r0,#0x16]
0002ba  7093              STRB     r3,[r2,#2]
;;;250    	*(((char*)&can1_datb[ptr_can1_tx_wr])+3)=ptr[23];	
0002bc  7dc0              LDRB     r0,[r0,#0x17]
0002be  70d0              STRB     r0,[r2,#3]
;;;251    	ptr_can1_tx_wr++;
0002c0  f1010101          ADD      r1,r1,#1
0002c4  b2c8              UXTB     r0,r1
0002c6  70f8              STRB     r0,[r7,#3]
;;;252    	if(ptr_can1_tx_wr>=8)ptr_can1_tx_wr=0;	
0002c8  2808              CMP      r0,#8
0002ca  d300              BCC      |L1.718|
0002cc  70fd              STRB     r5,[r7,#3]
                  |L1.718|
0002ce  e095              B        |L1.1020|
0002d0  e7ff              B        |L1.722|
                  |L1.722|
;;;253    	}	
;;;254    
;;;255    else if(num<=32)
0002d2  2920              CMP      r1,#0x20
0002d4  d87e              BHI      |L1.980|
;;;256    	{
;;;257    	can1_info[ptr_can1_tx_wr]=(8UL<<16)&0x000f0000UL;
0002d6  f44f2b00          MOV      r11,#0x80000
0002da  f84ab022          STR      r11,[r10,r2,LSL #2]
;;;258    	can1_id[ptr_can1_tx_wr]=0x0000009eUL;
0002de  f849e022          STR      lr,[r9,r2,LSL #2]
;;;259    	*((char*)&can1_data[ptr_can1_tx_wr])=ptr[0];
0002e2  f890b000          LDRB     r11,[r0,#0]
0002e6  f80cb022          STRB     r11,[r12,r2,LSL #2]
;;;260    	*(((char*)&can1_data[ptr_can1_tx_wr])+1)=ptr[1];
0002ea  f890b001          LDRB     r11,[r0,#1]
0002ee  f884b001          STRB     r11,[r4,#1]
;;;261    	*(((char*)&can1_data[ptr_can1_tx_wr])+2)=ptr[2];
0002f2  f890b002          LDRB     r11,[r0,#2]
0002f6  f884b002          STRB     r11,[r4,#2]
;;;262    	*(((char*)&can1_data[ptr_can1_tx_wr])+3)=ptr[3];
0002fa  f890b003          LDRB     r11,[r0,#3]
0002fe  f884b003          STRB     r11,[r4,#3]
;;;263    	*((char*)&can1_datb[ptr_can1_tx_wr])=ptr[4];
000302  7904              LDRB     r4,[r0,#4]
000304  f8084022          STRB     r4,[r8,r2,LSL #2]
;;;264    	*(((char*)&can1_datb[ptr_can1_tx_wr])+1)=ptr[5];
000308  7942              LDRB     r2,[r0,#5]
00030a  705a              STRB     r2,[r3,#1]
;;;265    	*(((char*)&can1_datb[ptr_can1_tx_wr])+2)=ptr[6];
00030c  7982              LDRB     r2,[r0,#6]
00030e  709a              STRB     r2,[r3,#2]
;;;266    	*(((char*)&can1_datb[ptr_can1_tx_wr])+3)=ptr[7];	
000310  79c2              LDRB     r2,[r0,#7]
000312  70da              STRB     r2,[r3,#3]
;;;267    	ptr_can1_tx_wr++;
000314  70fe              STRB     r6,[r7,#3]
;;;268    	if(ptr_can1_tx_wr>=8)ptr_can1_tx_wr=0;
000316  2e08              CMP      r6,#8
000318  d300              BCC      |L1.796|
00031a  70fd              STRB     r5,[r7,#3]
                  |L1.796|
;;;269    
;;;270    	can1_info[ptr_can1_tx_wr]=(8UL<<16)&0x000f0000UL;
00031c  78fa              LDRB     r2,[r7,#3]  ; ptr_can1_tx_wr
00031e  f44f2300          MOV      r3,#0x80000
000322  f84a3022          STR      r3,[r10,r2,LSL #2]
;;;271    	can1_id[ptr_can1_tx_wr]=0x0000009eUL;
000326  f849e022          STR      lr,[r9,r2,LSL #2]
;;;272    	*((char*)&can1_data[ptr_can1_tx_wr])=ptr[8];
00032a  7a04              LDRB     r4,[r0,#8]
00032c  f80c4022          STRB     r4,[r12,r2,LSL #2]
;;;273    	*(((char*)&can1_data[ptr_can1_tx_wr])+1)=ptr[9];
000330  eb0c0482          ADD      r4,r12,r2,LSL #2
000334  7a46              LDRB     r6,[r0,#9]
000336  7066              STRB     r6,[r4,#1]
;;;274    	*(((char*)&can1_data[ptr_can1_tx_wr])+2)=ptr[10];
000338  7a86              LDRB     r6,[r0,#0xa]
00033a  70a6              STRB     r6,[r4,#2]
;;;275    	*(((char*)&can1_data[ptr_can1_tx_wr])+3)=ptr[11];
00033c  7ac6              LDRB     r6,[r0,#0xb]
00033e  70e6              STRB     r6,[r4,#3]
;;;276    	*((char*)&can1_datb[ptr_can1_tx_wr])=ptr[12];
000340  7b04              LDRB     r4,[r0,#0xc]
000342  f8084022          STRB     r4,[r8,r2,LSL #2]
;;;277    	*(((char*)&can1_datb[ptr_can1_tx_wr])+1)=ptr[13];
000346  eb080482          ADD      r4,r8,r2,LSL #2
00034a  7b46              LDRB     r6,[r0,#0xd]
00034c  7066              STRB     r6,[r4,#1]
;;;278    	*(((char*)&can1_datb[ptr_can1_tx_wr])+2)=ptr[14];
00034e  7b86              LDRB     r6,[r0,#0xe]
000350  70a6              STRB     r6,[r4,#2]
;;;279    	*(((char*)&can1_datb[ptr_can1_tx_wr])+3)=ptr[15];	
000352  7bc6              LDRB     r6,[r0,#0xf]
000354  70e6              STRB     r6,[r4,#3]
;;;280    	ptr_can1_tx_wr++;
000356  f1020201          ADD      r2,r2,#1
00035a  b2d2              UXTB     r2,r2
00035c  70fa              STRB     r2,[r7,#3]
;;;281    	if(ptr_can1_tx_wr>=8)ptr_can1_tx_wr=0;
00035e  2a08              CMP      r2,#8
000360  d300              BCC      |L1.868|
000362  70fd              STRB     r5,[r7,#3]
                  |L1.868|
;;;282    	
;;;283    	can1_info[ptr_can1_tx_wr]=(8UL<<16)&0x000f0000UL;
000364  78fa              LDRB     r2,[r7,#3]  ; ptr_can1_tx_wr
000366  f84a3022          STR      r3,[r10,r2,LSL #2]
;;;284    	can1_id[ptr_can1_tx_wr]=0x0000009eUL;
00036a  f849e022          STR      lr,[r9,r2,LSL #2]
;;;285    	*((char*)&can1_data[ptr_can1_tx_wr])=ptr[16];
00036e  7c03              LDRB     r3,[r0,#0x10]
000370  f80c3022          STRB     r3,[r12,r2,LSL #2]
;;;286    	*(((char*)&can1_data[ptr_can1_tx_wr])+1)=ptr[17];
000374  eb0c0382          ADD      r3,r12,r2,LSL #2
000378  7c44              LDRB     r4,[r0,#0x11]
00037a  705c              STRB     r4,[r3,#1]
;;;287    	*(((char*)&can1_data[ptr_can1_tx_wr])+2)=ptr[18];
00037c  7c84              LDRB     r4,[r0,#0x12]
00037e  709c              STRB     r4,[r3,#2]
;;;288    	*(((char*)&can1_data[ptr_can1_tx_wr])+3)=ptr[19];
000380  7cc4              LDRB     r4,[r0,#0x13]
000382  70dc              STRB     r4,[r3,#3]
;;;289    	*((char*)&can1_datb[ptr_can1_tx_wr])=ptr[20];
000384  7d03              LDRB     r3,[r0,#0x14]
000386  f8083022          STRB     r3,[r8,r2,LSL #2]
;;;290    	*(((char*)&can1_datb[ptr_can1_tx_wr])+1)=ptr[21];
00038a  eb080382          ADD      r3,r8,r2,LSL #2
00038e  7d44              LDRB     r4,[r0,#0x15]
000390  705c              STRB     r4,[r3,#1]
;;;291    	*(((char*)&can1_datb[ptr_can1_tx_wr])+2)=ptr[22];
000392  7d84              LDRB     r4,[r0,#0x16]
000394  709c              STRB     r4,[r3,#2]
;;;292    	*(((char*)&can1_datb[ptr_can1_tx_wr])+3)=ptr[23];	
000396  7dc4              LDRB     r4,[r0,#0x17]
000398  70dc              STRB     r4,[r3,#3]
;;;293    	ptr_can1_tx_wr++;
00039a  f1020201          ADD      r2,r2,#1
00039e  b2d2              UXTB     r2,r2
0003a0  70fa              STRB     r2,[r7,#3]
;;;294    	if(ptr_can1_tx_wr>=8)ptr_can1_tx_wr=0;
0003a2  2a08              CMP      r2,#8
0003a4  d300              BCC      |L1.936|
0003a6  70fd              STRB     r5,[r7,#3]
                  |L1.936|
;;;295    	
;;;296    	can1_info[ptr_can1_tx_wr]=(((long)(num-24))<<16)&0x000f0000UL;
0003a8  f1a10118          SUB      r1,r1,#0x18
0003ac  f44f2270          MOV      r2,#0xf0000
0003b0  ea024201          AND      r2,r2,r1,LSL #16
0003b4  78f9              LDRB     r1,[r7,#3]  ; ptr_can1_tx_wr
0003b6  f84a2021          STR      r2,[r10,r1,LSL #2]
;;;297    	can1_id[ptr_can1_tx_wr]=0x0000009eUL;
0003ba  f849e021          STR      lr,[r9,r1,LSL #2]
;;;298    	*((char*)&can1_data[ptr_can1_tx_wr])=ptr[24];
0003be  7e02              LDRB     r2,[r0,#0x18]
0003c0  f80c2021          STRB     r2,[r12,r1,LSL #2]
;;;299    	*(((char*)&can1_data[ptr_can1_tx_wr])+1)=ptr[25];
0003c4  eb0c0381          ADD      r3,r12,r1,LSL #2
0003c8  7e42              LDRB     r2,[r0,#0x19]
0003ca  705a              STRB     r2,[r3,#1]
;;;300    	*(((char*)&can1_data[ptr_can1_tx_wr])+2)=ptr[26];
0003cc  7e82              LDRB     r2,[r0,#0x1a]
0003ce  709a              STRB     r2,[r3,#2]
;;;301    	*(((char*)&can1_data[ptr_can1_tx_wr])+3)=ptr[27];
0003d0  7ec2              LDRB     r2,[r0,#0x1b]
0003d2  e000              B        |L1.982|
                  |L1.980|
0003d4  e012              B        |L1.1020|
                  |L1.982|
0003d6  70da              STRB     r2,[r3,#3]
;;;302    	*((char*)&can1_datb[ptr_can1_tx_wr])=ptr[28];
0003d8  7f02              LDRB     r2,[r0,#0x1c]
0003da  f8082021          STRB     r2,[r8,r1,LSL #2]
;;;303    	*(((char*)&can1_datb[ptr_can1_tx_wr])+1)=ptr[29];
0003de  eb080281          ADD      r2,r8,r1,LSL #2
0003e2  7f43              LDRB     r3,[r0,#0x1d]
0003e4  7053              STRB     r3,[r2,#1]
;;;304    	*(((char*)&can1_datb[ptr_can1_tx_wr])+2)=ptr[30];
0003e6  7f83              LDRB     r3,[r0,#0x1e]
0003e8  7093              STRB     r3,[r2,#2]
;;;305    	*(((char*)&can1_datb[ptr_can1_tx_wr])+3)=ptr[31];	
0003ea  7fc0              LDRB     r0,[r0,#0x1f]
0003ec  70d0              STRB     r0,[r2,#3]
;;;306    	ptr_can1_tx_wr++;
0003ee  f1010101          ADD      r1,r1,#1
0003f2  b2c8              UXTB     r0,r1
0003f4  70f8              STRB     r0,[r7,#3]
;;;307    	if(ptr_can1_tx_wr>=8)ptr_can1_tx_wr=0;	
0003f6  2808              CMP      r0,#8
0003f8  d300              BCC      |L1.1020|
0003fa  70fd              STRB     r5,[r7,#3]
                  |L1.1020|
;;;308    	}	
;;;309    
;;;310    
;;;311    if(bOUT_FREE)
0003fc  7838              LDRB     r0,[r7,#0]  ; bOUT_FREE
0003fe  e009              B        |L1.1044|
                  |L1.1024|
                          DCD      ||.bss||+0x124
                  |L1.1028|
                          DCD      ||.constdata||
                  |L1.1032|
                          DCD      ||.constdata||+0x100
                  |L1.1036|
                          DCD      ||.data||
                  |L1.1040|
                          DCD      ||.bss||
                  |L1.1044|
000414  2800              CMP      r0,#0
000416  d018              BEQ      |L1.1098|
;;;312    	{
;;;313    	LPC_CAN1->TFI1=can1_info[ptr_can1_tx_rd];
000418  7938              LDRB     r0,[r7,#4]  ; ptr_can1_tx_rd
00041a  49fb              LDR      r1,|L1.2056|
00041c  f85a2020          LDR      r2,[r10,r0,LSL #2]
000420  630a              STR      r2,[r1,#0x30]
;;;314         LPC_CAN1->TID1=can1_id[ptr_can1_tx_rd];
000422  f8592020          LDR      r2,[r9,r0,LSL #2]
000426  634a              STR      r2,[r1,#0x34]
;;;315         LPC_CAN1->TDA1=can1_data[ptr_can1_tx_rd];
000428  f85c2020          LDR      r2,[r12,r0,LSL #2]
00042c  638a              STR      r2,[r1,#0x38]
;;;316         LPC_CAN1->TDB1=can1_datb[ptr_can1_tx_rd];
00042e  f8582020          LDR      r2,[r8,r0,LSL #2]
000432  63ca              STR      r2,[r1,#0x3c]
;;;317         LPC_CAN1->CMR=0x00000021;
000434  f04f0221          MOV      r2,#0x21
000438  604a              STR      r2,[r1,#4]
;;;318         ptr_can1_tx_rd++;
00043a  f1000001          ADD      r0,r0,#1
00043e  b2c0              UXTB     r0,r0
000440  7138              STRB     r0,[r7,#4]
;;;319         if(ptr_can1_tx_rd>=8)ptr_can1_tx_rd=0;
000442  2808              CMP      r0,#8
000444  d300              BCC      |L1.1096|
000446  713d              STRB     r5,[r7,#4]
                  |L1.1096|
;;;320         bOUT_FREE=0;	
000448  703d              STRB     r5,[r7,#0]
                  |L1.1098|
;;;321    	}
;;;322    
;;;323    }	
00044a  e8bd8ff0          POP      {r4-r11,pc}
;;;324    
                          ENDP

                  can2_out_adr PROC
;;;325    //-----------------------------------------------
;;;326    void can2_out_adr(char* ptr,char num)
00044e  e92d4ff0          PUSH     {r4-r11,lr}
;;;327    {
;;;328    
;;;329    if(num<=8)
;;;330    	{
;;;331    	can2_info[ptr_can2_tx_wr]=(((long)num)<<16)&0x000f0000UL;
000452  4fee              LDR      r7,|L1.2060|
000454  f8dfa3b8          LDR      r10,|L1.2064|
;;;332    	can2_id[ptr_can2_tx_wr]=0x0000009eUL;
;;;333    	*((char*)&can2_data[ptr_can2_tx_wr])=ptr[0];
;;;334    	*(((char*)&can2_data[ptr_can2_tx_wr])+1)=ptr[1];
;;;335    	*(((char*)&can2_data[ptr_can2_tx_wr])+2)=ptr[2];
;;;336    	*(((char*)&can2_data[ptr_can2_tx_wr])+3)=ptr[3];
;;;337    	*((char*)&can2_datb[ptr_can2_tx_wr])=ptr[4];
;;;338    	*(((char*)&can2_datb[ptr_can2_tx_wr])+1)=ptr[5];
;;;339    	*(((char*)&can2_datb[ptr_can2_tx_wr])+2)=ptr[6];
;;;340    	*(((char*)&can2_datb[ptr_can2_tx_wr])+3)=ptr[7];	
;;;341    	ptr_can2_tx_wr++;
;;;342    	if(ptr_can2_tx_wr>=8)ptr_can2_tx_wr=0;
000458  2500              MOVS     r5,#0
00045a  797a              LDRB     r2,[r7,#5]            ;331
00045c  f10a0920          ADD      r9,r10,#0x20          ;332
000460  1c53              ADDS     r3,r2,#1              ;341
000462  b2de              UXTB     r6,r3                 ;341
000464  f1090c20          ADD      r12,r9,#0x20          ;333
000468  f1090840          ADD      r8,r9,#0x40           ;337
00046c  f04f0e9e          MOV      lr,#0x9e              ;332
000470  eb080382          ADD      r3,r8,r2,LSL #2       ;337
000474  eb0c0482          ADD      r4,r12,r2,LSL #2      ;333
000478  2908              CMP      r1,#8                 ;329
00047a  d81e              BHI      |L1.1210|
00047c  f44f2b70          MOV      r11,#0xf0000          ;331
000480  ea0b4101          AND      r1,r11,r1,LSL #16     ;331
000484  f84a1022          STR      r1,[r10,r2,LSL #2]    ;331
000488  f849e022          STR      lr,[r9,r2,LSL #2]     ;332
00048c  7801              LDRB     r1,[r0,#0]            ;333
00048e  f80c1022          STRB     r1,[r12,r2,LSL #2]    ;333
000492  7841              LDRB     r1,[r0,#1]            ;334
000494  7061              STRB     r1,[r4,#1]            ;334
000496  7881              LDRB     r1,[r0,#2]            ;335
000498  70a1              STRB     r1,[r4,#2]            ;335
00049a  78c1              LDRB     r1,[r0,#3]            ;336
00049c  70e1              STRB     r1,[r4,#3]            ;336
00049e  7901              LDRB     r1,[r0,#4]            ;337
0004a0  f8081022          STRB     r1,[r8,r2,LSL #2]     ;337
0004a4  7941              LDRB     r1,[r0,#5]            ;338
0004a6  7059              STRB     r1,[r3,#1]            ;338
0004a8  7981              LDRB     r1,[r0,#6]            ;339
0004aa  7099              STRB     r1,[r3,#2]            ;339
0004ac  79c0              LDRB     r0,[r0,#7]            ;340
0004ae  70d8              STRB     r0,[r3,#3]            ;340
0004b0  717e              STRB     r6,[r7,#5]            ;341
0004b2  2e08              CMP      r6,#8
0004b4  d300              BCC      |L1.1208|
0004b6  717d              STRB     r5,[r7,#5]
                  |L1.1208|
0004b8  e155              B        |L1.1894|
                  |L1.1210|
;;;343    	}
;;;344    	
;;;345    else if(num<=16)
;;;346    	{
;;;347    	
;;;348    	can2_info[ptr_can2_tx_wr]=(8UL<<16)&0x000f0000UL;
0004ba  f44f2b00          MOV      r11,#0x80000
0004be  2910              CMP      r1,#0x10              ;345
0004c0  d849              BHI      |L1.1366|
0004c2  f84ab022          STR      r11,[r10,r2,LSL #2]
;;;349    	can2_id[ptr_can2_tx_wr]=0x0000009eUL;
0004c6  f849e022          STR      lr,[r9,r2,LSL #2]
;;;350    	*((char*)&can2_data[ptr_can2_tx_wr])=ptr[0];
0004ca  f890b000          LDRB     r11,[r0,#0]
0004ce  f80cb022          STRB     r11,[r12,r2,LSL #2]
;;;351    	*(((char*)&can2_data[ptr_can2_tx_wr])+1)=ptr[1];
0004d2  f890b001          LDRB     r11,[r0,#1]
0004d6  f884b001          STRB     r11,[r4,#1]
;;;352    	*(((char*)&can2_data[ptr_can2_tx_wr])+2)=ptr[2];
0004da  f890b002          LDRB     r11,[r0,#2]
0004de  f884b002          STRB     r11,[r4,#2]
;;;353    	*(((char*)&can2_data[ptr_can2_tx_wr])+3)=ptr[3];
0004e2  f890b003          LDRB     r11,[r0,#3]
0004e6  f884b003          STRB     r11,[r4,#3]
;;;354    	*((char*)&can2_datb[ptr_can2_tx_wr])=ptr[4];
0004ea  7904              LDRB     r4,[r0,#4]
0004ec  f8084022          STRB     r4,[r8,r2,LSL #2]
;;;355    	*(((char*)&can2_datb[ptr_can2_tx_wr])+1)=ptr[5];
0004f0  7942              LDRB     r2,[r0,#5]
0004f2  705a              STRB     r2,[r3,#1]
;;;356    	*(((char*)&can2_datb[ptr_can2_tx_wr])+2)=ptr[6];
0004f4  7982              LDRB     r2,[r0,#6]
0004f6  709a              STRB     r2,[r3,#2]
;;;357    	*(((char*)&can2_datb[ptr_can2_tx_wr])+3)=ptr[7];	
0004f8  79c2              LDRB     r2,[r0,#7]
0004fa  70da              STRB     r2,[r3,#3]
;;;358    	ptr_can2_tx_wr++;
0004fc  717e              STRB     r6,[r7,#5]
;;;359    	if(ptr_can2_tx_wr>=8)ptr_can2_tx_wr=0;
0004fe  2e08              CMP      r6,#8
000500  d300              BCC      |L1.1284|
000502  717d              STRB     r5,[r7,#5]
                  |L1.1284|
;;;360    	
;;;361    	can2_info[ptr_can2_tx_wr]=(((long)(num-8))<<16)&0x000f0000UL;
000504  f1a10108          SUB      r1,r1,#8
000508  f44f2270          MOV      r2,#0xf0000
00050c  ea024201          AND      r2,r2,r1,LSL #16
000510  7979              LDRB     r1,[r7,#5]  ; ptr_can2_tx_wr
000512  f84a2021          STR      r2,[r10,r1,LSL #2]
;;;362    	can2_id[ptr_can2_tx_wr]=0x0000009eUL;
000516  f849e021          STR      lr,[r9,r1,LSL #2]
;;;363    	*((char*)&can2_data[ptr_can2_tx_wr])=ptr[8];
00051a  7a02              LDRB     r2,[r0,#8]
00051c  f80c2021          STRB     r2,[r12,r1,LSL #2]
;;;364    	*(((char*)&can2_data[ptr_can2_tx_wr])+1)=ptr[9];
000520  eb0c0381          ADD      r3,r12,r1,LSL #2
000524  7a42              LDRB     r2,[r0,#9]
000526  705a              STRB     r2,[r3,#1]
;;;365    	*(((char*)&can2_data[ptr_can2_tx_wr])+2)=ptr[10];
000528  7a82              LDRB     r2,[r0,#0xa]
00052a  709a              STRB     r2,[r3,#2]
;;;366    	*(((char*)&can2_data[ptr_can2_tx_wr])+3)=ptr[11];
00052c  7ac2              LDRB     r2,[r0,#0xb]
00052e  70da              STRB     r2,[r3,#3]
;;;367    	*((char*)&can2_datb[ptr_can2_tx_wr])=ptr[12];
000530  7b02              LDRB     r2,[r0,#0xc]
000532  f8082021          STRB     r2,[r8,r1,LSL #2]
;;;368    	*(((char*)&can2_datb[ptr_can2_tx_wr])+1)=ptr[13];
000536  eb080281          ADD      r2,r8,r1,LSL #2
00053a  7b43              LDRB     r3,[r0,#0xd]
00053c  7053              STRB     r3,[r2,#1]
;;;369    	*(((char*)&can2_datb[ptr_can2_tx_wr])+2)=ptr[14];
00053e  7b83              LDRB     r3,[r0,#0xe]
000540  7093              STRB     r3,[r2,#2]
;;;370    	*(((char*)&can2_datb[ptr_can2_tx_wr])+3)=ptr[15];	
000542  7bc0              LDRB     r0,[r0,#0xf]
000544  70d0              STRB     r0,[r2,#3]
;;;371    	ptr_can2_tx_wr++;
000546  f1010101          ADD      r1,r1,#1
00054a  b2c8              UXTB     r0,r1
00054c  7178              STRB     r0,[r7,#5]
;;;372    	if(ptr_can2_tx_wr>=8)ptr_can2_tx_wr=0;
00054e  2808              CMP      r0,#8
000550  d3b2              BCC      |L1.1208|
000552  717d              STRB     r5,[r7,#5]
000554  e107              B        |L1.1894|
                  |L1.1366|
;;;373    		
;;;374    	}	
;;;375    
;;;376    else if(num<=24)
000556  2918              CMP      r1,#0x18
000558  d870              BHI      |L1.1596|
;;;377    	{
;;;378    	can2_info[ptr_can2_tx_wr]=(8UL<<16)&0x000f0000UL;
00055a  f44f2b00          MOV      r11,#0x80000
00055e  f84ab022          STR      r11,[r10,r2,LSL #2]
;;;379    	can2_id[ptr_can2_tx_wr]=0x0000009eUL;
000562  f849e022          STR      lr,[r9,r2,LSL #2]
;;;380    	*((char*)&can2_data[ptr_can2_tx_wr])=ptr[0];
000566  f890b000          LDRB     r11,[r0,#0]
00056a  f80cb022          STRB     r11,[r12,r2,LSL #2]
;;;381    	*(((char*)&can2_data[ptr_can2_tx_wr])+1)=ptr[1];
00056e  f890b001          LDRB     r11,[r0,#1]
000572  f884b001          STRB     r11,[r4,#1]
;;;382    	*(((char*)&can2_data[ptr_can2_tx_wr])+2)=ptr[2];
000576  f890b002          LDRB     r11,[r0,#2]
00057a  f884b002          STRB     r11,[r4,#2]
;;;383    	*(((char*)&can2_data[ptr_can2_tx_wr])+3)=ptr[3];
00057e  f890b003          LDRB     r11,[r0,#3]
000582  f884b003          STRB     r11,[r4,#3]
;;;384    	*((char*)&can2_datb[ptr_can2_tx_wr])=ptr[4];
000586  7904              LDRB     r4,[r0,#4]
000588  f8084022          STRB     r4,[r8,r2,LSL #2]
;;;385    	*(((char*)&can2_datb[ptr_can2_tx_wr])+1)=ptr[5];
00058c  7942              LDRB     r2,[r0,#5]
00058e  705a              STRB     r2,[r3,#1]
;;;386    	*(((char*)&can2_datb[ptr_can2_tx_wr])+2)=ptr[6];
000590  7982              LDRB     r2,[r0,#6]
000592  709a              STRB     r2,[r3,#2]
;;;387    	*(((char*)&can2_datb[ptr_can2_tx_wr])+3)=ptr[7];	
000594  79c2              LDRB     r2,[r0,#7]
000596  70da              STRB     r2,[r3,#3]
;;;388    	ptr_can2_tx_wr++;
000598  717e              STRB     r6,[r7,#5]
;;;389    	if(ptr_can2_tx_wr>=8)ptr_can2_tx_wr=0;
00059a  2e08              CMP      r6,#8
00059c  d300              BCC      |L1.1440|
00059e  717d              STRB     r5,[r7,#5]
                  |L1.1440|
;;;390    
;;;391    	can2_info[ptr_can2_tx_wr]=(8UL<<16)&0x000f0000UL;
0005a0  797a              LDRB     r2,[r7,#5]  ; ptr_can2_tx_wr
0005a2  f44f2300          MOV      r3,#0x80000
0005a6  f84a3022          STR      r3,[r10,r2,LSL #2]
;;;392    	can2_id[ptr_can2_tx_wr]=0x0000009eUL;
0005aa  f849e022          STR      lr,[r9,r2,LSL #2]
;;;393    	*((char*)&can2_data[ptr_can2_tx_wr])=ptr[8];
0005ae  7a03              LDRB     r3,[r0,#8]
0005b0  f80c3022          STRB     r3,[r12,r2,LSL #2]
;;;394    	*(((char*)&can2_data[ptr_can2_tx_wr])+1)=ptr[9];
0005b4  eb0c0382          ADD      r3,r12,r2,LSL #2
0005b8  7a44              LDRB     r4,[r0,#9]
0005ba  705c              STRB     r4,[r3,#1]
;;;395    	*(((char*)&can2_data[ptr_can2_tx_wr])+2)=ptr[10];
0005bc  7a84              LDRB     r4,[r0,#0xa]
0005be  709c              STRB     r4,[r3,#2]
;;;396    	*(((char*)&can2_data[ptr_can2_tx_wr])+3)=ptr[11];
0005c0  7ac4              LDRB     r4,[r0,#0xb]
0005c2  70dc              STRB     r4,[r3,#3]
;;;397    	*((char*)&can2_datb[ptr_can2_tx_wr])=ptr[12];
0005c4  7b03              LDRB     r3,[r0,#0xc]
0005c6  f8083022          STRB     r3,[r8,r2,LSL #2]
;;;398    	*(((char*)&can2_datb[ptr_can2_tx_wr])+1)=ptr[13];
0005ca  eb080382          ADD      r3,r8,r2,LSL #2
0005ce  7b44              LDRB     r4,[r0,#0xd]
0005d0  705c              STRB     r4,[r3,#1]
;;;399    	*(((char*)&can2_datb[ptr_can2_tx_wr])+2)=ptr[14];
0005d2  7b84              LDRB     r4,[r0,#0xe]
0005d4  709c              STRB     r4,[r3,#2]
;;;400    	*(((char*)&can2_datb[ptr_can2_tx_wr])+3)=ptr[15];	
0005d6  7bc4              LDRB     r4,[r0,#0xf]
0005d8  70dc              STRB     r4,[r3,#3]
;;;401    	ptr_can2_tx_wr++;
0005da  f1020201          ADD      r2,r2,#1
0005de  b2d2              UXTB     r2,r2
0005e0  717a              STRB     r2,[r7,#5]
;;;402    	if(ptr_can2_tx_wr>=8)ptr_can2_tx_wr=0;
0005e2  2a08              CMP      r2,#8
0005e4  d300              BCC      |L1.1512|
0005e6  717d              STRB     r5,[r7,#5]
                  |L1.1512|
;;;403    	
;;;404    	can2_info[ptr_can2_tx_wr]=(((long)(num-16))<<16)&0x000f0000UL;
0005e8  f1a10110          SUB      r1,r1,#0x10
0005ec  f44f2270          MOV      r2,#0xf0000
0005f0  ea024201          AND      r2,r2,r1,LSL #16
0005f4  7979              LDRB     r1,[r7,#5]  ; ptr_can2_tx_wr
0005f6  f84a2021          STR      r2,[r10,r1,LSL #2]
;;;405    	can2_id[ptr_can2_tx_wr]=0x0000009eUL;
0005fa  f849e021          STR      lr,[r9,r1,LSL #2]
;;;406    	*((char*)&can2_data[ptr_can2_tx_wr])=ptr[16];
0005fe  7c02              LDRB     r2,[r0,#0x10]
000600  f80c2021          STRB     r2,[r12,r1,LSL #2]
;;;407    	*(((char*)&can2_data[ptr_can2_tx_wr])+1)=ptr[17];
000604  eb0c0381          ADD      r3,r12,r1,LSL #2
000608  7c42              LDRB     r2,[r0,#0x11]
00060a  705a              STRB     r2,[r3,#1]
;;;408    	*(((char*)&can2_data[ptr_can2_tx_wr])+2)=ptr[18];
00060c  7c82              LDRB     r2,[r0,#0x12]
00060e  709a              STRB     r2,[r3,#2]
;;;409    	*(((char*)&can2_data[ptr_can2_tx_wr])+3)=ptr[19];
000610  7cc2              LDRB     r2,[r0,#0x13]
000612  70da              STRB     r2,[r3,#3]
;;;410    	*((char*)&can2_datb[ptr_can2_tx_wr])=ptr[20];
000614  7d02              LDRB     r2,[r0,#0x14]
000616  f8082021          STRB     r2,[r8,r1,LSL #2]
;;;411    	*(((char*)&can2_datb[ptr_can2_tx_wr])+1)=ptr[21];
00061a  eb080281          ADD      r2,r8,r1,LSL #2
00061e  7d43              LDRB     r3,[r0,#0x15]
000620  7053              STRB     r3,[r2,#1]
;;;412    	*(((char*)&can2_datb[ptr_can2_tx_wr])+2)=ptr[22];
000622  7d83              LDRB     r3,[r0,#0x16]
000624  7093              STRB     r3,[r2,#2]
;;;413    	*(((char*)&can2_datb[ptr_can2_tx_wr])+3)=ptr[23];	
000626  7dc0              LDRB     r0,[r0,#0x17]
000628  70d0              STRB     r0,[r2,#3]
;;;414    	ptr_can2_tx_wr++;
00062a  f1010101          ADD      r1,r1,#1
00062e  b2c8              UXTB     r0,r1
000630  7178              STRB     r0,[r7,#5]
;;;415    	if(ptr_can2_tx_wr>=8)ptr_can2_tx_wr=0;	
000632  2808              CMP      r0,#8
000634  d300              BCC      |L1.1592|
000636  717d              STRB     r5,[r7,#5]
                  |L1.1592|
000638  e095              B        |L1.1894|
00063a  e7ff              B        |L1.1596|
                  |L1.1596|
;;;416    	}	
;;;417    
;;;418    else if(num<=32)
00063c  2920              CMP      r1,#0x20
00063e  d87e              BHI      |L1.1854|
;;;419    	{
;;;420    	can2_info[ptr_can2_tx_wr]=(8UL<<16)&0x000f0000UL;
000640  f44f2b00          MOV      r11,#0x80000
000644  f84ab022          STR      r11,[r10,r2,LSL #2]
;;;421    	can2_id[ptr_can2_tx_wr]=0x0000009eUL;
000648  f849e022          STR      lr,[r9,r2,LSL #2]
;;;422    	*((char*)&can2_data[ptr_can2_tx_wr])=ptr[0];
00064c  f890b000          LDRB     r11,[r0,#0]
000650  f80cb022          STRB     r11,[r12,r2,LSL #2]
;;;423    	*(((char*)&can2_data[ptr_can2_tx_wr])+1)=ptr[1];
000654  f890b001          LDRB     r11,[r0,#1]
000658  f884b001          STRB     r11,[r4,#1]
;;;424    	*(((char*)&can2_data[ptr_can2_tx_wr])+2)=ptr[2];
00065c  f890b002          LDRB     r11,[r0,#2]
000660  f884b002          STRB     r11,[r4,#2]
;;;425    	*(((char*)&can2_data[ptr_can2_tx_wr])+3)=ptr[3];
000664  f890b003          LDRB     r11,[r0,#3]
000668  f884b003          STRB     r11,[r4,#3]
;;;426    	*((char*)&can2_datb[ptr_can2_tx_wr])=ptr[4];
00066c  7904              LDRB     r4,[r0,#4]
00066e  f8084022          STRB     r4,[r8,r2,LSL #2]
;;;427    	*(((char*)&can2_datb[ptr_can2_tx_wr])+1)=ptr[5];
000672  7942              LDRB     r2,[r0,#5]
000674  705a              STRB     r2,[r3,#1]
;;;428    	*(((char*)&can2_datb[ptr_can2_tx_wr])+2)=ptr[6];
000676  7982              LDRB     r2,[r0,#6]
000678  709a              STRB     r2,[r3,#2]
;;;429    	*(((char*)&can2_datb[ptr_can2_tx_wr])+3)=ptr[7];	
00067a  79c2              LDRB     r2,[r0,#7]
00067c  70da              STRB     r2,[r3,#3]
;;;430    	ptr_can2_tx_wr++;
00067e  717e              STRB     r6,[r7,#5]
;;;431    	if(ptr_can2_tx_wr>=8)ptr_can2_tx_wr=0;
000680  2e08              CMP      r6,#8
000682  d300              BCC      |L1.1670|
000684  717d              STRB     r5,[r7,#5]
                  |L1.1670|
;;;432    
;;;433    	can2_info[ptr_can2_tx_wr]=(8UL<<16)&0x000f0000UL;
000686  797a              LDRB     r2,[r7,#5]  ; ptr_can2_tx_wr
000688  f44f2300          MOV      r3,#0x80000
00068c  f84a3022          STR      r3,[r10,r2,LSL #2]
;;;434    	can2_id[ptr_can2_tx_wr]=0x0000009eUL;
000690  f849e022          STR      lr,[r9,r2,LSL #2]
;;;435    	*((char*)&can2_data[ptr_can2_tx_wr])=ptr[8];
000694  7a04              LDRB     r4,[r0,#8]
000696  f80c4022          STRB     r4,[r12,r2,LSL #2]
;;;436    	*(((char*)&can2_data[ptr_can2_tx_wr])+1)=ptr[9];
00069a  eb0c0482          ADD      r4,r12,r2,LSL #2
00069e  7a46              LDRB     r6,[r0,#9]
0006a0  7066              STRB     r6,[r4,#1]
;;;437    	*(((char*)&can2_data[ptr_can2_tx_wr])+2)=ptr[10];
0006a2  7a86              LDRB     r6,[r0,#0xa]
0006a4  70a6              STRB     r6,[r4,#2]
;;;438    	*(((char*)&can2_data[ptr_can2_tx_wr])+3)=ptr[11];
0006a6  7ac6              LDRB     r6,[r0,#0xb]
0006a8  70e6              STRB     r6,[r4,#3]
;;;439    	*((char*)&can2_datb[ptr_can2_tx_wr])=ptr[12];
0006aa  7b04              LDRB     r4,[r0,#0xc]
0006ac  f8084022          STRB     r4,[r8,r2,LSL #2]
;;;440    	*(((char*)&can2_datb[ptr_can2_tx_wr])+1)=ptr[13];
0006b0  eb080482          ADD      r4,r8,r2,LSL #2
0006b4  7b46              LDRB     r6,[r0,#0xd]
0006b6  7066              STRB     r6,[r4,#1]
;;;441    	*(((char*)&can2_datb[ptr_can2_tx_wr])+2)=ptr[14];
0006b8  7b86              LDRB     r6,[r0,#0xe]
0006ba  70a6              STRB     r6,[r4,#2]
;;;442    	*(((char*)&can2_datb[ptr_can2_tx_wr])+3)=ptr[15];	
0006bc  7bc6              LDRB     r6,[r0,#0xf]
0006be  70e6              STRB     r6,[r4,#3]
;;;443    	ptr_can2_tx_wr++;
0006c0  f1020201          ADD      r2,r2,#1
0006c4  b2d2              UXTB     r2,r2
0006c6  717a              STRB     r2,[r7,#5]
;;;444    	if(ptr_can2_tx_wr>=8)ptr_can2_tx_wr=0;
0006c8  2a08              CMP      r2,#8
0006ca  d300              BCC      |L1.1742|
0006cc  717d              STRB     r5,[r7,#5]
                  |L1.1742|
;;;445    	
;;;446    	can2_info[ptr_can2_tx_wr]=(8UL<<16)&0x000f0000UL;
0006ce  797a              LDRB     r2,[r7,#5]  ; ptr_can2_tx_wr
0006d0  f84a3022          STR      r3,[r10,r2,LSL #2]
;;;447    	can2_id[ptr_can2_tx_wr]=0x0000009eUL;
0006d4  f849e022          STR      lr,[r9,r2,LSL #2]
;;;448    	*((char*)&can2_data[ptr_can2_tx_wr])=ptr[16];
0006d8  7c03              LDRB     r3,[r0,#0x10]
0006da  f80c3022          STRB     r3,[r12,r2,LSL #2]
;;;449    	*(((char*)&can2_data[ptr_can2_tx_wr])+1)=ptr[17];
0006de  eb0c0382          ADD      r3,r12,r2,LSL #2
0006e2  7c44              LDRB     r4,[r0,#0x11]
0006e4  705c              STRB     r4,[r3,#1]
;;;450    	*(((char*)&can2_data[ptr_can2_tx_wr])+2)=ptr[18];
0006e6  7c84              LDRB     r4,[r0,#0x12]
0006e8  709c              STRB     r4,[r3,#2]
;;;451    	*(((char*)&can2_data[ptr_can2_tx_wr])+3)=ptr[19];
0006ea  7cc4              LDRB     r4,[r0,#0x13]
0006ec  70dc              STRB     r4,[r3,#3]
;;;452    	*((char*)&can2_datb[ptr_can2_tx_wr])=ptr[20];
0006ee  7d03              LDRB     r3,[r0,#0x14]
0006f0  f8083022          STRB     r3,[r8,r2,LSL #2]
;;;453    	*(((char*)&can2_datb[ptr_can2_tx_wr])+1)=ptr[21];
0006f4  eb080382          ADD      r3,r8,r2,LSL #2
0006f8  7d44              LDRB     r4,[r0,#0x15]
0006fa  705c              STRB     r4,[r3,#1]
;;;454    	*(((char*)&can2_datb[ptr_can2_tx_wr])+2)=ptr[22];
0006fc  7d84              LDRB     r4,[r0,#0x16]
0006fe  709c              STRB     r4,[r3,#2]
;;;455    	*(((char*)&can2_datb[ptr_can2_tx_wr])+3)=ptr[23];	
000700  7dc4              LDRB     r4,[r0,#0x17]
000702  70dc              STRB     r4,[r3,#3]
;;;456    	ptr_can2_tx_wr++;
000704  f1020201          ADD      r2,r2,#1
000708  b2d2              UXTB     r2,r2
00070a  717a              STRB     r2,[r7,#5]
;;;457    	if(ptr_can2_tx_wr>=8)ptr_can2_tx_wr=0;
00070c  2a08              CMP      r2,#8
00070e  d300              BCC      |L1.1810|
000710  717d              STRB     r5,[r7,#5]
                  |L1.1810|
;;;458    	
;;;459    	can2_info[ptr_can2_tx_wr]=(((long)(num-24))<<16)&0x000f0000UL;
000712  f1a10118          SUB      r1,r1,#0x18
000716  f44f2270          MOV      r2,#0xf0000
00071a  ea024201          AND      r2,r2,r1,LSL #16
00071e  7979              LDRB     r1,[r7,#5]  ; ptr_can2_tx_wr
000720  f84a2021          STR      r2,[r10,r1,LSL #2]
;;;460    	can2_id[ptr_can2_tx_wr]=0x0000009eUL;
000724  f849e021          STR      lr,[r9,r1,LSL #2]
;;;461    	*((char*)&can2_data[ptr_can2_tx_wr])=ptr[24];
000728  7e02              LDRB     r2,[r0,#0x18]
00072a  f80c2021          STRB     r2,[r12,r1,LSL #2]
;;;462    	*(((char*)&can2_data[ptr_can2_tx_wr])+1)=ptr[25];
00072e  eb0c0381          ADD      r3,r12,r1,LSL #2
000732  7e42              LDRB     r2,[r0,#0x19]
000734  705a              STRB     r2,[r3,#1]
;;;463    	*(((char*)&can2_data[ptr_can2_tx_wr])+2)=ptr[26];
000736  7e82              LDRB     r2,[r0,#0x1a]
000738  709a              STRB     r2,[r3,#2]
;;;464    	*(((char*)&can2_data[ptr_can2_tx_wr])+3)=ptr[27];
00073a  7ec2              LDRB     r2,[r0,#0x1b]
00073c  e000              B        |L1.1856|
                  |L1.1854|
00073e  e012              B        |L1.1894|
                  |L1.1856|
000740  70da              STRB     r2,[r3,#3]
;;;465    	*((char*)&can2_datb[ptr_can2_tx_wr])=ptr[28];
000742  7f02              LDRB     r2,[r0,#0x1c]
000744  f8082021          STRB     r2,[r8,r1,LSL #2]
;;;466    	*(((char*)&can2_datb[ptr_can2_tx_wr])+1)=ptr[29];
000748  eb080281          ADD      r2,r8,r1,LSL #2
00074c  7f43              LDRB     r3,[r0,#0x1d]
00074e  7053              STRB     r3,[r2,#1]
;;;467    	*(((char*)&can2_datb[ptr_can2_tx_wr])+2)=ptr[30];
000750  7f83              LDRB     r3,[r0,#0x1e]
000752  7093              STRB     r3,[r2,#2]
;;;468    	*(((char*)&can2_datb[ptr_can2_tx_wr])+3)=ptr[31];	
000754  7fc0              LDRB     r0,[r0,#0x1f]
000756  70d0              STRB     r0,[r2,#3]
;;;469    	ptr_can2_tx_wr++;
000758  f1010101          ADD      r1,r1,#1
00075c  b2c8              UXTB     r0,r1
00075e  7178              STRB     r0,[r7,#5]
;;;470    	if(ptr_can2_tx_wr>=8)ptr_can2_tx_wr=0;	
000760  2808              CMP      r0,#8
000762  d300              BCC      |L1.1894|
000764  717d              STRB     r5,[r7,#5]
                  |L1.1894|
;;;471    	}	
;;;472    
;;;473    
;;;474    if(bOUT_FREE2)
000766  7878              LDRB     r0,[r7,#1]  ; bOUT_FREE2
000768  2800              CMP      r0,#0
00076a  d018              BEQ      |L1.1950|
;;;475    	{
;;;476    	LPC_CAN2->TFI1=can2_info[ptr_can2_tx_rd];
00076c  79b8              LDRB     r0,[r7,#6]  ; ptr_can2_tx_rd
00076e  4929              LDR      r1,|L1.2068|
000770  f85a2020          LDR      r2,[r10,r0,LSL #2]
000774  630a              STR      r2,[r1,#0x30]
;;;477         LPC_CAN2->TID1=can2_id[ptr_can2_tx_rd];
000776  f8592020          LDR      r2,[r9,r0,LSL #2]
00077a  634a              STR      r2,[r1,#0x34]
;;;478         LPC_CAN2->TDA1=can2_data[ptr_can2_tx_rd];
00077c  f85c2020          LDR      r2,[r12,r0,LSL #2]
000780  638a              STR      r2,[r1,#0x38]
;;;479         LPC_CAN2->TDB1=can2_datb[ptr_can2_tx_rd];
000782  f8582020          LDR      r2,[r8,r0,LSL #2]
000786  63ca              STR      r2,[r1,#0x3c]
;;;480         LPC_CAN2->CMR=0x00000021;
000788  f04f0221          MOV      r2,#0x21
00078c  604a              STR      r2,[r1,#4]
;;;481         ptr_can2_tx_rd++;
00078e  f1000001          ADD      r0,r0,#1
000792  b2c0              UXTB     r0,r0
000794  71b8              STRB     r0,[r7,#6]
;;;482         if(ptr_can2_tx_rd>=8)ptr_can2_tx_rd=0;
000796  2808              CMP      r0,#8
000798  d300              BCC      |L1.1948|
00079a  71bd              STRB     r5,[r7,#6]
                  |L1.1948|
;;;483         bOUT_FREE2=0;	
00079c  707d              STRB     r5,[r7,#1]
                  |L1.1950|
;;;484    	}
;;;485    
;;;486    }
00079e  e654              B        |L1.1098|
;;;487    
                          ENDP

                  paking PROC
;;;488    //-----------------------------------------------
;;;489    void paking(char* data_ptr,char data_len)
0007a0  b570              PUSH     {r4-r6,lr}
;;;490    {
;;;491    char i,ii,iii;
;;;492    for(i=0;i<data_len;i++)
0007a2  f04f0200          MOV      r2,#0
;;;493    	{
;;;494    	ii=data_len+(i/7);
0007a6  f04f0507          MOV      r5,#7
0007aa  e025              B        |L1.2040|
                  |L1.1964|
0007ac  fbb2f4f5          UDIV     r4,r2,r5
0007b0  eb040301          ADD      r3,r4,r1
0007b4  b2db              UXTB     r3,r3
;;;495    	iii=i-(7*(i/7)); 
0007b6  eba404c4          SUB      r4,r4,r4,LSL #3
0007ba  4414              ADD      r4,r4,r2
0007bc  b2e4              UXTB     r4,r4
;;;496    	if(iii==0) data_ptr[ii]=0;
0007be  b914              CBNZ     r4,|L1.1990|
0007c0  f04f0400          MOV      r4,#0
0007c4  54c4              STRB     r4,[r0,r3]
                  |L1.1990|
;;;497    	data_ptr[ii]<<=1;
0007c6  5cc4              LDRB     r4,[r0,r3]
0007c8  ea4f6444          LSL      r4,r4,#25
0007cc  ea4f6414          LSR      r4,r4,#24
0007d0  54c4              STRB     r4,[r0,r3]
;;;498    	if(data_ptr[i]&0x01)
0007d2  5c86              LDRB     r6,[r0,r2]
0007d4  07f6              LSLS     r6,r6,#31
0007d6  d003              BEQ      |L1.2016|
;;;499    		{
;;;500    		data_ptr[ii]|=0x01;//(1<<(6-iii));
0007d8  f0440401          ORR      r4,r4,#1
0007dc  54c4              STRB     r4,[r0,r3]
0007de  e002              B        |L1.2022|
                  |L1.2016|
;;;501    		}                      
;;;502    	else 
;;;503    		{
;;;504    		data_ptr[ii]&=0xfe;//~(1<<(6-iii));
0007e0  f00404fe          AND      r4,r4,#0xfe
0007e4  54c4              STRB     r4,[r0,r3]
                  |L1.2022|
;;;505    		}              
;;;506    	data_ptr[i]>>=1;	        
0007e6  5c83              LDRB     r3,[r0,r2]
0007e8  ea4f0353          LSR      r3,r3,#1
;;;507    	data_ptr[i]|=0x80;	
0007ec  f0430380          ORR      r3,r3,#0x80
0007f0  5483              STRB     r3,[r0,r2]
0007f2  f1020201          ADD      r2,r2,#1              ;492
0007f6  b2d2              UXTB     r2,r2                 ;492
                  |L1.2040|
0007f8  428a              CMP      r2,r1                 ;492
0007fa  d3d7              BCC      |L1.1964|
;;;508    	}                       
;;;509    for(i=data_len;i<(data_len+(data_len/7)+1);i++)
0007fc  fbb1f2f5          UDIV     r2,r1,r5
000800  440a              ADD      r2,r2,r1
000802  f1020201          ADD      r2,r2,#1
000806  e00e              B        |L1.2086|
                  |L1.2056|
                          DCD      0x40044000
                  |L1.2060|
                          DCD      ||.data||
                  |L1.2064|
                          DCD      ||.bss||+0x80
                  |L1.2068|
                          DCD      0x40048000
                  |L1.2072|
;;;510    	{
;;;511    	data_ptr[i]|=0x80;
000818  5c43              LDRB     r3,[r0,r1]
00081a  f0430380          ORR      r3,r3,#0x80
00081e  5443              STRB     r3,[r0,r1]
000820  f1010101          ADD      r1,r1,#1              ;509
000824  b2c9              UXTB     r1,r1                 ;509
                  |L1.2086|
000826  428a              CMP      r2,r1                 ;509
000828  d8f6              BHI      |L1.2072|
;;;512    	}	
;;;513    }
00082a  bd70              POP      {r4-r6,pc}
;;;514    
                          ENDP

                  can2_out PROC
;;;548    //-----------------------------------------------
;;;549    void can2_out(char dat0,char dat1,char dat2,char dat3,char dat4,char dat5,char dat6,char dat7)
00082c  e92d4ff0          PUSH     {r4-r11,lr}
;;;550    {
000830  e9ddab0b          LDRD     r10,r11,[sp,#0x2c]
000834  e9dd8909          LDRD     r8,r9,[sp,#0x24]
;;;551    
;;;552    //new_rotor[0]++;
;;;553    can2_info[ptr_can2_tx_wr]=((8UL)<<16)&0x000f0000UL;
000838  4fff              LDR      r7,|L1.3128|
00083a  f44f2600          MOV      r6,#0x80000
00083e  4dff              LDR      r5,|L1.3132|
000840  796c              LDRB     r4,[r5,#5]  ; ptr_can2_tx_wr
000842  f8476024          STR      r6,[r7,r4,LSL #2]
;;;554    can2_id[ptr_can2_tx_wr]=0x0000018eUL;
000846  f1070c20          ADD      r12,r7,#0x20
00084a  f44f76c7          MOV      r6,#0x18e
00084e  f84c6024          STR      r6,[r12,r4,LSL #2]
;;;555    *((char*)&can2_data[ptr_can2_tx_wr])=dat0;
000852  f1070640          ADD      r6,r7,#0x40
000856  f8060024          STRB     r0,[r6,r4,LSL #2]
;;;556    *(((char*)&can2_data[ptr_can2_tx_wr])+1)=dat1;
00085a  eb060084          ADD      r0,r6,r4,LSL #2
00085e  7041              STRB     r1,[r0,#1]
;;;557    *(((char*)&can2_data[ptr_can2_tx_wr])+2)=dat2;
000860  7082              STRB     r2,[r0,#2]
;;;558    *(((char*)&can2_data[ptr_can2_tx_wr])+3)=dat3;
000862  70c3              STRB     r3,[r0,#3]
;;;559    *((char*)&can2_datb[ptr_can2_tx_wr])=dat4;
000864  f1060220          ADD      r2,r6,#0x20
000868  f8028024          STRB     r8,[r2,r4,LSL #2]
;;;560    *(((char*)&can2_datb[ptr_can2_tx_wr])+1)=dat5;
00086c  eb020084          ADD      r0,r2,r4,LSL #2
000870  f8809001          STRB     r9,[r0,#1]
;;;561    *(((char*)&can2_datb[ptr_can2_tx_wr])+2)=dat6;
000874  f880a002          STRB     r10,[r0,#2]
;;;562    *(((char*)&can2_datb[ptr_can2_tx_wr])+3)=dat7;	
000878  f880b003          STRB     r11,[r0,#3]
;;;563    ptr_can2_tx_wr++;
00087c  f1040401          ADD      r4,r4,#1
000880  b2e0              UXTB     r0,r4
000882  7168              STRB     r0,[r5,#5]
;;;564    if(ptr_can2_tx_wr>=8)ptr_can2_tx_wr=0;
000884  f04f0300          MOV      r3,#0
000888  2808              CMP      r0,#8
00088a  d300              BCC      |L1.2190|
00088c  716b              STRB     r3,[r5,#5]
                  |L1.2190|
;;;565    
;;;566    
;;;567    if(bOUT_FREE2)
00088e  7868              LDRB     r0,[r5,#1]  ; bOUT_FREE2
000890  2800              CMP      r0,#0
000892  d018              BEQ      |L1.2246|
;;;568    	{
;;;569    	//rotor_rotor_rotor[1]++;
;;;570    //	new_rotor[1]++;
;;;571    	LPC_CAN2->TFI1=can2_info[ptr_can2_tx_rd];
000894  79a8              LDRB     r0,[r5,#6]  ; ptr_can2_tx_rd
000896  49ea              LDR      r1,|L1.3136|
000898  f8574020          LDR      r4,[r7,r0,LSL #2]
00089c  630c              STR      r4,[r1,#0x30]
;;;572         LPC_CAN2->TID1=can2_id[ptr_can2_tx_rd];
00089e  f85c4020          LDR      r4,[r12,r0,LSL #2]
0008a2  634c              STR      r4,[r1,#0x34]
;;;573         LPC_CAN2->TDA1=can2_data[ptr_can2_tx_rd];
0008a4  f8564020          LDR      r4,[r6,r0,LSL #2]
0008a8  638c              STR      r4,[r1,#0x38]
;;;574         LPC_CAN2->TDB1=can2_datb[ptr_can2_tx_rd];
0008aa  f8522020          LDR      r2,[r2,r0,LSL #2]
0008ae  63ca              STR      r2,[r1,#0x3c]
;;;575         LPC_CAN2->CMR=0x00000021;
0008b0  f04f0221          MOV      r2,#0x21
0008b4  604a              STR      r2,[r1,#4]
;;;576         ptr_can2_tx_rd++;
0008b6  f1000001          ADD      r0,r0,#1
0008ba  b2c0              UXTB     r0,r0
0008bc  71a8              STRB     r0,[r5,#6]
;;;577         if(ptr_can2_tx_rd>=8)ptr_can2_tx_rd=0;
0008be  2808              CMP      r0,#8
0008c0  d300              BCC      |L1.2244|
0008c2  71ab              STRB     r3,[r5,#6]
                  |L1.2244|
;;;578         bOUT_FREE2=0;	
0008c4  706b              STRB     r3,[r5,#1]
                  |L1.2246|
;;;579    	}
;;;580    }	
0008c6  e5c0              B        |L1.1098|
;;;581    	
                          ENDP

                  can_adr_hndl PROC
;;;583    //-----------------------------------------------
;;;584    void can_adr_hndl(void)
0008c8  4adb              LDR      r2,|L1.3128|
;;;585    {
;;;586    	TXBUFF[2]=RXBUFF[3];
0008ca  32a4              ADDS     r2,r2,#0xa4
0008cc  f1020128          ADD      r1,r2,#0x28
0008d0  78d0              LDRB     r0,[r2,#3]  ; RXBUFF
0008d2  7088              STRB     r0,[r1,#2]
;;;587    	TXBUFF[3]=RXBUFF[2];
0008d4  7890              LDRB     r0,[r2,#2]  ; RXBUFF
0008d6  70c8              STRB     r0,[r1,#3]
;;;588    	TXBUFF[4]=((RXBUFF[4]&0xF0)>>4)|((RXBUFF[4]&0x0f)<<4);
0008d8  7910              LDRB     r0,[r2,#4]  ; RXBUFF
0008da  ea4f1310          LSR      r3,r0,#4
0008de  ea431000          ORR      r0,r3,r0,LSL #4
0008e2  7108              STRB     r0,[r1,#4]
;;;589    	TXBUFF[5]=((RXBUFF[5]&0xF0)>>4)|((RXBUFF[5]&0x0f)<<4);	
0008e4  7950              LDRB     r0,[r2,#5]  ; RXBUFF
0008e6  ea4f1210          LSR      r2,r0,#4
0008ea  ea421000          ORR      r0,r2,r0,LSL #4
0008ee  7148              STRB     r0,[r1,#5]
;;;590    }	
0008f0  4770              BX       lr
;;;591    
                          ENDP

                  can_in_an2 PROC
;;;592    //-----------------------------------------------
;;;593    void can_in_an2(void)
0008f2  e92d4ff8          PUSH     {r3-r11,lr}
;;;594    {
;;;595    if(!bIN) goto CAN_IN_AN_end; 
0008f6  4dd1              LDR      r5,|L1.3132|
0008f8  7a28              LDRB     r0,[r5,#8]  ; bIN
0008fa  2800              CMP      r0,#0
0008fc  d07e              BEQ      |L1.2556|
;;;596    can_debug_plazma[0][1]++;
0008fe  f8dfb338          LDR      r11,|L1.3128|
000902  f10b0bfe          ADD      r11,r11,#0xfe
000906  4659              MOV      r1,r11
000908  f89b0001          LDRB     r0,[r11,#1]  ; can_debug_plazma
00090c  f1000001          ADD      r0,r0,#1
000910  7048              STRB     r0,[r1,#1]
;;;597     
;;;598    
;;;599    //  
;;;600    if((RXBUFF[0]==0x30)&&((RXBUFF[1]&0xc0)==0x40)&&
000912  f1a1005a          SUB      r0,r1,#0x5a
000916  4603              MOV      r3,r0
000918  f890c000          LDRB     r12,[r0,#0]  ; RXBUFF
;;;601    	((RXBUFF[4]&0xf0)==0xe0)&&((RXBUFF[5]&0xf0)==0x20)&&(RXBUFF[6]==0x01))
;;;602    	{ 
;;;603         
;;;604    
;;;605        	TXBUFF[0]=0x30;
00091c  f1a10432          SUB      r4,r1,#0x32
000920  7858              LDRB     r0,[r3,#1]            ;600
000922  7919              LDRB     r1,[r3,#4]            ;601
000924  795a              LDRB     r2,[r3,#5]            ;601
000926  799b              LDRB     r3,[r3,#6]            ;601
;;;606    	TXBUFF[1]=(RXBUFF[1]&0xa0)+4;
000928  f0000aa0          AND      r10,r0,#0xa0
00092c  f04f0901          MOV      r9,#1                 ;600
000930  f04f0730          MOV      r7,#0x30              ;600
000934  f04f080e          MOV      r8,#0xe               ;601
000938  f04f0602          MOV      r6,#2                 ;601
00093c  f1bc0f30          CMP      r12,#0x30             ;600
000940  d10a              BNE      |L1.2392|
000942  ebb91f90          CMP      r9,r0,LSR #6          ;600
000946  d107              BNE      |L1.2392|
000948  ebb81f11          CMP      r8,r1,LSR #4          ;601
00094c  d104              BNE      |L1.2392|
00094e  ebb61f12          CMP      r6,r2,LSR #4          ;601
000952  d101              BNE      |L1.2392|
000954  2b01              CMP      r3,#1                 ;601
000956  d003              BEQ      |L1.2400|
                  |L1.2392|
;;;607    	can_adr_hndl();
;;;608    	TXBUFF[6]=0x01;
;;;609    	TXBUFF[7]=3;
;;;610    	TXBUFF[8]=5;
;;;611    	TXBUFF[9]=CRC1_out();
;;;612    	TXBUFF[10]=CRC2_out();
;;;613    	TX_len=11;
;;;614    
;;;615    	can2_out_adr(TXBUFF,11);  
;;;616    	}
;;;617    //    
;;;618    else if((RXBUFF[0]==0x30)&&((RXBUFF[1]&0xc0)==0x40)&&
000958  f1bc0f30          CMP      r12,#0x30
00095c  d01f              BEQ      |L1.2462|
00095e  e029              B        |L1.2484|
                  |L1.2400|
000960  7027              STRB     r7,[r4,#0]            ;605
000962  f10a0a04          ADD      r10,r10,#4            ;606
000966  f884a001          STRB     r10,[r4,#1]           ;606
00096a  f7fffffe          BL       can_adr_hndl
00096e  f8849006          STRB     r9,[r4,#6]            ;608
000972  f04f0003          MOV      r0,#3                 ;609
000976  71e0              STRB     r0,[r4,#7]            ;609
000978  f04f0005          MOV      r0,#5                 ;610
00097c  7220              STRB     r0,[r4,#8]            ;610
00097e  f7fffffe          BL       CRC1_out
000982  7260              STRB     r0,[r4,#9]            ;611
000984  f7fffffe          BL       CRC2_out
000988  72a0              STRB     r0,[r4,#0xa]          ;612
00098a  f04f000b          MOV      r0,#0xb               ;613
00098e  72a8              STRB     r0,[r5,#0xa]          ;613
000990  4601              MOV      r1,r0                 ;615
000992  48a9              LDR      r0,|L1.3128|
000994  f10000cc          ADD      r0,r0,#0xcc           ;615
000998  f7fffffe          BL       can2_out_adr
00099c  e20f              B        |L1.3518|
                  |L1.2462|
00099e  ebb91f90          CMP      r9,r0,LSR #6
0009a2  d107              BNE      |L1.2484|
;;;619    	((RXBUFF[4]&0xf0)==0xe0)&&((RXBUFF[5]&0xf0)==0x20)&&(RXBUFF[6]==0xB0))
0009a4  ebb81f11          CMP      r8,r1,LSR #4
0009a8  d104              BNE      |L1.2484|
0009aa  ebb61f12          CMP      r6,r2,LSR #4
0009ae  d101              BNE      |L1.2484|
0009b0  2bb0              CMP      r3,#0xb0
0009b2  d011              BEQ      |L1.2520|
                  |L1.2484|
0009b4  f8dfb280          LDR      r11,|L1.3128|
;;;620    	{ 
;;;621    	can_debug_plazma[0][2]++;
;;;622        	TXBUFF[0]=0x30;
;;;623    	TXBUFF[1]=(RXBUFF[1]&0xa0)+13;
;;;624    	can_adr_hndl(); 
;;;625    	
;;;626    	TXBUFF[6]=0xB0;
;;;627    	
;;;628    	//net_U=231;
;;;629    	//net_F=501;
;;;630    
;;;631    	if(net_U>=254)TXBUFF[7]=0xff;
;;;632    	else TXBUFF[7]=net_U;
;;;633    	
;;;634    	if(net_F<400) TXBUFF[8]=1;
;;;635    	else if(net_F>654) TXBUFF[8]=0xff;
;;;636    	else TXBUFF[8]=(unsigned char)((net_F-400)+1);
;;;637    	
;;;638    	TXBUFF[9]=*((char*)(&load_U));
;;;639    	TXBUFF[10]=*(((char*)(&load_U))+1);
;;;640    	TXBUFF[11]=*((char*)(&load_I));
;;;641    	TXBUFF[12]=*(((char*)(&load_I))+1);
;;;642    	
;;;643    	TXBUFF[13]=0xcc;
;;;644    	TXBUFF[13]|=4;(NUMIST&0x07);
;;;645    	TXBUFF[13]|=((NUMBAT&0x03)<<4);
;;;646    	
;;;647    
;;;648    	TXBUFF[14]=0x80;
;;;649    	if(avar_stat&0x00000001)TXBUFF[14]|=0x01;
;;;650    	if(PAR)TXBUFF[14]|=0x40;
;;;651    	
;;;652    	TXBUFF[15]=25;//tbat[2];
;;;653         
;;;654    	paking(&TXBUFF[6],10);
;;;655    	
;;;656    	TXBUFF[18]=CRC1_out();
;;;657    	TXBUFF[19]=CRC2_out();
;;;658    	TX_len=20;
;;;659    				
;;;660    	can2_out_adr(TXBUFF,20);  
;;;661    	} 
;;;662    
;;;663    //   1 
;;;664    else if((RXBUFF[0]==0x30)&&((RXBUFF[1]&0xc0)==0x40)&&
0009b8  f1bc0f30          CMP      r12,#0x30
0009bc  f10b0ba4          ADD      r11,r11,#0xa4         ;600
0009c0  f89ba001          LDRB     r10,[r11,#1]          ;600
;;;665    	((RXBUFF[4]&0xf0)==0xe0)&&((RXBUFF[5]&0xf0)==0x20)&&(RXBUFF[6]==0xB1)&&(RXBUFF[7]==0x01))
0009c4  f89bb007          LDRB     r11,[r11,#7]
0009c8  f00a0aa0          AND      r10,r10,#0xa0         ;606
;;;666    	{ 
;;;667    	signed short temp_S;
;;;668    
;;;669        	TXBUFF[0]=0x30;
;;;670    	TXBUFF[1]=(RXBUFF[1]&0xa0)+14;
0009cc  f10a0a0e          ADD      r10,r10,#0xe
0009d0  f00a0aff          AND      r10,r10,#0xff
0009d4  d06d              BEQ      |L1.2738|
0009d6  e07a              B        |L1.2766|
                  |L1.2520|
0009d8  f89b0002          LDRB     r0,[r11,#2]           ;621  ; can_debug_plazma
0009dc  f1000001          ADD      r0,r0,#1              ;621
0009e0  f88b0002          STRB     r0,[r11,#2]           ;621
0009e4  7027              STRB     r7,[r4,#0]            ;622
0009e6  f10a0a0d          ADD      r10,r10,#0xd          ;623
0009ea  f884a001          STRB     r10,[r4,#1]           ;623
0009ee  f7fffffe          BL       can_adr_hndl
0009f2  f04f00b0          MOV      r0,#0xb0              ;626
0009f6  71a0              STRB     r0,[r4,#6]            ;626
0009f8  4892              LDR      r0,|L1.3140|
0009fa  e000              B        |L1.2558|
                  |L1.2556|
0009fc  e3fb              B        |L1.4598|
                  |L1.2558|
0009fe  f9b00000          LDRSH    r0,[r0,#0]            ;631  ; net_U
000a02  28fe              CMP      r0,#0xfe              ;631
000a04  db03              BLT      |L1.2574|
000a06  f04f00ff          MOV      r0,#0xff              ;631
000a0a  71e0              STRB     r0,[r4,#7]            ;631
000a0c  e000              B        |L1.2576|
                  |L1.2574|
000a0e  71e0              STRB     r0,[r4,#7]            ;632
                  |L1.2576|
000a10  488d              LDR      r0,|L1.3144|
000a12  f9b00000          LDRSH    r0,[r0,#0]            ;634  ; net_F
000a16  f5b07fc8          CMP      r0,#0x190             ;634
000a1a  da02              BGE      |L1.2594|
000a1c  f8849008          STRB     r9,[r4,#8]            ;634
000a20  e00a              B        |L1.2616|
                  |L1.2594|
000a22  f240218e          MOV      r1,#0x28e             ;635
000a26  4288              CMP      r0,r1                 ;635
000a28  dd03              BLE      |L1.2610|
000a2a  f04f00ff          MOV      r0,#0xff              ;635
000a2e  7220              STRB     r0,[r4,#8]            ;635
000a30  e002              B        |L1.2616|
                  |L1.2610|
000a32  f2a0108f          SUB      r0,r0,#0x18f          ;636
000a36  7220              STRB     r0,[r4,#8]            ;636
                  |L1.2616|
000a38  4884              LDR      r0,|L1.3148|
000a3a  7801              LDRB     r1,[r0,#0]            ;638  ; load_U
000a3c  7261              STRB     r1,[r4,#9]            ;638
000a3e  7840              LDRB     r0,[r0,#1]            ;639  ; load_U
000a40  72a0              STRB     r0,[r4,#0xa]          ;639
000a42  4883              LDR      r0,|L1.3152|
000a44  7801              LDRB     r1,[r0,#0]            ;640  ; load_I
000a46  72e1              STRB     r1,[r4,#0xb]          ;640
000a48  7840              LDRB     r0,[r0,#1]            ;641  ; load_I
000a4a  7320              STRB     r0,[r4,#0xc]          ;641
000a4c  f04f00cc          MOV      r0,#0xcc              ;643
000a50  4980              LDR      r1,|L1.3156|
000a52  8809              LDRH     r1,[r1,#0]            ;645  ; NUMBAT
000a54  f0010103          AND      r1,r1,#3              ;645
000a58  ea401001          ORR      r0,r0,r1,LSL #4       ;645
000a5c  7360              STRB     r0,[r4,#0xd]          ;645
000a5e  f04f0080          MOV      r0,#0x80              ;648
000a62  73a0              STRB     r0,[r4,#0xe]          ;648
000a64  487c              LDR      r0,|L1.3160|
000a66  6800              LDR      r0,[r0,#0]            ;649  ; avar_stat
000a68  07c0              LSLS     r0,r0,#31             ;649
000a6a  d002              BEQ      |L1.2674|
000a6c  f04f0081          MOV      r0,#0x81              ;649
000a70  73a0              STRB     r0,[r4,#0xe]          ;649
                  |L1.2674|
000a72  487a              LDR      r0,|L1.3164|
000a74  8800              LDRH     r0,[r0,#0]            ;650  ; PAR
000a76  b118              CBZ      r0,|L1.2688|
000a78  7ba0              LDRB     r0,[r4,#0xe]          ;650  ; TXBUFF
000a7a  f0400040          ORR      r0,r0,#0x40           ;650
000a7e  73a0              STRB     r0,[r4,#0xe]          ;650
                  |L1.2688|
000a80  f04f0019          MOV      r0,#0x19              ;652
000a84  73e0              STRB     r0,[r4,#0xf]          ;652
000a86  f04f010a          MOV      r1,#0xa               ;654
000a8a  f1040006          ADD      r0,r4,#6              ;654
000a8e  f7fffffe          BL       paking
000a92  f7fffffe          BL       CRC1_out
000a96  74a0              STRB     r0,[r4,#0x12]         ;656
000a98  f7fffffe          BL       CRC2_out
000a9c  74e0              STRB     r0,[r4,#0x13]         ;657
000a9e  f04f0014          MOV      r0,#0x14              ;658
000aa2  72a8              STRB     r0,[r5,#0xa]          ;658
000aa4  4601              MOV      r1,r0                 ;660
000aa6  4864              LDR      r0,|L1.3128|
000aa8  f10000cc          ADD      r0,r0,#0xcc           ;660
000aac  f7fffffe          BL       can2_out_adr
000ab0  e3d0              B        |L1.4692|
                  |L1.2738|
000ab2  ebb91f90          CMP      r9,r0,LSR #6          ;664
000ab6  d10a              BNE      |L1.2766|
000ab8  ebb81f11          CMP      r8,r1,LSR #4          ;665
000abc  d107              BNE      |L1.2766|
000abe  ebb61f12          CMP      r6,r2,LSR #4          ;665
000ac2  d104              BNE      |L1.2766|
000ac4  2bb1              CMP      r3,#0xb1              ;665
000ac6  d102              BNE      |L1.2766|
000ac8  f1bb0f01          CMP      r11,#1                ;665
000acc  d003              BEQ      |L1.2774|
                  |L1.2766|
;;;671    	can_adr_hndl();
;;;672    	TXBUFF[6]=0xB1;
;;;673    	TXBUFF[7]=1;
;;;674    	
;;;675    	if(BAT_IS_ON[0]!=bisON) TXBUFF[8]=0xFF;
;;;676    	else if(bat[0]._av)TXBUFF[8]=0xF7;
;;;677    	else TXBUFF[8]=0xF0;
;;;678    	
;;;679    	if((spc_stat==spcKE))TXBUFF[9]=0xF9;
;;;680    	else if(spc_stat==spcVZ)TXBUFF[9]=0xF8;                      
;;;681    	else TXBUFF[9]=0xF0;
;;;682    	
;;;683    	
;;;684    	temp_S=(bat[0]._Ib/10)+10000;
;;;685    			
;;;686    	TXBUFF[10]=*((char*)(&bat[0]._Ub));
;;;687    	TXBUFF[11]=*(((char*)(&bat[0]._Ub))+1);
;;;688    	TXBUFF[12]=*((char*)(&temp_S));
;;;689    	TXBUFF[13]=*(((char*)(&temp_S))+1);
;;;690    	TXBUFF[14]=bat[0]._Tb;
;;;691    	TXBUFF[15]=bat[0]._zar; 
;;;692    	
;;;693    	if(BAT_C_REAL[0]==0x5555)TXBUFF[16]=BAT_C_NOM[0];
;;;694    	else TXBUFF[16]=BAT_C_REAL[0]/10;	
;;;695    	
;;;696        	paking(&TXBUFF[6],11);
;;;697        
;;;698    	TXBUFF[19]=CRC1_out();
;;;699    	TXBUFF[20]=CRC2_out();
;;;700    	TX_len=21; 
;;;701     
;;;702    	can2_out_adr(TXBUFF,21);  
;;;703    	}	
;;;704    
;;;705    //   2 
;;;706    else if((RXBUFF[0]==0x30)&&((RXBUFF[1]&0xc0)==0x40)&&
000ace  f1bc0f30          CMP      r12,#0x30
000ad2  d069              BEQ      |L1.2984|
000ad4  e076              B        |L1.3012|
                  |L1.2774|
000ad6  7027              STRB     r7,[r4,#0]            ;669
000ad8  f884a001          STRB     r10,[r4,#1]           ;670
000adc  f7fffffe          BL       can_adr_hndl
000ae0  f04f00b1          MOV      r0,#0xb1              ;672
000ae4  71a0              STRB     r0,[r4,#6]            ;672
000ae6  f8849007          STRB     r9,[r4,#7]            ;673
000aea  485d              LDR      r0,|L1.3168|
000aec  7800              LDRB     r0,[r0,#0]            ;675  ; BAT_IS_ON
000aee  2855              CMP      r0,#0x55              ;675
000af0  d003              BEQ      |L1.2810|
000af2  f04f00ff          MOV      r0,#0xff              ;675
000af6  7220              STRB     r0,[r4,#8]            ;675
000af8  e00a              B        |L1.2832|
                  |L1.2810|
000afa  485a              LDR      r0,|L1.3172|
000afc  f890003d          LDRB     r0,[r0,#0x3d]         ;676  ; bat
000b00  b118              CBZ      r0,|L1.2826|
000b02  f04f00f7          MOV      r0,#0xf7              ;676
000b06  7220              STRB     r0,[r4,#8]            ;676
000b08  e002              B        |L1.2832|
                  |L1.2826|
000b0a  f04f00f0          MOV      r0,#0xf0              ;677
000b0e  7220              STRB     r0,[r4,#8]            ;677
                  |L1.2832|
000b10  4855              LDR      r0,|L1.3176|
000b12  7800              LDRB     r0,[r0,#0]            ;679  ; spc_stat
000b14  2801              CMP      r0,#1                 ;679
000b16  d028              BEQ      |L1.2922|
000b18  2802              CMP      r0,#2                 ;680
000b1a  d02a              BEQ      |L1.2930|
000b1c  f04f00f0          MOV      r0,#0xf0              ;681
000b20  7260              STRB     r0,[r4,#9]            ;681
                  |L1.2850|
000b22  4950              LDR      r1,|L1.3172|
000b24  f04f020a          MOV      r2,#0xa               ;684
000b28  f9b10008          LDRSH    r0,[r1,#8]            ;684  ; bat
000b2c  fb90f3f2          SDIV     r3,r0,r2              ;684
000b30  f2427010          MOV      r0,#0x2710            ;684
000b34  4418              ADD      r0,r0,r3              ;684
000b36  9000              STR      r0,[sp,#0]            ;684
000b38  7888              LDRB     r0,[r1,#2]            ;686  ; bat
000b3a  72a0              STRB     r0,[r4,#0xa]          ;686
000b3c  78c8              LDRB     r0,[r1,#3]            ;687  ; bat
000b3e  72e0              STRB     r0,[r4,#0xb]          ;687
000b40  f89d0000          LDRB     r0,[sp,#0]            ;688
000b44  7320              STRB     r0,[r4,#0xc]          ;688
000b46  f89d0001          LDRB     r0,[sp,#1]            ;689
000b4a  7360              STRB     r0,[r4,#0xd]          ;689
000b4c  8948              LDRH     r0,[r1,#0xa]          ;690  ; bat
000b4e  73a0              STRB     r0,[r4,#0xe]          ;690
000b50  8a08              LDRH     r0,[r1,#0x10]         ;691  ; bat
000b52  73e0              STRB     r0,[r4,#0xf]          ;691
000b54  4845              LDR      r0,|L1.3180|
000b56  f9b01000          LDRSH    r1,[r0,#0]            ;693  ; BAT_C_REAL
000b5a  f5a140aa          SUB      r0,r1,#0x5500         ;693
000b5e  3855              SUBS     r0,r0,#0x55           ;693
000b60  d10b              BNE      |L1.2938|
000b62  4843              LDR      r0,|L1.3184|
000b64  8800              LDRH     r0,[r0,#0]            ;693  ; BAT_C_NOM
000b66  7420              STRB     r0,[r4,#0x10]         ;693
000b68  e00a              B        |L1.2944|
                  |L1.2922|
000b6a  f04f00f9          MOV      r0,#0xf9              ;679
000b6e  7260              STRB     r0,[r4,#9]            ;679
000b70  e7d7              B        |L1.2850|
                  |L1.2930|
000b72  f04f00f8          MOV      r0,#0xf8              ;680
000b76  7260              STRB     r0,[r4,#9]            ;680
000b78  e7d3              B        |L1.2850|
                  |L1.2938|
000b7a  fb91f0f2          SDIV     r0,r1,r2              ;694
000b7e  7420              STRB     r0,[r4,#0x10]         ;694
                  |L1.2944|
000b80  210b              MOVS     r1,#0xb               ;696
000b82  1da0              ADDS     r0,r4,#6              ;696
000b84  f7fffffe          BL       paking
000b88  f7fffffe          BL       CRC1_out
000b8c  74e0              STRB     r0,[r4,#0x13]         ;698
000b8e  f7fffffe          BL       CRC2_out
000b92  7520              STRB     r0,[r4,#0x14]         ;699
000b94  f04f0015          MOV      r0,#0x15              ;700
000b98  72a8              STRB     r0,[r5,#0xa]          ;700
000b9a  4601              MOV      r1,r0                 ;702
000b9c  4826              LDR      r0,|L1.3128|
000b9e  f10000cc          ADD      r0,r0,#0xcc           ;702
000ba2  f7fffffe          BL       can2_out_adr
000ba6  e355              B        |L1.4692|
                  |L1.2984|
000ba8  ebb91f90          CMP      r9,r0,LSR #6
000bac  d10a              BNE      |L1.3012|
;;;707    	((RXBUFF[4]&0xf0)==0xe0)&&((RXBUFF[5]&0xf0)==0x20)&&(RXBUFF[6]==0xB1)&&(RXBUFF[7]==0x02))
000bae  ebb81f11          CMP      r8,r1,LSR #4
000bb2  d107              BNE      |L1.3012|
000bb4  ebb61f12          CMP      r6,r2,LSR #4
000bb8  d104              BNE      |L1.3012|
000bba  2bb1              CMP      r3,#0xb1
000bbc  d102              BNE      |L1.3012|
000bbe  f1bb0f02          CMP      r11,#2
000bc2  d00f              BEQ      |L1.3044|
                  |L1.3012|
000bc4  f8dfa070          LDR      r10,|L1.3128|
;;;708    	{ 
;;;709    	signed short temp_S;
;;;710    
;;;711        TXBUFF[0]=0x30;
;;;712    	TXBUFF[1]=(RXBUFF[1]&0xa0)+14;
;;;713    	can_adr_hndl();
;;;714    	TXBUFF[6]=0xB1;
;;;715    	TXBUFF[7]=2;
;;;716    	
;;;717    	if(BAT_IS_ON[1]!=bisON) TXBUFF[8]=0xFF;
;;;718    	else if(bat[1]._av)TXBUFF[8]=0xF7;
;;;719    	else TXBUFF[8]=0xF0;
;;;720    
;;;721    	if((spc_stat==spcKE))TXBUFF[9]=0xF9;
;;;722    	else if(spc_stat==spcVZ)TXBUFF[9]=0xF8;                      
;;;723    	else TXBUFF[9]=0xF0;
;;;724    	
;;;725    	
;;;726    	temp_S=(bat[1]._Ib/10)+10000;
;;;727    			
;;;728    	TXBUFF[10]=*((char*)(&bat[1]._Ub));
;;;729    	TXBUFF[11]=*(((char*)(&bat[1]._Ub))+1);
;;;730    	TXBUFF[12]=*((char*)(&temp_S));
;;;731    	TXBUFF[13]=*(((char*)(&temp_S))+1);
;;;732    	TXBUFF[14]=bat[1]._Tb;
;;;733    	TXBUFF[15]=bat[1]._zar; 
;;;734    	
;;;735    	if(BAT_C_REAL[1]==0x5555)TXBUFF[16]=BAT_C_NOM[1];
;;;736    	else TXBUFF[16]=BAT_C_REAL[1]/10;	
;;;737    	
;;;738        	paking(&TXBUFF[6],11);
;;;739        
;;;740    	TXBUFF[19]=CRC1_out();
;;;741    	TXBUFF[20]=CRC2_out();
;;;742    	TX_len=21; 
;;;743     
;;;744    	can2_out_adr(TXBUFF,21);  
;;;745    	}		
;;;746    		
;;;747    
;;;748    
;;;749    
;;;750    	//  1 
;;;751    else if((RXBUFF[0]==0x30)&&((RXBUFF[1]&0xc0)==0x40)&&
000bc8  f1bc0f30          CMP      r12,#0x30
000bcc  f10a0aa4          ADD      r10,r10,#0xa4         ;600
000bd0  f89aa001          LDRB     r10,[r10,#1]          ;600
000bd4  f00a0aa0          AND      r10,r10,#0xa0         ;606
;;;752    	((RXBUFF[4]&0xf0)==0xe0)&&((RXBUFF[5]&0xf0)==0x20)&&(RXBUFF[6]==0xB2)&&(RXBUFF[7]==0x01))
;;;753    	{ 
;;;754        //	plazma++;
;;;755    
;;;756        	TXBUFF[0]=0x30;
;;;757    	TXBUFF[1]=(RXBUFF[1]&0xa0)+11;
000bd8  f10a0a0b          ADD      r10,r10,#0xb
000bdc  f00a0aff          AND      r10,r10,#0xff
000be0  d071              BEQ      |L1.3270|
000be2  e094              B        |L1.3342|
                  |L1.3044|
000be4  7027              STRB     r7,[r4,#0]            ;711
000be6  f884a001          STRB     r10,[r4,#1]           ;712
000bea  f7fffffe          BL       can_adr_hndl
000bee  f04f00b1          MOV      r0,#0xb1              ;714
000bf2  71a0              STRB     r0,[r4,#6]            ;714
000bf4  71e6              STRB     r6,[r4,#7]            ;715
000bf6  481a              LDR      r0,|L1.3168|
000bf8  7840              LDRB     r0,[r0,#1]            ;717  ; BAT_IS_ON
000bfa  2855              CMP      r0,#0x55              ;717
000bfc  d003              BEQ      |L1.3078|
000bfe  f04f00ff          MOV      r0,#0xff              ;717
000c02  7220              STRB     r0,[r4,#8]            ;717
000c04  e00a              B        |L1.3100|
                  |L1.3078|
000c06  4817              LDR      r0,|L1.3172|
000c08  f8900089          LDRB     r0,[r0,#0x89]         ;718  ; bat
000c0c  b118              CBZ      r0,|L1.3094|
000c0e  f04f00f7          MOV      r0,#0xf7              ;718
000c12  7220              STRB     r0,[r4,#8]            ;718
000c14  e002              B        |L1.3100|
                  |L1.3094|
000c16  f04f00f0          MOV      r0,#0xf0              ;719
000c1a  7220              STRB     r0,[r4,#8]            ;719
                  |L1.3100|
000c1c  4812              LDR      r0,|L1.3176|
000c1e  7800              LDRB     r0,[r0,#0]            ;721  ; spc_stat
000c20  2801              CMP      r0,#1                 ;721
000c22  d048              BEQ      |L1.3254|
000c24  2802              CMP      r0,#2                 ;722
000c26  d04a              BEQ      |L1.3262|
000c28  f04f00f0          MOV      r0,#0xf0              ;723
000c2c  7260              STRB     r0,[r4,#9]            ;723
                  |L1.3118|
000c2e  490d              LDR      r1,|L1.3172|
000c30  314e              ADDS     r1,r1,#0x4e           ;726
000c32  f9b10006          LDRSH    r0,[r1,#6]            ;726  ; bat
000c36  e01d              B        |L1.3188|
                  |L1.3128|
                          DCD      ||.bss||+0x80
                  |L1.3132|
                          DCD      ||.data||
                  |L1.3136|
                          DCD      0x40048000
                  |L1.3140|
                          DCD      net_U
                  |L1.3144|
                          DCD      net_F
                  |L1.3148|
                          DCD      load_U
                  |L1.3152|
                          DCD      load_I
                  |L1.3156|
                          DCD      NUMBAT
                  |L1.3160|
                          DCD      avar_stat
                  |L1.3164|
                          DCD      PAR
                  |L1.3168|
                          DCD      BAT_IS_ON
                  |L1.3172|
                          DCD      bat
                  |L1.3176|
                          DCD      spc_stat
                  |L1.3180|
                          DCD      BAT_C_REAL
                  |L1.3184|
                          DCD      BAT_C_NOM
                  |L1.3188|
000c74  f04f020a          MOV      r2,#0xa               ;726
000c78  fb90f3f2          SDIV     r3,r0,r2              ;726
000c7c  f2427010          MOV      r0,#0x2710            ;726
000c80  4418              ADD      r0,r0,r3              ;726
000c82  9000              STR      r0,[sp,#0]            ;726
000c84  7808              LDRB     r0,[r1,#0]            ;728  ; bat
000c86  72a0              STRB     r0,[r4,#0xa]          ;728
000c88  7848              LDRB     r0,[r1,#1]            ;729  ; bat
000c8a  72e0              STRB     r0,[r4,#0xb]          ;729
000c8c  f89d0000          LDRB     r0,[sp,#0]            ;730
000c90  7320              STRB     r0,[r4,#0xc]          ;730
000c92  f89d0001          LDRB     r0,[sp,#1]            ;731
000c96  7360              STRB     r0,[r4,#0xd]          ;731
000c98  8908              LDRH     r0,[r1,#8]            ;732  ; bat
000c9a  73a0              STRB     r0,[r4,#0xe]          ;732
000c9c  89c8              LDRH     r0,[r1,#0xe]          ;733  ; bat
000c9e  73e0              STRB     r0,[r4,#0xf]          ;733
000ca0  48fc              LDR      r0,|L1.4244|
000ca2  f9b01002          LDRSH    r1,[r0,#2]            ;735  ; BAT_C_REAL
000ca6  f5a140aa          SUB      r0,r1,#0x5500         ;735
000caa  3855              SUBS     r0,r0,#0x55           ;735
000cac  d10c              BNE      |L1.3272|
000cae  48fa              LDR      r0,|L1.4248|
000cb0  8840              LDRH     r0,[r0,#2]            ;735  ; BAT_C_NOM
000cb2  7420              STRB     r0,[r4,#0x10]         ;735
000cb4  e00b              B        |L1.3278|
                  |L1.3254|
000cb6  f04f00f9          MOV      r0,#0xf9              ;721
000cba  7260              STRB     r0,[r4,#9]            ;721
000cbc  e7b7              B        |L1.3118|
                  |L1.3262|
000cbe  f04f00f8          MOV      r0,#0xf8              ;722
000cc2  7260              STRB     r0,[r4,#9]            ;722
000cc4  e7b3              B        |L1.3118|
                  |L1.3270|
000cc6  e014              B        |L1.3314|
                  |L1.3272|
000cc8  fb91f0f2          SDIV     r0,r1,r2              ;736
000ccc  7420              STRB     r0,[r4,#0x10]         ;736
                  |L1.3278|
000cce  210b              MOVS     r1,#0xb               ;738
000cd0  1da0              ADDS     r0,r4,#6              ;738
000cd2  f7fffffe          BL       paking
000cd6  f7fffffe          BL       CRC1_out
000cda  74e0              STRB     r0,[r4,#0x13]         ;740
000cdc  f7fffffe          BL       CRC2_out
000ce0  7520              STRB     r0,[r4,#0x14]         ;741
000ce2  f04f0015          MOV      r0,#0x15              ;742
000ce6  72a8              STRB     r0,[r5,#0xa]          ;742
000ce8  4601              MOV      r1,r0                 ;744
000cea  48ec              LDR      r0,|L1.4252|
000cec  f7fffffe          BL       can2_out_adr
000cf0  e2b0              B        |L1.4692|
                  |L1.3314|
000cf2  ebb91f90          CMP      r9,r0,LSR #6          ;751
000cf6  d10a              BNE      |L1.3342|
000cf8  ebb81f11          CMP      r8,r1,LSR #4          ;752
000cfc  d107              BNE      |L1.3342|
000cfe  ebb61f12          CMP      r6,r2,LSR #4          ;752
000d02  d104              BNE      |L1.3342|
000d04  2bb2              CMP      r3,#0xb2              ;752
000d06  d102              BNE      |L1.3342|
000d08  f1bb0f01          CMP      r11,#1                ;752
000d0c  d003              BEQ      |L1.3350|
                  |L1.3342|
;;;758    	can_adr_hndl();
;;;759    	TXBUFF[6]=0xB2;
;;;760    	TXBUFF[7]=1;
;;;761    		
;;;762    	
;;;763    	if(NUMIST<1)TXBUFF[8]=0xff;	
;;;764    	else if(bps[0]._state==bsWRK)TXBUFF[8]=0xf1; 
;;;765    	else if(bps[0]._av&(1<<3))TXBUFF[8]=0xf4;
;;;766    	else if(bps[0]._av&(1<<0))TXBUFF[8]=0xf5;
;;;767    	else if(bps[0]._av&(1<<1))TXBUFF[8]=0xf5;
;;;768    	else if(bps[0]._av&(1<<2))TXBUFF[8]=0xf7;
;;;769    	else TXBUFF[8]=0xf0;
;;;770    
;;;771    	TXBUFF[9]=*((char*)(&bps[0]._Uii));
;;;772    	TXBUFF[10]=*(((char*)(&bps[0]._Uii))+1);
;;;773    	TXBUFF[11]=*((char*)(&bps[0]._Ii));
;;;774    	TXBUFF[12]=*(((char*)(&bps[0]._Ii))+1);
;;;775    	TXBUFF[13]=bps[0]._Ti;
;;;776    	
;;;777        	paking(&TXBUFF[6],8);
;;;778        
;;;779        	TXBUFF[16]=CRC1_out();
;;;780    	TXBUFF[17]=CRC2_out();
;;;781    	TX_len=18;
;;;782    
;;;783    	can2_out_adr(TXBUFF,18);  
;;;784    	}	
;;;785    	//  2 
;;;786    else if((RXBUFF[0]==0x30)&&((RXBUFF[1]&0xc0)==0x40)&&
000d0e  f1bc0f30          CMP      r12,#0x30
000d12  d055              BEQ      |L1.3520|
000d14  e062              B        |L1.3548|
                  |L1.3350|
000d16  7027              STRB     r7,[r4,#0]            ;756
000d18  f884a001          STRB     r10,[r4,#1]           ;757
000d1c  f7fffffe          BL       can_adr_hndl
000d20  f04f00b2          MOV      r0,#0xb2              ;759
000d24  71a0              STRB     r0,[r4,#6]            ;759
000d26  f8849007          STRB     r9,[r4,#7]            ;760
000d2a  48dd              LDR      r0,|L1.4256|
000d2c  f9b00000          LDRSH    r0,[r0,#0]            ;763  ; NUMIST
000d30  2801              CMP      r0,#1                 ;763
000d32  da03              BGE      |L1.3388|
000d34  f04f00ff          MOV      r0,#0xff              ;763
000d38  7220              STRB     r0,[r4,#8]            ;763
000d3a  e023              B        |L1.3460|
                  |L1.3388|
000d3c  48d9              LDR      r0,|L1.4260|
000d3e  7881              LDRB     r1,[r0,#2]            ;764  ; bps
000d40  2901              CMP      r1,#1                 ;764
000d42  d006              BEQ      |L1.3410|
000d44  7840              LDRB     r0,[r0,#1]            ;765  ; bps
000d46  0701              LSLS     r1,r0,#28             ;765
000d48  d507              BPL      |L1.3418|
000d4a  f04f00f4          MOV      r0,#0xf4              ;765
000d4e  7220              STRB     r0,[r4,#8]            ;765
000d50  e018              B        |L1.3460|
                  |L1.3410|
000d52  f04f00f1          MOV      r0,#0xf1              ;764
000d56  7220              STRB     r0,[r4,#8]            ;764
000d58  e014              B        |L1.3460|
                  |L1.3418|
000d5a  07c1              LSLS     r1,r0,#31             ;766
000d5c  d003              BEQ      |L1.3430|
000d5e  f04f00f5          MOV      r0,#0xf5              ;766
000d62  7220              STRB     r0,[r4,#8]            ;766
000d64  e00e              B        |L1.3460|
                  |L1.3430|
000d66  0781              LSLS     r1,r0,#30             ;767
000d68  d503              BPL      |L1.3442|
000d6a  f04f00f5          MOV      r0,#0xf5              ;767
000d6e  7220              STRB     r0,[r4,#8]            ;767
000d70  e008              B        |L1.3460|
                  |L1.3442|
000d72  0740              LSLS     r0,r0,#29             ;768
000d74  d503              BPL      |L1.3454|
000d76  f04f00f7          MOV      r0,#0xf7              ;768
000d7a  7220              STRB     r0,[r4,#8]            ;768
000d7c  e002              B        |L1.3460|
                  |L1.3454|
000d7e  f04f00f0          MOV      r0,#0xf0              ;769
000d82  7220              STRB     r0,[r4,#8]            ;769
                  |L1.3460|
000d84  48c7              LDR      r0,|L1.4260|
000d86  301c              ADDS     r0,r0,#0x1c           ;771
000d88  7801              LDRB     r1,[r0,#0]            ;771  ; bps
000d8a  7261              STRB     r1,[r4,#9]            ;771
000d8c  7841              LDRB     r1,[r0,#1]            ;772  ; bps
000d8e  72a1              STRB     r1,[r4,#0xa]          ;772
000d90  7a01              LDRB     r1,[r0,#8]            ;773  ; bps
000d92  72e1              STRB     r1,[r4,#0xb]          ;773
000d94  7a41              LDRB     r1,[r0,#9]            ;774  ; bps
000d96  7321              STRB     r1,[r4,#0xc]          ;774
000d98  68c0              LDR      r0,[r0,#0xc]          ;775  ; bps
000d9a  7360              STRB     r0,[r4,#0xd]          ;775
000d9c  2108              MOVS     r1,#8                 ;777
000d9e  1da0              ADDS     r0,r4,#6              ;777
000da0  f7fffffe          BL       paking
000da4  f7fffffe          BL       CRC1_out
000da8  7420              STRB     r0,[r4,#0x10]         ;779
000daa  f7fffffe          BL       CRC2_out
000dae  7460              STRB     r0,[r4,#0x11]         ;780
000db0  f04f0012          MOV      r0,#0x12              ;781
000db4  72a8              STRB     r0,[r5,#0xa]          ;781
000db6  4601              MOV      r1,r0                 ;783
000db8  48b8              LDR      r0,|L1.4252|
000dba  f7fffffe          BL       can2_out_adr
                  |L1.3518|
000dbe  e249              B        |L1.4692|
                  |L1.3520|
000dc0  ebb91f90          CMP      r9,r0,LSR #6
000dc4  d10a              BNE      |L1.3548|
;;;787    	((RXBUFF[4]&0xf0)==0xe0)&&((RXBUFF[5]&0xf0)==0x20)&&(RXBUFF[6]==0xB2)&&(RXBUFF[7]==0x02))
000dc6  ebb81f11          CMP      r8,r1,LSR #4
000dca  d107              BNE      |L1.3548|
000dcc  ebb61f12          CMP      r6,r2,LSR #4
000dd0  d104              BNE      |L1.3548|
000dd2  2bb2              CMP      r3,#0xb2
000dd4  d102              BNE      |L1.3548|
000dd6  f1bb0f02          CMP      r11,#2
000dda  d003              BEQ      |L1.3556|
                  |L1.3548|
;;;788    	{ 
;;;789        //	plazma++;
;;;790    
;;;791        	TXBUFF[0]=0x30;
;;;792    	TXBUFF[1]=(RXBUFF[1]&0xa0)+11;
;;;793    	can_adr_hndl();
;;;794    	TXBUFF[6]=0xB2;
;;;795    	TXBUFF[7]=2;
;;;796    		
;;;797    	
;;;798    	if(NUMIST<3)TXBUFF[8]=0xff;	
;;;799    	else if(bps[1]._state==bsWRK)TXBUFF[8]=0xf1; 
;;;800    	else if(bps[1]._av&(1<<3))TXBUFF[8]=0xf4;
;;;801    	else if(bps[1]._av&(1<<0))TXBUFF[8]=0xf5;
;;;802    	else if(bps[1]._av&(1<<1))TXBUFF[8]=0xf5;
;;;803    	else if(bps[1]._av&(1<<2))TXBUFF[8]=0xf7;
;;;804    	else TXBUFF[8]=0xf0;
;;;805    
;;;806    	TXBUFF[9]=*((char*)(&bps[1]._Uii));
;;;807    	TXBUFF[10]=*(((char*)(&bps[1]._Uii))+1);
;;;808    	TXBUFF[11]=*((char*)(&bps[1]._Ii));
;;;809    	TXBUFF[12]=*(((char*)(&bps[1]._Ii))+1);
;;;810    	TXBUFF[13]=bps[1]._Ti;
;;;811    	
;;;812        	paking(&TXBUFF[6],8);
;;;813        
;;;814        	TXBUFF[16]=CRC1_out();
;;;815    	TXBUFF[17]=CRC2_out();
;;;816    	TX_len=18;
;;;817    
;;;818    	can2_out_adr(TXBUFF,18);  
;;;819    	}	
;;;820    
;;;821    
;;;822    	//  3 
;;;823    else if((RXBUFF[0]==0x30)&&((RXBUFF[1]&0xc0)==0x40)&&
000ddc  f1bc0f30          CMP      r12,#0x30
000de0  d056              BEQ      |L1.3728|
000de2  e063              B        |L1.3756|
                  |L1.3556|
000de4  7027              STRB     r7,[r4,#0]            ;791
000de6  f884a001          STRB     r10,[r4,#1]           ;792
000dea  f7fffffe          BL       can_adr_hndl
000dee  f04f00b2          MOV      r0,#0xb2              ;794
000df2  71a0              STRB     r0,[r4,#6]            ;794
000df4  71e6              STRB     r6,[r4,#7]            ;795
000df6  48aa              LDR      r0,|L1.4256|
000df8  f9b00000          LDRSH    r0,[r0,#0]            ;798  ; NUMIST
000dfc  2803              CMP      r0,#3                 ;798
000dfe  da03              BGE      |L1.3592|
000e00  f04f00ff          MOV      r0,#0xff              ;798
000e04  7220              STRB     r0,[r4,#8]            ;798
000e06  e025              B        |L1.3668|
                  |L1.3592|
000e08  48a6              LDR      r0,|L1.4260|
000e0a  f890105e          LDRB     r1,[r0,#0x5e]         ;799  ; bps
000e0e  2901              CMP      r1,#1                 ;799
000e10  d007              BEQ      |L1.3618|
000e12  f890005d          LDRB     r0,[r0,#0x5d]         ;800  ; bps
000e16  0701              LSLS     r1,r0,#28             ;800
000e18  d507              BPL      |L1.3626|
000e1a  f04f00f4          MOV      r0,#0xf4              ;800
000e1e  7220              STRB     r0,[r4,#8]            ;800
000e20  e018              B        |L1.3668|
                  |L1.3618|
000e22  f04f00f1          MOV      r0,#0xf1              ;799
000e26  7220              STRB     r0,[r4,#8]            ;799
000e28  e014              B        |L1.3668|
                  |L1.3626|
000e2a  07c1              LSLS     r1,r0,#31             ;801
000e2c  d003              BEQ      |L1.3638|
000e2e  f04f00f5          MOV      r0,#0xf5              ;801
000e32  7220              STRB     r0,[r4,#8]            ;801
000e34  e00e              B        |L1.3668|
                  |L1.3638|
000e36  0781              LSLS     r1,r0,#30             ;802
000e38  d503              BPL      |L1.3650|
000e3a  f04f00f5          MOV      r0,#0xf5              ;802
000e3e  7220              STRB     r0,[r4,#8]            ;802
000e40  e008              B        |L1.3668|
                  |L1.3650|
000e42  0740              LSLS     r0,r0,#29             ;803
000e44  d503              BPL      |L1.3662|
000e46  f04f00f7          MOV      r0,#0xf7              ;803
000e4a  7220              STRB     r0,[r4,#8]            ;803
000e4c  e002              B        |L1.3668|
                  |L1.3662|
000e4e  f04f00f0          MOV      r0,#0xf0              ;804
000e52  7220              STRB     r0,[r4,#8]            ;804
                  |L1.3668|
000e54  4893              LDR      r0,|L1.4260|
000e56  3078              ADDS     r0,r0,#0x78           ;806
000e58  7801              LDRB     r1,[r0,#0]            ;806  ; bps
000e5a  7261              STRB     r1,[r4,#9]            ;806
000e5c  7841              LDRB     r1,[r0,#1]            ;807  ; bps
000e5e  72a1              STRB     r1,[r4,#0xa]          ;807
000e60  7a01              LDRB     r1,[r0,#8]            ;808  ; bps
000e62  72e1              STRB     r1,[r4,#0xb]          ;808
000e64  7a41              LDRB     r1,[r0,#9]            ;809  ; bps
000e66  7321              STRB     r1,[r4,#0xc]          ;809
000e68  68c0              LDR      r0,[r0,#0xc]          ;810  ; bps
000e6a  7360              STRB     r0,[r4,#0xd]          ;810
000e6c  2108              MOVS     r1,#8                 ;812
000e6e  1da0              ADDS     r0,r4,#6              ;812
000e70  f7fffffe          BL       paking
000e74  f7fffffe          BL       CRC1_out
000e78  7420              STRB     r0,[r4,#0x10]         ;814
000e7a  f7fffffe          BL       CRC2_out
000e7e  7460              STRB     r0,[r4,#0x11]         ;815
000e80  f04f0012          MOV      r0,#0x12              ;816
000e84  72a8              STRB     r0,[r5,#0xa]          ;816
000e86  4601              MOV      r1,r0                 ;818
000e88  4884              LDR      r0,|L1.4252|
000e8a  f7fffffe          BL       can2_out_adr
000e8e  e1e1              B        |L1.4692|
                  |L1.3728|
000e90  ebb91f90          CMP      r9,r0,LSR #6
000e94  d10a              BNE      |L1.3756|
;;;824    	((RXBUFF[4]&0xf0)==0xe0)&&((RXBUFF[5]&0xf0)==0x20)&&(RXBUFF[6]==0xB2)&&(RXBUFF[7]==0x03))
000e96  ebb81f11          CMP      r8,r1,LSR #4
000e9a  d107              BNE      |L1.3756|
000e9c  ebb61f12          CMP      r6,r2,LSR #4
000ea0  d104              BNE      |L1.3756|
000ea2  2bb2              CMP      r3,#0xb2
000ea4  d102              BNE      |L1.3756|
000ea6  f1bb0f03          CMP      r11,#3
000eaa  d003              BEQ      |L1.3764|
                  |L1.3756|
;;;825    	{ 
;;;826        //	plazma++;
;;;827    
;;;828        	TXBUFF[0]=0x30;
;;;829    	TXBUFF[1]=(RXBUFF[1]&0xa0)+11;
;;;830    	can_adr_hndl();
;;;831    	TXBUFF[6]=0xB2;
;;;832    	TXBUFF[7]=3;
;;;833    		
;;;834    	
;;;835    	if(NUMIST<3)TXBUFF[8]=0xff;	
;;;836    	else if(bps[2]._state==bsWRK)TXBUFF[8]=0xf1; 
;;;837    	else if(bps[2]._av&(1<<3))TXBUFF[8]=0xf4;
;;;838    	else if(bps[2]._av&(1<<0))TXBUFF[8]=0xf5;
;;;839    	else if(bps[2]._av&(1<<1))TXBUFF[8]=0xf5;
;;;840    	else if(bps[2]._av&(1<<2))TXBUFF[8]=0xf7;
;;;841    	else TXBUFF[8]=0xf0;
;;;842    
;;;843    	TXBUFF[9]=*((char*)(&bps[2]._Uii));
;;;844    	TXBUFF[10]=*(((char*)(&bps[2]._Uii))+1);
;;;845    	TXBUFF[11]=*((char*)(&bps[2]._Ii));
;;;846    	TXBUFF[12]=*(((char*)(&bps[2]._Ii))+1);
;;;847    	TXBUFF[13]=bps[2]._Ti;
;;;848    	
;;;849        	paking(&TXBUFF[6],8);
;;;850        
;;;851        	TXBUFF[16]=CRC1_out();
;;;852    	TXBUFF[17]=CRC2_out();
;;;853    	TX_len=18;
;;;854    
;;;855    	can2_out_adr(TXBUFF,18);  
;;;856    	}	
;;;857    
;;;858    	//  4 
;;;859    else if((RXBUFF[0]==0x30)&&((RXBUFF[1]&0xc0)==0x40)&&
000eac  f1bc0f30          CMP      r12,#0x30
000eb0  d058              BEQ      |L1.3940|
000eb2  e065              B        |L1.3968|
                  |L1.3764|
000eb4  7027              STRB     r7,[r4,#0]            ;828
000eb6  f884a001          STRB     r10,[r4,#1]           ;829
000eba  f7fffffe          BL       can_adr_hndl
000ebe  f04f00b2          MOV      r0,#0xb2              ;831
000ec2  71a0              STRB     r0,[r4,#6]            ;831
000ec4  f04f0003          MOV      r0,#3                 ;832
000ec8  71e0              STRB     r0,[r4,#7]            ;832
000eca  4875              LDR      r0,|L1.4256|
000ecc  f9b00000          LDRSH    r0,[r0,#0]            ;835  ; NUMIST
000ed0  2803              CMP      r0,#3                 ;835
000ed2  da03              BGE      |L1.3804|
000ed4  f04f00ff          MOV      r0,#0xff              ;835
000ed8  7220              STRB     r0,[r4,#8]            ;835
000eda  e025              B        |L1.3880|
                  |L1.3804|
000edc  4871              LDR      r0,|L1.4260|
000ede  f89010ba          LDRB     r1,[r0,#0xba]         ;836  ; bps
000ee2  2901              CMP      r1,#1                 ;836
000ee4  d007              BEQ      |L1.3830|
000ee6  f89000b9          LDRB     r0,[r0,#0xb9]         ;837  ; bps
000eea  0701              LSLS     r1,r0,#28             ;837
000eec  d507              BPL      |L1.3838|
000eee  f04f00f4          MOV      r0,#0xf4              ;837
000ef2  7220              STRB     r0,[r4,#8]            ;837
000ef4  e018              B        |L1.3880|
                  |L1.3830|
000ef6  f04f00f1          MOV      r0,#0xf1              ;836
000efa  7220              STRB     r0,[r4,#8]            ;836
000efc  e014              B        |L1.3880|
                  |L1.3838|
000efe  07c1              LSLS     r1,r0,#31             ;838
000f00  d003              BEQ      |L1.3850|
000f02  f04f00f5          MOV      r0,#0xf5              ;838
000f06  7220              STRB     r0,[r4,#8]            ;838
000f08  e00e              B        |L1.3880|
                  |L1.3850|
000f0a  0781              LSLS     r1,r0,#30             ;839
000f0c  d503              BPL      |L1.3862|
000f0e  f04f00f5          MOV      r0,#0xf5              ;839
000f12  7220              STRB     r0,[r4,#8]            ;839
000f14  e008              B        |L1.3880|
                  |L1.3862|
000f16  0740              LSLS     r0,r0,#29             ;840
000f18  d503              BPL      |L1.3874|
000f1a  f04f00f7          MOV      r0,#0xf7              ;840
000f1e  7220              STRB     r0,[r4,#8]            ;840
000f20  e002              B        |L1.3880|
                  |L1.3874|
000f22  f04f00f0          MOV      r0,#0xf0              ;841
000f26  7220              STRB     r0,[r4,#8]            ;841
                  |L1.3880|
000f28  485e              LDR      r0,|L1.4260|
000f2a  30d4              ADDS     r0,r0,#0xd4           ;843
000f2c  7801              LDRB     r1,[r0,#0]            ;843  ; bps
000f2e  7261              STRB     r1,[r4,#9]            ;843
000f30  7841              LDRB     r1,[r0,#1]            ;844  ; bps
000f32  72a1              STRB     r1,[r4,#0xa]          ;844
000f34  7a01              LDRB     r1,[r0,#8]            ;845  ; bps
000f36  72e1              STRB     r1,[r4,#0xb]          ;845
000f38  7a41              LDRB     r1,[r0,#9]            ;846  ; bps
000f3a  7321              STRB     r1,[r4,#0xc]          ;846
000f3c  68c0              LDR      r0,[r0,#0xc]          ;847  ; bps
000f3e  7360              STRB     r0,[r4,#0xd]          ;847
000f40  2108              MOVS     r1,#8                 ;849
000f42  1da0              ADDS     r0,r4,#6              ;849
000f44  f7fffffe          BL       paking
000f48  f7fffffe          BL       CRC1_out
000f4c  7420              STRB     r0,[r4,#0x10]         ;851
000f4e  f7fffffe          BL       CRC2_out
000f52  7460              STRB     r0,[r4,#0x11]         ;852
000f54  f04f0012          MOV      r0,#0x12              ;853
000f58  72a8              STRB     r0,[r5,#0xa]          ;853
000f5a  4601              MOV      r1,r0                 ;855
000f5c  484f              LDR      r0,|L1.4252|
000f5e  f7fffffe          BL       can2_out_adr
000f62  e177              B        |L1.4692|
                  |L1.3940|
000f64  ebb91f90          CMP      r9,r0,LSR #6
000f68  d10a              BNE      |L1.3968|
;;;860    	((RXBUFF[4]&0xf0)==0xe0)&&((RXBUFF[5]&0xf0)==0x20)&&(RXBUFF[6]==0xB2)&&(RXBUFF[7]==0x04))
000f6a  ebb81f11          CMP      r8,r1,LSR #4
000f6e  d107              BNE      |L1.3968|
000f70  ebb61f12          CMP      r6,r2,LSR #4
000f74  d104              BNE      |L1.3968|
000f76  2bb2              CMP      r3,#0xb2
000f78  d102              BNE      |L1.3968|
000f7a  f1bb0f04          CMP      r11,#4
000f7e  d003              BEQ      |L1.3976|
                  |L1.3968|
;;;861    	{ 
;;;862        //	plazma++;
;;;863    
;;;864        TXBUFF[0]=0x30;
;;;865    	TXBUFF[1]=(RXBUFF[1]&0xa0)+11;
;;;866    	can_adr_hndl();
;;;867    	TXBUFF[6]=0xB2;
;;;868    	TXBUFF[7]=4;
;;;869    		
;;;870    	
;;;871    	if(NUMIST<4)TXBUFF[8]=0xff;	
;;;872    	else if(bps[3]._state==bsWRK)TXBUFF[8]=0xf1; 
;;;873    	else if(bps[3]._av&(1<<3))TXBUFF[8]=0xf4;
;;;874    	else if(bps[3]._av&(1<<0))TXBUFF[8]=0xf5;
;;;875    	else if(bps[3]._av&(1<<1))TXBUFF[8]=0xf5;
;;;876    	else if(bps[3]._av&(1<<2))TXBUFF[8]=0xf7;
;;;877    	else TXBUFF[8]=0xf0;
;;;878    
;;;879    	TXBUFF[9]=*((char*)(&bps[3]._Uii));
;;;880    	TXBUFF[10]=*(((char*)(&bps[3]._Uii))+1);
;;;881    	TXBUFF[11]=*((char*)(&bps[3]._Ii));
;;;882    	TXBUFF[12]=*(((char*)(&bps[3]._Ii))+1);
;;;883    	TXBUFF[13]=bps[3]._Ti;
;;;884    	
;;;885        	paking(&TXBUFF[6],8);
;;;886        
;;;887        	TXBUFF[16]=CRC1_out();
;;;888    	TXBUFF[17]=CRC2_out();
;;;889    	TX_len=18;
;;;890    
;;;891    	can2_out_adr(TXBUFF,18);  
;;;892    	}
;;;893    
;;;894    //    
;;;895    else if((RXBUFF[0]==0x30)&&((RXBUFF[1]&0xe0)==0x60)&&
000f80  f1bc0f30          CMP      r12,#0x30
000f84  d057              BEQ      |L1.4150|
000f86  e091              B        |L1.4268|
                  |L1.3976|
000f88  7027              STRB     r7,[r4,#0]            ;864
000f8a  f884a001          STRB     r10,[r4,#1]           ;865
000f8e  f7fffffe          BL       can_adr_hndl
000f92  f04f00b2          MOV      r0,#0xb2              ;867
000f96  71a0              STRB     r0,[r4,#6]            ;867
000f98  f04f0004          MOV      r0,#4                 ;868
000f9c  71e0              STRB     r0,[r4,#7]            ;868
000f9e  4840              LDR      r0,|L1.4256|
000fa0  f9b00000          LDRSH    r0,[r0,#0]            ;871  ; NUMIST
000fa4  2804              CMP      r0,#4                 ;871
000fa6  da03              BGE      |L1.4016|
000fa8  f04f00ff          MOV      r0,#0xff              ;871
000fac  7220              STRB     r0,[r4,#8]            ;871
000fae  e025              B        |L1.4092|
                  |L1.4016|
000fb0  483c              LDR      r0,|L1.4260|
000fb2  f8901116          LDRB     r1,[r0,#0x116]        ;872  ; bps
000fb6  2901              CMP      r1,#1                 ;872
000fb8  d007              BEQ      |L1.4042|
000fba  f8900115          LDRB     r0,[r0,#0x115]        ;873  ; bps
000fbe  0701              LSLS     r1,r0,#28             ;873
000fc0  d507              BPL      |L1.4050|
000fc2  f04f00f4          MOV      r0,#0xf4              ;873
000fc6  7220              STRB     r0,[r4,#8]            ;873
000fc8  e018              B        |L1.4092|
                  |L1.4042|
000fca  f04f00f1          MOV      r0,#0xf1              ;872
000fce  7220              STRB     r0,[r4,#8]            ;872
000fd0  e014              B        |L1.4092|
                  |L1.4050|
000fd2  07c1              LSLS     r1,r0,#31             ;874
000fd4  d003              BEQ      |L1.4062|
000fd6  f04f00f5          MOV      r0,#0xf5              ;874
000fda  7220              STRB     r0,[r4,#8]            ;874
000fdc  e00e              B        |L1.4092|
                  |L1.4062|
000fde  0781              LSLS     r1,r0,#30             ;875
000fe0  d503              BPL      |L1.4074|
000fe2  f04f00f5          MOV      r0,#0xf5              ;875
000fe6  7220              STRB     r0,[r4,#8]            ;875
000fe8  e008              B        |L1.4092|
                  |L1.4074|
000fea  0740              LSLS     r0,r0,#29             ;876
000fec  d503              BPL      |L1.4086|
000fee  f04f00f7          MOV      r0,#0xf7              ;876
000ff2  7220              STRB     r0,[r4,#8]            ;876
000ff4  e002              B        |L1.4092|
                  |L1.4086|
000ff6  f04f00f0          MOV      r0,#0xf0              ;877
000ffa  7220              STRB     r0,[r4,#8]            ;877
                  |L1.4092|
000ffc  482a              LDR      r0,|L1.4264|
000ffe  7801              LDRB     r1,[r0,#0]            ;879  ; bps
001000  7261              STRB     r1,[r4,#9]            ;879
001002  7841              LDRB     r1,[r0,#1]            ;880  ; bps
001004  72a1              STRB     r1,[r4,#0xa]          ;880
001006  7a01              LDRB     r1,[r0,#8]            ;881  ; bps
001008  72e1              STRB     r1,[r4,#0xb]          ;881
00100a  7a41              LDRB     r1,[r0,#9]            ;882  ; bps
00100c  7321              STRB     r1,[r4,#0xc]          ;882
00100e  68c0              LDR      r0,[r0,#0xc]          ;883  ; bps
001010  7360              STRB     r0,[r4,#0xd]          ;883
001012  2108              MOVS     r1,#8                 ;885
001014  1da0              ADDS     r0,r4,#6              ;885
001016  f7fffffe          BL       paking
00101a  f7fffffe          BL       CRC1_out
00101e  7420              STRB     r0,[r4,#0x10]         ;887
001020  f7fffffe          BL       CRC2_out
001024  7460              STRB     r0,[r4,#0x11]         ;888
001026  f04f0012          MOV      r0,#0x12              ;889
00102a  72a8              STRB     r0,[r5,#0xa]          ;889
00102c  4601              MOV      r1,r0                 ;891
00102e  481b              LDR      r0,|L1.4252|
001030  f7fffffe          BL       can2_out_adr
001034  e10e              B        |L1.4692|
                  |L1.4150|
001036  f04f0a03          MOV      r10,#3
00103a  ebba1f50          CMP      r10,r0,LSR #5
00103e  d135              BNE      |L1.4268|
;;;896    	((RXBUFF[4]&0xf0)==0xe0)&&((RXBUFF[5]&0xf0)==0x20)&&(RXBUFF[6]==0x03)
001040  ebb81f11          CMP      r8,r1,LSR #4
001044  d132              BNE      |L1.4268|
001046  ebb61f12          CMP      r6,r2,LSR #4
00104a  d12f              BNE      |L1.4268|
00104c  2b03              CMP      r3,#3
00104e  d12d              BNE      |L1.4268|
;;;897    	&&((RXBUFF[7])&&(RXBUFF[7]<25)))
001050  f1bb0f00          CMP      r11,#0
001054  d02a              BEQ      |L1.4268|
001056  f1bb0f19          CMP      r11,#0x19
00105a  d227              BCS      |L1.4268|
;;;898     	  
;;;899    	{ 
;;;900         char temp;      		
;;;901    
;;;902    	temp=vz_start(RXBUFF[7]);
00105c  4658              MOV      r0,r11
00105e  f7fffffe          BL       vz_start
;;;903    
;;;904         TXBUFF[0]=0x30;
001062  7027              STRB     r7,[r4,#0]
;;;905    	TXBUFF[1]=0x20+3;
001064  f04f0023          MOV      r0,#0x23
001068  7060              STRB     r0,[r4,#1]
;;;906    	can_adr_hndl();
00106a  f7fffffe          BL       can_adr_hndl
;;;907    	TXBUFF[6]=0x03;
00106e  f884a006          STRB     r10,[r4,#6]
;;;908    	TXBUFF[7]=0x01;
001072  f8849007          STRB     r9,[r4,#7]
;;;909    	TXBUFF[8]=CRC1_out();
001076  f7fffffe          BL       CRC1_out
00107a  7220              STRB     r0,[r4,#8]
;;;910    	TXBUFF[9]=CRC2_out();
00107c  f7fffffe          BL       CRC2_out
001080  7260              STRB     r0,[r4,#9]
;;;911    	TX_len=10;
001082  f04f000a          MOV      r0,#0xa
001086  72a8              STRB     r0,[r5,#0xa]
;;;912    	can2_out_adr(TXBUFF,10);
001088  4601              MOV      r1,r0
00108a  4804              LDR      r0,|L1.4252|
00108c  f7fffffe          BL       can2_out_adr
;;;913    	}
001090  e0e0              B        |L1.4692|
001092  0000              DCW      0x0000
                  |L1.4244|
                          DCD      BAT_C_REAL
                  |L1.4248|
                          DCD      BAT_C_NOM
                  |L1.4252|
                          DCD      ||.bss||+0x14c
                  |L1.4256|
                          DCD      NUMIST
                  |L1.4260|
                          DCD      bps
                  |L1.4264|
                          DCD      bps+0x130
                  |L1.4268|
0010ac  f8dfa42c          LDR      r10,|L1.5340|
;;;914    
;;;915    //   
;;;916    else if((RXBUFF[0]==0x30)&&((RXBUFF[1]&0xe0)==0x60)&&
0010b0  f1bc0f30          CMP      r12,#0x30
0010b4  f89aa000          LDRB     r10,[r10,#0]          ;679
0010b8  d10c              BNE      |L1.4308|
0010ba  f04f0e03          MOV      lr,#3
0010be  ebbe1f50          CMP      lr,r0,LSR #5
0010c2  d107              BNE      |L1.4308|
;;;917    	((RXBUFF[4]&0xf0)==0xe0)&&((RXBUFF[5]&0xf0)==0x20)&&(RXBUFF[6]==0x08))
0010c4  ebb81f11          CMP      r8,r1,LSR #4
0010c8  d104              BNE      |L1.4308|
0010ca  ebb61f12          CMP      r6,r2,LSR #4
0010ce  d101              BNE      |L1.4308|
0010d0  2b08              CMP      r3,#8
0010d2  d003              BEQ      |L1.4316|
                  |L1.4308|
;;;918     	  
;;;919    	{ 
;;;920    	if(spc_stat==spcVZ) spc_stat=spcOFF;
;;;921    
;;;922         TXBUFF[0]=0x30;
;;;923    	TXBUFF[1]=0x20+2;
;;;924    	can_adr_hndl();
;;;925    	TXBUFF[6]=0x08;
;;;926    	TXBUFF[7]=CRC1_out();
;;;927    	TXBUFF[8]=CRC2_out();
;;;928    	TX_len=9;
;;;929    	can2_out_adr(TXBUFF,9);
;;;930    	}
;;;931    
;;;932    
;;;933    //    1
;;;934    else if((RXBUFF[0]==0x30)&&((RXBUFF[1]&0xe0)==0x60)&&
0010d4  f1bc0f30          CMP      r12,#0x30
0010d8  d01e              BEQ      |L1.4376|
0010da  e02d              B        |L1.4408|
                  |L1.4316|
0010dc  48ff              LDR      r0,|L1.5340|
0010de  f1ba0f02          CMP      r10,#2                ;920
0010e2  d102              BNE      |L1.4330|
0010e4  f04f0100          MOV      r1,#0                 ;920
0010e8  7001              STRB     r1,[r0,#0]            ;920
                  |L1.4330|
0010ea  7027              STRB     r7,[r4,#0]            ;922
0010ec  f04f0022          MOV      r0,#0x22              ;923
0010f0  7060              STRB     r0,[r4,#1]            ;923
0010f2  f7fffffe          BL       can_adr_hndl
0010f6  f04f0008          MOV      r0,#8                 ;925
0010fa  71a0              STRB     r0,[r4,#6]            ;925
0010fc  f7fffffe          BL       CRC1_out
001100  71e0              STRB     r0,[r4,#7]            ;926
001102  f7fffffe          BL       CRC2_out
001106  7220              STRB     r0,[r4,#8]            ;927
001108  f04f0009          MOV      r0,#9                 ;928
00110c  72a8              STRB     r0,[r5,#0xa]          ;928
00110e  4601              MOV      r1,r0                 ;929
001110  48f3              LDR      r0,|L1.5344|
001112  f7fffffe          BL       can2_out_adr
001116  e09d              B        |L1.4692|
                  |L1.4376|
001118  f04f0e03          MOV      lr,#3
00111c  ebbe1f50          CMP      lr,r0,LSR #5
001120  d10a              BNE      |L1.4408|
;;;935    	((RXBUFF[4]&0xf0)==0xe0)&&((RXBUFF[5]&0xf0)==0x20)&&(RXBUFF[6]==0x04)
001122  ebb81f11          CMP      r8,r1,LSR #4
001126  d107              BNE      |L1.4408|
001128  ebb61f12          CMP      r6,r2,LSR #4
00112c  d104              BNE      |L1.4408|
00112e  2b04              CMP      r3,#4
001130  d102              BNE      |L1.4408|
;;;936    	&&(RXBUFF[7]==0x01))
001132  f1bb0f01          CMP      r11,#1
001136  d003              BEQ      |L1.4416|
                  |L1.4408|
;;;937    	  
;;;938    	{
;;;939    	ke_start(0);
;;;940    
;;;941    	if(ke_start_stat==kssYES)TXBUFF[7]=0xff;
;;;942    	else TXBUFF[7]=0x01;
;;;943    
;;;944         TXBUFF[0]=0x30;
;;;945    	TXBUFF[1]=0x20+3;
;;;946    	can_adr_hndl();
;;;947    	TXBUFF[6]=0x04;
;;;948    	TXBUFF[7]=0x01;
;;;949    	TXBUFF[8]=CRC1_out();
;;;950    	TXBUFF[9]=CRC2_out();
;;;951    	TX_len=10;
;;;952    	can2_out_adr(TXBUFF,10);
;;;953    	} 
;;;954    	
;;;955    //    2
;;;956    else if((RXBUFF[0]==0x30)&&((RXBUFF[1]&0xe0)==0x60)&&
001138  f1bc0f30          CMP      r12,#0x30
00113c  d026              BEQ      |L1.4492|
00113e  e035              B        |L1.4524|
                  |L1.4416|
001140  2000              MOVS     r0,#0                 ;939
001142  f7fffffe          BL       ke_start
001146  48e7              LDR      r0,|L1.5348|
001148  7800              LDRB     r0,[r0,#0]            ;941  ; ke_start_stat
00114a  2864              CMP      r0,#0x64              ;941
00114c  d01a              BEQ      |L1.4484|
00114e  f8849007          STRB     r9,[r4,#7]            ;942
                  |L1.4434|
001152  7027              STRB     r7,[r4,#0]            ;944
001154  f04f0023          MOV      r0,#0x23              ;945
001158  7060              STRB     r0,[r4,#1]            ;945
00115a  f7fffffe          BL       can_adr_hndl
00115e  f04f0004          MOV      r0,#4                 ;947
001162  71a0              STRB     r0,[r4,#6]            ;947
001164  f8849007          STRB     r9,[r4,#7]            ;948
001168  f7fffffe          BL       CRC1_out
00116c  7220              STRB     r0,[r4,#8]            ;949
00116e  f7fffffe          BL       CRC2_out
001172  7260              STRB     r0,[r4,#9]            ;950
001174  f04f000a          MOV      r0,#0xa               ;951
001178  72a8              STRB     r0,[r5,#0xa]          ;951
00117a  4601              MOV      r1,r0                 ;952
00117c  48d8              LDR      r0,|L1.5344|
00117e  f7fffffe          BL       can2_out_adr
001182  e067              B        |L1.4692|
                  |L1.4484|
001184  f04f00ff          MOV      r0,#0xff              ;941
001188  71e0              STRB     r0,[r4,#7]            ;941
00118a  e7e2              B        |L1.4434|
                  |L1.4492|
00118c  f04f0e03          MOV      lr,#3
001190  ebbe1f50          CMP      lr,r0,LSR #5
001194  d10a              BNE      |L1.4524|
;;;957    	((RXBUFF[4]&0xf0)==0xe0)&&((RXBUFF[5]&0xf0)==0x20)&&(RXBUFF[6]==0x04)
001196  ebb81f11          CMP      r8,r1,LSR #4
00119a  d107              BNE      |L1.4524|
00119c  ebb61f12          CMP      r6,r2,LSR #4
0011a0  d104              BNE      |L1.4524|
0011a2  2b04              CMP      r3,#4
0011a4  d102              BNE      |L1.4524|
;;;958    	&&(RXBUFF[7]==0x02))
0011a6  f1bb0f02          CMP      r11,#2
0011aa  d003              BEQ      |L1.4532|
                  |L1.4524|
;;;959    	  
;;;960    	{
;;;961    	ke_start(1);
;;;962    
;;;963    	if(ke_start_stat==kssYES)TXBUFF[7]=0xff;
;;;964    	else TXBUFF[7]=0x01;
;;;965    
;;;966         TXBUFF[0]=0x30;
;;;967    	TXBUFF[1]=0x20+3;
;;;968    	can_adr_hndl();
;;;969    	TXBUFF[6]=0x04;
;;;970    	TXBUFF[7]=0x02;
;;;971    	TXBUFF[8]=CRC1_out();
;;;972    	TXBUFF[9]=CRC2_out();
;;;973    	TX_len=10;
;;;974    	can2_out_adr(TXBUFF,10);
;;;975    	}	
;;;976    	
;;;977    	//    
;;;978    else if((RXBUFF[0]==0x30)&&((RXBUFF[1]&0xe0)==0x60)&&
0011ac  f1bc0f30          CMP      r12,#0x30
0011b0  d026              BEQ      |L1.4608|
0011b2  e04f              B        |L1.4692|
                  |L1.4532|
0011b4  2001              MOVS     r0,#1                 ;961
0011b6  f7fffffe          BL       ke_start
0011ba  48ca              LDR      r0,|L1.5348|
0011bc  7800              LDRB     r0,[r0,#0]            ;963  ; ke_start_stat
0011be  2864              CMP      r0,#0x64              ;963
0011c0  d01a              BEQ      |L1.4600|
0011c2  f8849007          STRB     r9,[r4,#7]            ;964
                  |L1.4550|
0011c6  7027              STRB     r7,[r4,#0]            ;966
0011c8  f04f0023          MOV      r0,#0x23              ;967
0011cc  7060              STRB     r0,[r4,#1]            ;967
0011ce  f7fffffe          BL       can_adr_hndl
0011d2  f04f0004          MOV      r0,#4                 ;969
0011d6  71a0              STRB     r0,[r4,#6]            ;969
0011d8  71e6              STRB     r6,[r4,#7]            ;970
0011da  f7fffffe          BL       CRC1_out
0011de  7220              STRB     r0,[r4,#8]            ;971
0011e0  f7fffffe          BL       CRC2_out
0011e4  7260              STRB     r0,[r4,#9]            ;972
0011e6  f04f000a          MOV      r0,#0xa               ;973
0011ea  72a8              STRB     r0,[r5,#0xa]          ;973
0011ec  4601              MOV      r1,r0                 ;974
0011ee  48bc              LDR      r0,|L1.5344|
0011f0  f7fffffe          BL       can2_out_adr
0011f4  e02e              B        |L1.4692|
                  |L1.4598|
0011f6  e19a              B        |L1.5422|
                  |L1.4600|
0011f8  f04f00ff          MOV      r0,#0xff              ;963
0011fc  71e0              STRB     r0,[r4,#7]            ;963
0011fe  e7e2              B        |L1.4550|
                  |L1.4608|
001200  f04f0c03          MOV      r12,#3
001204  ebbc1f50          CMP      r12,r0,LSR #5
001208  d124              BNE      |L1.4692|
;;;979    	((RXBUFF[4]&0xf0)==0xe0)&&((RXBUFF[5]&0xf0)==0x20)&&(RXBUFF[6]==0x07))
00120a  ebb81f11          CMP      r8,r1,LSR #4
00120e  d121              BNE      |L1.4692|
001210  ebb61f12          CMP      r6,r2,LSR #4
001214  d11e              BNE      |L1.4692|
001216  2b07              CMP      r3,#7
001218  d11c              BNE      |L1.4692|
;;;980    	  
;;;981    	{
;;;982       	
;;;983    	if(spc_stat==spcKE)spc_stat=spcOFF;
00121a  48b0              LDR      r0,|L1.5340|
00121c  f1ba0f01          CMP      r10,#1
001220  d102              BNE      |L1.4648|
001222  f04f0100          MOV      r1,#0
001226  7001              STRB     r1,[r0,#0]
                  |L1.4648|
;;;984    	
;;;985         TXBUFF[0]=0x30;
001228  7027              STRB     r7,[r4,#0]
;;;986    	TXBUFF[1]=0x20+2;
00122a  f04f0022          MOV      r0,#0x22
00122e  7060              STRB     r0,[r4,#1]
;;;987    	can_adr_hndl();
001230  f7fffffe          BL       can_adr_hndl
;;;988    	TXBUFF[6]=0x07;
001234  f04f0007          MOV      r0,#7
001238  71a0              STRB     r0,[r4,#6]
;;;989    	TXBUFF[7]=CRC1_out();
00123a  f7fffffe          BL       CRC1_out
00123e  71e0              STRB     r0,[r4,#7]
;;;990    	TXBUFF[8]=CRC2_out();
001240  f7fffffe          BL       CRC2_out
001244  7220              STRB     r0,[r4,#8]
;;;991    	TX_len=9;
001246  f04f0009          MOV      r0,#9
00124a  72a8              STRB     r0,[r5,#0xa]
;;;992    	can2_out_adr(TXBUFF,9);
00124c  4601              MOV      r1,r0
00124e  48a4              LDR      r0,|L1.5344|
001250  f7fffffe          BL       can2_out_adr
                  |L1.4692|
;;;993    	}
;;;994    
;;;995    
;;;996    
;;;997    // 1 - 
;;;998    if((RXBUFF[0]==0x30)&&((RXBUFF[1]&0xe0)==0x60)&&
001254  4aa2              LDR      r2,|L1.5344|
;;;999    	((RXBUFF[4]&0xf0)==0xe0)&&((RXBUFF[5]&0xf0)==0x20)&&(RXBUFF[6]==0x05)
;;;1000   	&&(RXBUFF[7]==0x01))
;;;1001   	  
;;;1002   	{
;;;1003   	bps[0]._ist_blok_host_cnt=3000;
001256  f64031b8          MOV      r1,#0xbb8
00125a  3a28              SUBS     r2,r2,#0x28           ;998
00125c  7810              LDRB     r0,[r2,#0]            ;998  ; RXBUFF
00125e  2830              CMP      r0,#0x30              ;998
001260  d113              BNE      |L1.4746|
001262  f892c001          LDRB     r12,[r2,#1]           ;998  ; RXBUFF
001266  2303              MOVS     r3,#3                 ;998
001268  ebb31f5c          CMP      r3,r12,LSR #5         ;998
00126c  d10d              BNE      |L1.4746|
00126e  7913              LDRB     r3,[r2,#4]            ;999  ; RXBUFF
001270  ebb81f13          CMP      r8,r3,LSR #4          ;999
001274  d109              BNE      |L1.4746|
001276  7953              LDRB     r3,[r2,#5]            ;999  ; RXBUFF
001278  ebb61f13          CMP      r6,r3,LSR #4          ;999
00127c  d105              BNE      |L1.4746|
00127e  7993              LDRB     r3,[r2,#6]            ;999  ; RXBUFF
001280  2b05              CMP      r3,#5                 ;999
001282  d102              BNE      |L1.4746|
001284  79d3              LDRB     r3,[r2,#7]            ;1000  ; RXBUFF
001286  2b01              CMP      r3,#1                 ;1000
001288  d002              BEQ      |L1.4752|
                  |L1.4746|
;;;1004        TXBUFF[0]=0x30;
;;;1005   	TXBUFF[1]=0x20+3;
;;;1006   	can_adr_hndl();
;;;1007   	TXBUFF[6]=0x05;
;;;1008   	TXBUFF[7]=0x01;
;;;1009   	TXBUFF[8]=CRC1_out();
;;;1010   	TXBUFF[9]=CRC2_out();
;;;1011   	TX_len=10;
;;;1012   	can2_out_adr(TXBUFF,10);
;;;1013   
;;;1014   	}
;;;1015   
;;;1016   // 2 - 
;;;1017   else if((RXBUFF[0]==0x30)&&((RXBUFF[1]&0xe0)==0x60)&&
00128a  2830              CMP      r0,#0x30
00128c  d01b              BEQ      |L1.4806|
00128e  e02e              B        |L1.4846|
                  |L1.4752|
001290  4895              LDR      r0,|L1.5352|
001292  63c1              STR      r1,[r0,#0x3c]         ;1003  ; bps
001294  7027              STRB     r7,[r4,#0]            ;1004
001296  f04f0023          MOV      r0,#0x23              ;1005
00129a  7060              STRB     r0,[r4,#1]            ;1005
00129c  f7fffffe          BL       can_adr_hndl
0012a0  f04f0005          MOV      r0,#5                 ;1007
0012a4  71a0              STRB     r0,[r4,#6]            ;1007
0012a6  f8849007          STRB     r9,[r4,#7]            ;1008
0012aa  f7fffffe          BL       CRC1_out
0012ae  7220              STRB     r0,[r4,#8]            ;1009
0012b0  f7fffffe          BL       CRC2_out
0012b4  7260              STRB     r0,[r4,#9]            ;1010
0012b6  f04f000a          MOV      r0,#0xa               ;1011
0012ba  72a8              STRB     r0,[r5,#0xa]          ;1011
0012bc  4601              MOV      r1,r0                 ;1012
0012be  4888              LDR      r0,|L1.5344|
0012c0  f7fffffe          BL       can2_out_adr
0012c4  e133              B        |L1.5422|
                  |L1.4806|
0012c6  f892c001          LDRB     r12,[r2,#1]  ; RXBUFF
0012ca  2303              MOVS     r3,#3
0012cc  ebb31f5c          CMP      r3,r12,LSR #5
0012d0  d10d              BNE      |L1.4846|
;;;1018   	((RXBUFF[4]&0xf0)==0xe0)&&((RXBUFF[5]&0xf0)==0x20)&&(RXBUFF[6]==0x05)
0012d2  7913              LDRB     r3,[r2,#4]  ; RXBUFF
0012d4  ebb81f13          CMP      r8,r3,LSR #4
0012d8  d109              BNE      |L1.4846|
0012da  7953              LDRB     r3,[r2,#5]  ; RXBUFF
0012dc  ebb61f13          CMP      r6,r3,LSR #4
0012e0  d105              BNE      |L1.4846|
0012e2  7993              LDRB     r3,[r2,#6]  ; RXBUFF
0012e4  2b05              CMP      r3,#5
0012e6  d102              BNE      |L1.4846|
;;;1019   	&&(RXBUFF[7]==0x02))
0012e8  79d3              LDRB     r3,[r2,#7]  ; RXBUFF
0012ea  2b02              CMP      r3,#2
0012ec  d002              BEQ      |L1.4852|
                  |L1.4846|
;;;1020   	  
;;;1021   	{                  
;;;1022   	bps[1]._ist_blok_host_cnt=3000;
;;;1023        TXBUFF[0]=0x30;
;;;1024   	TXBUFF[1]=0x20+3;
;;;1025    	can_adr_hndl();
;;;1026   	TXBUFF[6]=0x05;
;;;1027   	TXBUFF[7]=0x02;
;;;1028   	TXBUFF[8]=CRC1_out();
;;;1029   	TXBUFF[9]=CRC2_out();
;;;1030   	TX_len=10;     
;;;1031   
;;;1032   	can2_out_adr(TXBUFF,10);
;;;1033   
;;;1034   	}
;;;1035   
;;;1036   // 3 - 
;;;1037   else if((RXBUFF[0]==0x30)&&((RXBUFF[1]&0xe0)==0x60)&&
0012ee  2830              CMP      r0,#0x30
0012f0  d01b              BEQ      |L1.4906|
0012f2  e02e              B        |L1.4946|
                  |L1.4852|
0012f4  487c              LDR      r0,|L1.5352|
0012f6  f8c01098          STR      r1,[r0,#0x98]         ;1022  ; bps
0012fa  7027              STRB     r7,[r4,#0]            ;1023
0012fc  f04f0023          MOV      r0,#0x23              ;1024
001300  7060              STRB     r0,[r4,#1]            ;1024
001302  f7fffffe          BL       can_adr_hndl
001306  f04f0005          MOV      r0,#5                 ;1026
00130a  71a0              STRB     r0,[r4,#6]            ;1026
00130c  71e6              STRB     r6,[r4,#7]            ;1027
00130e  f7fffffe          BL       CRC1_out
001312  7220              STRB     r0,[r4,#8]            ;1028
001314  f7fffffe          BL       CRC2_out
001318  7260              STRB     r0,[r4,#9]            ;1029
00131a  f04f000a          MOV      r0,#0xa               ;1030
00131e  72a8              STRB     r0,[r5,#0xa]          ;1030
001320  4601              MOV      r1,r0                 ;1032
001322  486f              LDR      r0,|L1.5344|
001324  f7fffffe          BL       can2_out_adr
001328  e101              B        |L1.5422|
                  |L1.4906|
00132a  7853              LDRB     r3,[r2,#1]  ; RXBUFF
00132c  f04f0a03          MOV      r10,#3
001330  ebba1f53          CMP      r10,r3,LSR #5
001334  d10d              BNE      |L1.4946|
;;;1038   	((RXBUFF[4]&0xf0)==0xe0)&&((RXBUFF[5]&0xf0)==0x20)&&(RXBUFF[6]==0x05)
001336  7913              LDRB     r3,[r2,#4]  ; RXBUFF
001338  ebb81f13          CMP      r8,r3,LSR #4
00133c  d109              BNE      |L1.4946|
00133e  7953              LDRB     r3,[r2,#5]  ; RXBUFF
001340  ebb61f13          CMP      r6,r3,LSR #4
001344  d105              BNE      |L1.4946|
001346  7993              LDRB     r3,[r2,#6]  ; RXBUFF
001348  2b05              CMP      r3,#5
00134a  d102              BNE      |L1.4946|
;;;1039   	&&(RXBUFF[7]==0x03))
00134c  79d3              LDRB     r3,[r2,#7]  ; RXBUFF
00134e  2b03              CMP      r3,#3
001350  d002              BEQ      |L1.4952|
                  |L1.4946|
;;;1040   	  
;;;1041   	{                  
;;;1042   	bps[2]._ist_blok_host_cnt=3000;
;;;1043        TXBUFF[0]=0x30;
;;;1044   	TXBUFF[1]=0x20+3;
;;;1045    	can_adr_hndl();
;;;1046   	TXBUFF[6]=0x05;
;;;1047   	TXBUFF[7]=0x03;
;;;1048   	TXBUFF[8]=CRC1_out();
;;;1049   	TXBUFF[9]=CRC2_out();
;;;1050   	TX_len=10;     
;;;1051   
;;;1052   	can2_out_adr(TXBUFF,10);
;;;1053   
;;;1054   	}
;;;1055   
;;;1056   
;;;1057   // 4 - 
;;;1058   else if((RXBUFF[0]==0x30)&&((RXBUFF[1]&0xe0)==0x60)&&
001352  2830              CMP      r0,#0x30
001354  d01c              BEQ      |L1.5008|
001356  e02f              B        |L1.5048|
                  |L1.4952|
001358  4863              LDR      r0,|L1.5352|
00135a  f8c010f4          STR      r1,[r0,#0xf4]         ;1042  ; bps
00135e  7027              STRB     r7,[r4,#0]            ;1043
001360  f04f0023          MOV      r0,#0x23              ;1044
001364  7060              STRB     r0,[r4,#1]            ;1044
001366  f7fffffe          BL       can_adr_hndl
00136a  f04f0005          MOV      r0,#5                 ;1046
00136e  71a0              STRB     r0,[r4,#6]            ;1046
001370  f884a007          STRB     r10,[r4,#7]           ;1047
001374  f7fffffe          BL       CRC1_out
001378  7220              STRB     r0,[r4,#8]            ;1048
00137a  f7fffffe          BL       CRC2_out
00137e  7260              STRB     r0,[r4,#9]            ;1049
001380  f04f000a          MOV      r0,#0xa               ;1050
001384  72a8              STRB     r0,[r5,#0xa]          ;1050
001386  4601              MOV      r1,r0                 ;1052
001388  4855              LDR      r0,|L1.5344|
00138a  f7fffffe          BL       can2_out_adr
00138e  e0ce              B        |L1.5422|
                  |L1.5008|
001390  7853              LDRB     r3,[r2,#1]  ; RXBUFF
001392  f04f0a03          MOV      r10,#3
001396  ebba1f53          CMP      r10,r3,LSR #5
00139a  d10d              BNE      |L1.5048|
;;;1059   	((RXBUFF[4]&0xf0)==0xe0)&&((RXBUFF[5]&0xf0)==0x20)&&(RXBUFF[6]==0x05)
00139c  7913              LDRB     r3,[r2,#4]  ; RXBUFF
00139e  ebb81f13          CMP      r8,r3,LSR #4
0013a2  d109              BNE      |L1.5048|
0013a4  7953              LDRB     r3,[r2,#5]  ; RXBUFF
0013a6  ebb61f13          CMP      r6,r3,LSR #4
0013aa  d105              BNE      |L1.5048|
0013ac  7993              LDRB     r3,[r2,#6]  ; RXBUFF
0013ae  2b05              CMP      r3,#5
0013b0  d102              BNE      |L1.5048|
;;;1060   	&&(RXBUFF[7]==0x04))
0013b2  79d3              LDRB     r3,[r2,#7]  ; RXBUFF
0013b4  2b04              CMP      r3,#4
0013b6  d002              BEQ      |L1.5054|
                  |L1.5048|
;;;1061   	  
;;;1062   	{                  
;;;1063   	bps[3]._ist_blok_host_cnt=3000;
;;;1064        TXBUFF[0]=0x30;
;;;1065   	TXBUFF[1]=0x20+3;
;;;1066    	can_adr_hndl();
;;;1067   	TXBUFF[6]=0x05;
;;;1068   	TXBUFF[7]=0x03;
;;;1069   	TXBUFF[8]=CRC1_out();
;;;1070   	TXBUFF[9]=CRC2_out();
;;;1071   	TX_len=10;     
;;;1072   
;;;1073   	can2_out_adr(TXBUFF,10);
;;;1074   
;;;1075   	}
;;;1076   
;;;1077   
;;;1078   //  
;;;1079   else if((RXBUFF[0]==0x30)&&((RXBUFF[1]&0xe0)==0x60)&&
0013b8  2830              CMP      r0,#0x30
0013ba  d01c              BEQ      |L1.5110|
0013bc  e02b              B        |L1.5142|
                  |L1.5054|
0013be  484a              LDR      r0,|L1.5352|
0013c0  f8c01150          STR      r1,[r0,#0x150]        ;1063  ; bps
0013c4  7027              STRB     r7,[r4,#0]            ;1064
0013c6  f04f0023          MOV      r0,#0x23              ;1065
0013ca  7060              STRB     r0,[r4,#1]            ;1065
0013cc  f7fffffe          BL       can_adr_hndl
0013d0  f04f0005          MOV      r0,#5                 ;1067
0013d4  71a0              STRB     r0,[r4,#6]            ;1067
0013d6  f884a007          STRB     r10,[r4,#7]           ;1068
0013da  f7fffffe          BL       CRC1_out
0013de  7220              STRB     r0,[r4,#8]            ;1069
0013e0  f7fffffe          BL       CRC2_out
0013e4  7260              STRB     r0,[r4,#9]            ;1070
0013e6  f04f000a          MOV      r0,#0xa               ;1071
0013ea  72a8              STRB     r0,[r5,#0xa]          ;1071
0013ec  4601              MOV      r1,r0                 ;1073
0013ee  483c              LDR      r0,|L1.5344|
0013f0  f7fffffe          BL       can2_out_adr
0013f4  e09b              B        |L1.5422|
                  |L1.5110|
0013f6  7853              LDRB     r3,[r2,#1]  ; RXBUFF
0013f8  2103              MOVS     r1,#3
0013fa  ebb11f53          CMP      r1,r3,LSR #5
0013fe  d10a              BNE      |L1.5142|
;;;1080   	((RXBUFF[4]&0xf0)==0xe0)&&((RXBUFF[5]&0xf0)==0x20)&&(RXBUFF[6]==0x06))
001400  7911              LDRB     r1,[r2,#4]  ; RXBUFF
001402  ebb81f11          CMP      r8,r1,LSR #4
001406  d106              BNE      |L1.5142|
001408  7951              LDRB     r1,[r2,#5]  ; RXBUFF
00140a  ebb61f11          CMP      r6,r1,LSR #4
00140e  d102              BNE      |L1.5142|
001410  7991              LDRB     r1,[r2,#6]  ; RXBUFF
001412  2906              CMP      r1,#6
001414  d002              BEQ      |L1.5148|
                  |L1.5142|
;;;1081   	  
;;;1082   	{                  
;;;1083   	bps[0]._ist_blok_host_cnt=0;
;;;1084   	bps[1]._ist_blok_host_cnt=0;
;;;1085   	bps[2]._ist_blok_host_cnt=0;
;;;1086   	bps[3]._ist_blok_host_cnt=0;
;;;1087        TXBUFF[0]=0x30;
;;;1088   	TXBUFF[1]=0x20+2;
;;;1089    	can_adr_hndl();
;;;1090   	TXBUFF[6]=0x05;
;;;1091   
;;;1092   	TXBUFF[7]=CRC1_out();
;;;1093   	TXBUFF[8]=CRC2_out();
;;;1094   	TX_len=9;     
;;;1095   
;;;1096   	can2_out_adr(TXBUFF,9);
;;;1097   
;;;1098   	}
;;;1099   
;;;1100   //    
;;;1101   else if((RXBUFF[0]==0x30)&&((RXBUFF[1]&0xe0)==0x60)&&
001416  2830              CMP      r0,#0x30
001418  d021              BEQ      |L1.5214|
00141a  e030              B        |L1.5246|
                  |L1.5148|
00141c  4932              LDR      r1,|L1.5352|
00141e  f04f0000          MOV      r0,#0                 ;1083
001422  63c8              STR      r0,[r1,#0x3c]         ;1083  ; bps
001424  f8c10098          STR      r0,[r1,#0x98]         ;1084  ; bps
001428  f8c100f4          STR      r0,[r1,#0xf4]         ;1085  ; bps
00142c  f8c10150          STR      r0,[r1,#0x150]        ;1086  ; bps
001430  7027              STRB     r7,[r4,#0]            ;1087
001432  f04f0022          MOV      r0,#0x22              ;1088
001436  7060              STRB     r0,[r4,#1]            ;1088
001438  f7fffffe          BL       can_adr_hndl
00143c  f04f0005          MOV      r0,#5                 ;1090
001440  71a0              STRB     r0,[r4,#6]            ;1090
001442  f7fffffe          BL       CRC1_out
001446  71e0              STRB     r0,[r4,#7]            ;1092
001448  f7fffffe          BL       CRC2_out
00144c  7220              STRB     r0,[r4,#8]            ;1093
00144e  f04f0009          MOV      r0,#9                 ;1094
001452  72a8              STRB     r0,[r5,#0xa]          ;1094
001454  4601              MOV      r1,r0                 ;1096
001456  4822              LDR      r0,|L1.5344|
001458  f7fffffe          BL       can2_out_adr
00145c  e067              B        |L1.5422|
                  |L1.5214|
00145e  7853              LDRB     r3,[r2,#1]  ; RXBUFF
001460  2103              MOVS     r1,#3
001462  ebb11f53          CMP      r1,r3,LSR #5
001466  d10a              BNE      |L1.5246|
;;;1102   	((RXBUFF[4]&0xf0)==0xe0)&&((RXBUFF[5]&0xf0)==0x20)&&(RXBUFF[6]==0x0a))
001468  7911              LDRB     r1,[r2,#4]  ; RXBUFF
00146a  ebb81f11          CMP      r8,r1,LSR #4
00146e  d106              BNE      |L1.5246|
001470  7951              LDRB     r1,[r2,#5]  ; RXBUFF
001472  ebb61f11          CMP      r6,r1,LSR #4
001476  d102              BNE      |L1.5246|
001478  7991              LDRB     r1,[r2,#6]  ; RXBUFF
00147a  290a              CMP      r1,#0xa
00147c  d002              BEQ      |L1.5252|
                  |L1.5246|
;;;1103   	  
;;;1104   	{                  
;;;1105   	PAR=1;
;;;1106   	lc640_write_int(EE_PAR,PAR);
;;;1107   	
;;;1108        TXBUFF[0]=0x30;
;;;1109   	TXBUFF[1]=0x20+2;
;;;1110    	can_adr_hndl();
;;;1111   	TXBUFF[6]=0x0a;
;;;1112   	TXBUFF[7]=CRC1_out();
;;;1113   	TXBUFF[8]=CRC2_out();
;;;1114   
;;;1115   	can2_out_adr(TXBUFF,9);    
;;;1116   
;;;1117   	}
;;;1118   
;;;1119   //    
;;;1120   else if((RXBUFF[0]==0x30)&&((RXBUFF[1]&0xe0)==0x60)&&
00147e  2830              CMP      r0,#0x30
001480  d01c              BEQ      |L1.5308|
001482  e054              B        |L1.5422|
                  |L1.5252|
001484  4819              LDR      r0,|L1.5356|
001486  4649              MOV      r1,r9                 ;1105
001488  f8a09000          STRH     r9,[r0,#0]            ;1105
00148c  f04f00ca          MOV      r0,#0xca              ;1106
001490  f7fffffe          BL       lc640_write_int
001494  7027              STRB     r7,[r4,#0]            ;1108
001496  f04f0022          MOV      r0,#0x22              ;1109
00149a  7060              STRB     r0,[r4,#1]            ;1109
00149c  f7fffffe          BL       can_adr_hndl
0014a0  f04f000a          MOV      r0,#0xa               ;1111
0014a4  71a0              STRB     r0,[r4,#6]            ;1111
0014a6  f7fffffe          BL       CRC1_out
0014aa  71e0              STRB     r0,[r4,#7]            ;1112
0014ac  f7fffffe          BL       CRC2_out
0014b0  7220              STRB     r0,[r4,#8]            ;1113
0014b2  2109              MOVS     r1,#9                 ;1115
0014b4  480a              LDR      r0,|L1.5344|
0014b6  f7fffffe          BL       can2_out_adr
0014ba  e038              B        |L1.5422|
                  |L1.5308|
0014bc  7851              LDRB     r1,[r2,#1]  ; RXBUFF
0014be  2003              MOVS     r0,#3
0014c0  ebb01f51          CMP      r0,r1,LSR #5
0014c4  d133              BNE      |L1.5422|
;;;1121   	((RXBUFF[4]&0xf0)==0xe0)&&((RXBUFF[5]&0xf0)==0x20)&&(RXBUFF[6]==0x0b))
0014c6  7910              LDRB     r0,[r2,#4]  ; RXBUFF
0014c8  ebb81f10          CMP      r8,r0,LSR #4
0014cc  d12f              BNE      |L1.5422|
0014ce  7950              LDRB     r0,[r2,#5]  ; RXBUFF
0014d0  ebb61f10          CMP      r6,r0,LSR #4
0014d4  d12b              BNE      |L1.5422|
0014d6  7990              LDRB     r0,[r2,#6]  ; RXBUFF
0014d8  280b              CMP      r0,#0xb
0014da  e009              B        |L1.5360|
                  |L1.5340|
                          DCD      spc_stat
                  |L1.5344|
                          DCD      ||.bss||+0x14c
                  |L1.5348|
                          DCD      ke_start_stat
                  |L1.5352|
                          DCD      bps
                  |L1.5356|
                          DCD      PAR
                  |L1.5360|
0014f0  d11d              BNE      |L1.5422|
;;;1122   	  
;;;1123   	{                  
;;;1124   	PAR=0;
0014f2  48f6              LDR      r0,|L1.6348|
0014f4  f04f0100          MOV      r1,#0
0014f8  8001              STRH     r1,[r0,#0]
;;;1125   	lc640_write_int(EE_PAR,PAR);
0014fa  f04f00ca          MOV      r0,#0xca
0014fe  f7fffffe          BL       lc640_write_int
;;;1126   	
;;;1127        TXBUFF[0]=0x30;
001502  7027              STRB     r7,[r4,#0]
;;;1128   	TXBUFF[1]=0x20+2;
001504  f04f0022          MOV      r0,#0x22
001508  7060              STRB     r0,[r4,#1]
;;;1129    	can_adr_hndl();
00150a  f7fffffe          BL       can_adr_hndl
;;;1130   	TXBUFF[6]=0x0b;
00150e  f04f000b          MOV      r0,#0xb
001512  71a0              STRB     r0,[r4,#6]
;;;1131   	TXBUFF[7]=CRC1_out();
001514  f7fffffe          BL       CRC1_out
001518  71e0              STRB     r0,[r4,#7]
;;;1132   	TXBUFF[8]=CRC2_out();
00151a  f7fffffe          BL       CRC2_out
00151e  7220              STRB     r0,[r4,#8]
;;;1133   	TX_len=9;     
001520  f04f0009          MOV      r0,#9
001524  72a8              STRB     r0,[r5,#0xa]
;;;1134   
;;;1135   	can2_out_adr(TXBUFF,9);
001526  4601              MOV      r1,r0
001528  48e9              LDR      r0,|L1.6352|
00152a  f7fffffe          BL       can2_out_adr
                  |L1.5422|
;;;1136   
;;;1137   	}
;;;1138   
;;;1139   CAN_IN_AN_end:
;;;1140   bIN=0;
00152e  f04f0000          MOV      r0,#0
001532  7228              STRB     r0,[r5,#8]
;;;1141   }
001534  e8bd8ff8          POP      {r3-r11,pc}
;;;1142   //-----------------------------------------------
                          ENDP

                  can_in_an1 PROC
;;;1143   void can_in_an1(void)
001538  e92d4ffe          PUSH     {r1-r11,lr}
;;;1144   {
;;;1145   //char i;
;;;1146   //signed short temp_SS;
;;;1147   char slave_num;
;;;1148   
;;;1149   //if(!bIN2) goto CAN_IN_AN1_end; 
;;;1150   
;;;1151   //can_debug_plazma[1][2]++;
;;;1152   can_rotor[1]++;
00153c  49e4              LDR      r1,|L1.6352|
00153e  3128              ADDS     r1,r1,#0x28
001540  7848              LDRB     r0,[r1,#1]  ; can_rotor
001542  f1000001          ADD      r0,r0,#1
001546  7048              STRB     r0,[r1,#1]
;;;1153   
;;;1154   // oleg_start
;;;1155   if (RXBUFF[0]==0xE7) {
001548  f1a10050          SUB      r0,r1,#0x50
;;;1156   	no_rki=0;
00154c  f04f0400          MOV      r4,#0
001550  f890a000          LDRB     r10,[r0,#0]           ;1155  ; RXBUFF
;;;1157   	if(RXBUFF[1]==0) { type_rki=1;
;;;1158   		r_iz_plus=((unsigned short)RXBUFF[2]<<8)+RXBUFF[3];
001554  f8cda008          STR      r10,[sp,#8]
001558  7887              LDRB     r7,[r0,#2]
00155a  78c6              LDRB     r6,[r0,#3]
;;;1159   		r_iz_minus=((unsigned short)RXBUFF[4]<<8)+RXBUFF[5];
00155c  7905              LDRB     r5,[r0,#4]
00155e  f8908005          LDRB     r8,[r0,#5]
;;;1160   		r_iz_porog_pred=((unsigned short)RXBUFF[6]<<8)+RXBUFF[7];
001562  f890c006          LDRB     r12,[r0,#6]
001566  f8909007          LDRB     r9,[r0,#7]
00156a  eb062107          ADD      r1,r6,r7,LSL #8       ;1158
00156e  eb09230c          ADD      r3,r9,r12,LSL #8
001572  9301              STR      r3,[sp,#4]
001574  eb082205          ADD      r2,r8,r5,LSL #8       ;1159
001578  7840              LDRB     r0,[r0,#1]            ;1157
00157a  b289              UXTH     r1,r1                 ;1158
00157c  b292              UXTH     r2,r2                 ;1159
00157e  b29b              UXTH     r3,r3
001580  f1ba0fe7          CMP      r10,#0xe7             ;1155
001584  d003              BEQ      |L1.5518|
;;;1161   	}
;;;1162   	else if(RXBUFF[1]==1) {
;;;1163   		r_iz_porog_error=((unsigned short)RXBUFF[2]<<8)+RXBUFF[3];
;;;1164   		v_plus=((unsigned short)RXBUFF[4]<<8)+RXBUFF[5];
;;;1165   		v_minus=((unsigned short)RXBUFF[6]<<8)+RXBUFF[7];
;;;1166   	} 
;;;1167   	else if(RXBUFF[1]==2) {
;;;1168   		asymmetry=RXBUFF[2];
;;;1169   		sk1_24=RXBUFF[3];
;;;1170   		sk1_24=sk1_24<<16;
;;;1171   		sk1_24=sk1_24+((unsigned short)RXBUFF[4]<<8)+RXBUFF[5];
;;;1172   		count_Iddt=RXBUFF[6];
;;;1173   		ddt_error_temp=RXBUFF[7];
;;;1174   		ddt_error=(ddt_error&0x0000FFFF) | (ddt_error_temp<<16);
;;;1175   	}
;;;1176   	else if(RXBUFF[1]==3) {
;;;1177   		Iddt_porog_pred=((unsigned short)RXBUFF[2]<<8)+RXBUFF[3];
;;;1178   		Iddt_porog_error=((unsigned short)RXBUFF[4]<<8)+RXBUFF[5];
;;;1179   		Iddt[0]=((unsigned short)RXBUFF[6]<<8)+RXBUFF[7];
;;;1180   	}
;;;1181   	else if(RXBUFF[1]==4) {
;;;1182   		Iddt[1]=((unsigned short)RXBUFF[2]<<8)+RXBUFF[3];
;;;1183   		Iddt[2]=((unsigned short)RXBUFF[4]<<8)+RXBUFF[5];
;;;1184   		Iddt[3]=((unsigned short)RXBUFF[6]<<8)+RXBUFF[7];
;;;1185   	}
;;;1186   	else if(RXBUFF[1]==5) {
;;;1187   		Iddt[4]=((unsigned short)RXBUFF[2]<<8)+RXBUFF[3];
;;;1188   		Iddt[5]=((unsigned short)RXBUFF[4]<<8)+RXBUFF[5];
;;;1189   		Iddt[6]=((unsigned short)RXBUFF[6]<<8)+RXBUFF[7];
;;;1190   	}
;;;1191   	else if(RXBUFF[1]==6) {
;;;1192   		Iddt[7]=((unsigned short)RXBUFF[2]<<8)+RXBUFF[3];
;;;1193   		Iddt[8]=((unsigned short)RXBUFF[4]<<8)+RXBUFF[5];
;;;1194   		Iddt[9]=((unsigned short)RXBUFF[6]<<8)+RXBUFF[7];
;;;1195   	}
;;;1196   	else if(RXBUFF[1]==7) {
;;;1197   		Iddt[10]=((unsigned short)RXBUFF[2]<<8)+RXBUFF[3];
;;;1198   		Iddt[11]=((unsigned short)RXBUFF[4]<<8)+RXBUFF[5];
;;;1199   		Iddt[12]=((unsigned short)RXBUFF[6]<<8)+RXBUFF[7];
;;;1200   	}
;;;1201   	else if(RXBUFF[1]==8) {
;;;1202   		Iddt[13]=((unsigned short)RXBUFF[2]<<8)+RXBUFF[3];
;;;1203   		Iddt[14]=((unsigned short)RXBUFF[4]<<8)+RXBUFF[5];
;;;1204   		Iddt[15]=((unsigned short)RXBUFF[6]<<8)+RXBUFF[7];
;;;1205   	}
;;;1206   	else if(RXBUFF[1]==9) {
;;;1207   		Iddt[16]=((unsigned short)RXBUFF[2]<<8)+RXBUFF[3];
;;;1208   		Iddt[17]=((unsigned short)RXBUFF[4]<<8)+RXBUFF[5];
;;;1209   		Iddt[18]=((unsigned short)RXBUFF[6]<<8)+RXBUFF[7];
;;;1210   	}
;;;1211   	else if(RXBUFF[1]==10) {
;;;1212   		Iddt[19]=((unsigned short)RXBUFF[2]<<8)+RXBUFF[3];
;;;1213   		Iddt[20]=((unsigned short)RXBUFF[4]<<8)+RXBUFF[5];
;;;1214   		Iddt[21]=((unsigned short)RXBUFF[6]<<8)+RXBUFF[7];
;;;1215   	}
;;;1216   	else if(RXBUFF[1]==11) {
;;;1217   		Iddt[22]=((unsigned short)RXBUFF[2]<<8)+RXBUFF[3];
;;;1218   		Iddt[23]=((unsigned short)RXBUFF[4]<<8)+RXBUFF[5];
;;;1219   		ddt_error_temp=((unsigned short)RXBUFF[6]<<8)+RXBUFF[7];
;;;1220   		ddt_error=(ddt_error&0x00FF0000) | ddt_error_temp;
;;;1221   	}
;;;1222   	else if(RXBUFF[1]==12) {
;;;1223   		status_izm_r=((unsigned short)RXBUFF[2]<<8)+RXBUFF[3];
;;;1224   		sk_alarm=((unsigned int)RXBUFF[4]<<16)+((unsigned int)RXBUFF[5]<<8) + RXBUFF[6];
;;;1225   		asymmetry_porog=RXBUFF[7];
;;;1226   	}
;;;1227   	else if(RXBUFF[1]==13) {
;;;1228   		status_di1=((unsigned int)RXBUFF[2]<<16)+((unsigned int)RXBUFF[3]<<8) + RXBUFF[4];
;;;1229   		status_di2=((unsigned int)RXBUFF[5]<<16)+((unsigned int)RXBUFF[6]<<8) + RXBUFF[7];
;;;1230   		
;;;1231   	}
;;;1232   	else if(RXBUFF[1]==14) {
;;;1233   		porog_u_in=((unsigned short)RXBUFF[2]<<8)+RXBUFF[3];
;;;1234   		u_asymmetry_porog_up=RXBUFF[4];
;;;1235   		u_asymmetry_porog=RXBUFF[5];
;;;1236   		u_asymmetry_porog_down=RXBUFF[6];
;;;1237   	}
;;;1238   	else if(RXBUFF[1]==15) {
;;;1239   		Rddt[0]=((unsigned short)RXBUFF[2]<<8)+RXBUFF[3];
;;;1240   		Rddt[1]=((unsigned short)RXBUFF[4]<<8)+RXBUFF[5];
;;;1241   		Rddt[2]=((unsigned short)RXBUFF[6]<<8)+RXBUFF[7];
;;;1242   	}
;;;1243   	else if(RXBUFF[1]==16) {
;;;1244   		Rddt[3]=((unsigned short)RXBUFF[2]<<8)+RXBUFF[3];
;;;1245   		Rddt[4]=((unsigned short)RXBUFF[4]<<8)+RXBUFF[5];
;;;1246   		Rddt[5]=((unsigned short)RXBUFF[6]<<8)+RXBUFF[7];
;;;1247   	}
;;;1248   	else if(RXBUFF[1]==17) {
;;;1249   		Rddt[6]=((unsigned short)RXBUFF[2]<<8)+RXBUFF[3];
;;;1250   		Rddt[7]=((unsigned short)RXBUFF[4]<<8)+RXBUFF[5];
;;;1251   		Rddt[8]=((unsigned short)RXBUFF[6]<<8)+RXBUFF[7];
;;;1252   	}
;;;1253   	else if(RXBUFF[1]==18) {
;;;1254   		Rddt[9]=((unsigned short)RXBUFF[2]<<8)+RXBUFF[3];
;;;1255   		Rddt[10]=((unsigned short)RXBUFF[4]<<8)+RXBUFF[5];
;;;1256   		Rddt[11]=((unsigned short)RXBUFF[6]<<8)+RXBUFF[7];
;;;1257   	}
;;;1258   	else if(RXBUFF[1]==19) {
;;;1259   		Rddt[12]=((unsigned short)RXBUFF[2]<<8)+RXBUFF[3];
;;;1260   		Rddt[13]=((unsigned short)RXBUFF[4]<<8)+RXBUFF[5];
;;;1261   		Rddt[14]=((unsigned short)RXBUFF[6]<<8)+RXBUFF[7];
;;;1262   	}
;;;1263   	else if(RXBUFF[1]==20) {
;;;1264   		Rddt[15]=((unsigned short)RXBUFF[2]<<8)+RXBUFF[3];
;;;1265   		Rddt[16]=((unsigned short)RXBUFF[4]<<8)+RXBUFF[5];
;;;1266   		Rddt[17]=((unsigned short)RXBUFF[6]<<8)+RXBUFF[7];
;;;1267   	}
;;;1268   	else if(RXBUFF[1]==21) {
;;;1269   		Rddt[18]=((unsigned short)RXBUFF[2]<<8)+RXBUFF[3];
;;;1270   		Rddt[19]=((unsigned short)RXBUFF[4]<<8)+RXBUFF[5];
;;;1271   		Rddt[20]=((unsigned short)RXBUFF[6]<<8)+RXBUFF[7];
;;;1272   	}
;;;1273   	else if(RXBUFF[1]==22) {
;;;1274   		Rddt[21]=((unsigned short)RXBUFF[2]<<8)+RXBUFF[3];
;;;1275   		Rddt[22]=((unsigned short)RXBUFF[4]<<8)+RXBUFF[5];
;;;1276   		Rddt[23]=((unsigned short)RXBUFF[6]<<8)+RXBUFF[7];
;;;1277   	}
;;;1278   
;;;1279   
;;;1280   
;;;1281   	//***************************
;;;1282   	else if(RXBUFF[1]==200) { type_rki=0;
;;;1283   		r_iz_plus=((unsigned short)RXBUFF[2]<<8)+RXBUFF[3];
;;;1284   		r_iz_minus=((unsigned short)RXBUFF[4]<<8)+RXBUFF[5];
;;;1285   		r_iz_porog_pred=((unsigned short)RXBUFF[6]<<8)+RXBUFF[7];
;;;1286   	}
;;;1287   	else if(RXBUFF[1]==201) {
;;;1288   		r_iz_porog_error=((unsigned short)RXBUFF[2]<<8)+RXBUFF[3];
;;;1289   		v_plus=((unsigned short)RXBUFF[4]<<8)+RXBUFF[5];
;;;1290   		v_minus=((unsigned short)RXBUFF[6]<<8)+RXBUFF[7];
;;;1291   	}
;;;1292   	else if(RXBUFF[1]==202) {
;;;1293   		asymmetry=RXBUFF[2];
;;;1294   		porog_u_in=((unsigned short)RXBUFF[3]<<8)+RXBUFF[4];
;;;1295   		asymmetry_porog=RXBUFF[5];
;;;1296   		status_izm_r=((unsigned short)RXBUFF[6]<<8)+RXBUFF[7];
;;;1297   	}
;;;1298   	else if(RXBUFF[1]==203) {
;;;1299   		u_asymmetry_porog_up=RXBUFF[2];
;;;1300   		u_asymmetry_porog=RXBUFF[3];
;;;1301   		u_asymmetry_porog_down=RXBUFF[4];
;;;1302   	}
;;;1303   	
;;;1304   	
;;;1305   //status_izm_r=0x3f;
;;;1306   //sk_alarm=0xFFffff;
;;;1307   //status_di1=0xFFffff;
;;;1308   //status_di2=0xFFffff;	
;;;1309   }
;;;1310   else if (RXBUFF[0]==0xE6) {	  //    
001586  9d02              LDR      r5,[sp,#8]
001588  2de6              CMP      r5,#0xe6
00158a  d075              BEQ      |L1.5752|
00158c  e228              B        |L1.6624|
                  |L1.5518|
00158e  f8dfa344          LDR      r10,|L1.6356|
001592  f88a4000          STRB     r4,[r10,#0]           ;1156
001596  b3f0              CBZ      r0,|L1.5654|
001598  f8dfa334          LDR      r10,|L1.6352|
00159c  2801              CMP      r0,#1                 ;1162
00159e  f1aa0a28          SUB      r10,r10,#0x28         ;1155
0015a2  f89ab004          LDRB     r11,[r10,#4]          ;1159
0015a6  f89ae005          LDRB     lr,[r10,#5]           ;1159
0015aa  eb0e2b0b          ADD      r11,lr,r11,LSL #8     ;1159
0015ae  f00b0bff          AND      r11,r11,#0xff         ;1164
0015b2  f8cdb000          STR      r11,[sp,#0]           ;1160
0015b6  f89ab006          LDRB     r11,[r10,#6]          ;1160
0015ba  f89aa007          LDRB     r10,[r10,#7]          ;1160
0015be  eb0a2a0b          ADD      r10,r10,r11,LSL #8    ;1160
0015c2  f00a0bff          AND      r11,r10,#0xff         ;1165
0015c6  d04e              BEQ      |L1.5734|
0015c8  f8dfa30c          LDR      r10,|L1.6360|
0015cc  2802              CMP      r0,#2                 ;1167
0015ce  f8dae000          LDR      lr,[r10,#0]           ;1167
0015d2  d052              BEQ      |L1.5754|
0015d4  f8dfa304          LDR      r10,|L1.6364|
0015d8  2803              CMP      r0,#3                 ;1176
0015da  d063              BEQ      |L1.5796|
0015dc  2804              CMP      r0,#4                 ;1181
0015de  d068              BEQ      |L1.5810|
0015e0  2805              CMP      r0,#5                 ;1186
0015e2  d06d              BEQ      |L1.5824|
0015e4  2806              CMP      r0,#6                 ;1191
0015e6  d07a              BEQ      |L1.5854|
0015e8  2807              CMP      r0,#7                 ;1196
0015ea  d07f              BEQ      |L1.5868|
0015ec  2808              CMP      r0,#8                 ;1201
0015ee  d070              BEQ      |L1.5842|
0015f0  2809              CMP      r0,#9                 ;1206
0015f2  d06f              BEQ      |L1.5844|
0015f4  280a              CMP      r0,#0xa               ;1211
0015f6  d06e              BEQ      |L1.5846|
0015f8  280b              CMP      r0,#0xb               ;1216
0015fa  d06d              BEQ      |L1.5848|
0015fc  280c              CMP      r0,#0xc               ;1222
0015fe  d06c              BEQ      |L1.5850|
001600  280d              CMP      r0,#0xd               ;1227
001602  d06b              BEQ      |L1.5852|
001604  f8df92d8          LDR      r9,|L1.6368|
001608  f8dfa2d8          LDR      r10,|L1.6372|
00160c  f8dfe2d8          LDR      lr,|L1.6376|
001610  280e              CMP      r0,#0xe               ;1232
001612  d072              BEQ      |L1.5882|
001614  e000              B        |L1.5656|
                  |L1.5654|
001616  e01a              B        |L1.5710|
                  |L1.5656|
001618  f8dfc2d0          LDR      r12,|L1.6380|
00161c  280f              CMP      r0,#0xf               ;1238
00161e  d06d              BEQ      |L1.5884|
001620  2810              CMP      r0,#0x10              ;1243
001622  d06c              BEQ      |L1.5886|
001624  2811              CMP      r0,#0x11              ;1248
001626  d06b              BEQ      |L1.5888|
001628  2812              CMP      r0,#0x12              ;1253
00162a  d06a              BEQ      |L1.5890|
00162c  2813              CMP      r0,#0x13              ;1258
00162e  d069              BEQ      |L1.5892|
001630  2814              CMP      r0,#0x14              ;1263
001632  d068              BEQ      |L1.5894|
001634  2815              CMP      r0,#0x15              ;1268
001636  d067              BEQ      |L1.5896|
001638  2816              CMP      r0,#0x16              ;1273
00163a  d074              BEQ      |L1.5926|
00163c  28c8              CMP      r0,#0xc8              ;1282
00163e  d073              BEQ      |L1.5928|
001640  28c9              CMP      r0,#0xc9              ;1287
001642  d072              BEQ      |L1.5930|
001644  28ca              CMP      r0,#0xca              ;1292
001646  d071              BEQ      |L1.5932|
001648  28cb              CMP      r0,#0xcb              ;1298
00164a  d070              BEQ      |L1.5934|
00164c  e1c8              B        |L1.6624|
                  |L1.5710|
00164e  4da8              LDR      r5,|L1.6384|
001650  f04f0c01          MOV      r12,#1                ;1157
001654  f885c000          STRB     r12,[r5,#0]           ;1157
001658  4da6              LDR      r5,|L1.6388|
00165a  8029              STRH     r1,[r5,#0]            ;1158
00165c  49a6              LDR      r1,|L1.6392|
00165e  800a              STRH     r2,[r1,#0]            ;1159
001660  49a6              LDR      r1,|L1.6396|
001662  800b              STRH     r3,[r1,#0]            ;1160
001664  e1bc              B        |L1.6624|
                  |L1.5734|
001666  4aa6              LDR      r2,|L1.6400|
001668  8011              STRH     r1,[r2,#0]            ;1163
00166a  4aa6              LDR      r2,|L1.6404|
00166c  9900              LDR      r1,[sp,#0]            ;1164
00166e  7011              STRB     r1,[r2,#0]            ;1164
001670  49a5              LDR      r1,|L1.6408|
001672  f881b000          STRB     r11,[r1,#0]           ;1165
001676  e1b3              B        |L1.6624|
                  |L1.5752|
001678  e0f3              B        |L1.6242|
                  |L1.5754|
00167a  49a4              LDR      r1,|L1.6412|
00167c  700f              STRB     r7,[r1,#0]            ;1168
00167e  4aa4              LDR      r2,|L1.6416|
001680  ea4f4106          LSL      r1,r6,#16             ;1170
001684  eb012105          ADD      r1,r1,r5,LSL #8       ;1171
001688  4441              ADD      r1,r1,r8              ;1171
00168a  6011              STR      r1,[r2,#0]            ;1171  ; sk1_24
00168c  49a1              LDR      r1,|L1.6420|
00168e  f881c000          STRB     r12,[r1,#0]           ;1172
001692  49a1              LDR      r1,|L1.6424|
001694  f8c19000          STR      r9,[r1,#0]            ;1173  ; ddt_error_temp
001698  498f              LDR      r1,|L1.6360|
00169a  f3694e1f          BFI      lr,r9,#16,#16         ;1174
00169e  f8c1e000          STR      lr,[r1,#0]            ;1174  ; ddt_error
0016a2  e19d              B        |L1.6624|
                  |L1.5796|
0016a4  4d9d              LDR      r5,|L1.6428|
0016a6  8029              STRH     r1,[r5,#0]            ;1177
0016a8  499d              LDR      r1,|L1.6432|
0016aa  800a              STRH     r2,[r1,#0]            ;1178
0016ac  f8aa3000          STRH     r3,[r10,#0]           ;1179
0016b0  e196              B        |L1.6624|
                  |L1.5810|
0016b2  f8aa1002          STRH     r1,[r10,#2]           ;1182
0016b6  f8aa2004          STRH     r2,[r10,#4]           ;1183
0016ba  f8aa3006          STRH     r3,[r10,#6]           ;1184
0016be  e18f              B        |L1.6624|
                  |L1.5824|
0016c0  f8aa1008          STRH     r1,[r10,#8]           ;1187
0016c4  f8aa200a          STRH     r2,[r10,#0xa]         ;1188
0016c8  f8aa300c          STRH     r3,[r10,#0xc]         ;1189
0016cc  e188              B        |L1.6624|
0016ce  e006              B        |L1.5854|
0016d0  e00c              B        |L1.5868|
                  |L1.5842|
0016d2  e01a              B        |L1.5898|
                  |L1.5844|
0016d4  e020              B        |L1.5912|
                  |L1.5846|
0016d6  e02b              B        |L1.5936|
                  |L1.5848|
0016d8  e031              B        |L1.5950|
                  |L1.5850|
0016da  e03e              B        |L1.5978|
                  |L1.5852|
0016dc  e04b              B        |L1.6006|
                  |L1.5854|
0016de  f8aa100e          STRH     r1,[r10,#0xe]         ;1192
0016e2  f8aa2010          STRH     r2,[r10,#0x10]        ;1193
0016e6  f8aa3012          STRH     r3,[r10,#0x12]        ;1194
0016ea  e179              B        |L1.6624|
                  |L1.5868|
0016ec  f8aa1014          STRH     r1,[r10,#0x14]        ;1197
0016f0  f8aa2016          STRH     r2,[r10,#0x16]        ;1198
0016f4  f8aa3018          STRH     r3,[r10,#0x18]        ;1199
0016f8  e172              B        |L1.6624|
                  |L1.5882|
0016fa  e04b              B        |L1.6036|
                  |L1.5884|
0016fc  e054              B        |L1.6056|
                  |L1.5886|
0016fe  e05a              B        |L1.6070|
                  |L1.5888|
001700  e060              B        |L1.6084|
                  |L1.5890|
001702  e066              B        |L1.6098|
                  |L1.5892|
001704  e06c              B        |L1.6112|
                  |L1.5894|
001706  e072              B        |L1.6126|
                  |L1.5896|
001708  e078              B        |L1.6140|
                  |L1.5898|
00170a  f8aa101a          STRH     r1,[r10,#0x1a]        ;1202
00170e  f8aa201c          STRH     r2,[r10,#0x1c]        ;1203
001712  f8aa301e          STRH     r3,[r10,#0x1e]        ;1204
001716  e163              B        |L1.6624|
                  |L1.5912|
001718  f8aa1020          STRH     r1,[r10,#0x20]        ;1207
00171c  f8aa2022          STRH     r2,[r10,#0x22]        ;1208
001720  f8aa3024          STRH     r3,[r10,#0x24]        ;1209
001724  e15c              B        |L1.6624|
                  |L1.5926|
001726  e070              B        |L1.6154|
                  |L1.5928|
001728  e076              B        |L1.6168|
                  |L1.5930|
00172a  e07e              B        |L1.6186|
                  |L1.5932|
00172c  e086              B        |L1.6204|
                  |L1.5934|
00172e  e091              B        |L1.6228|
                  |L1.5936|
001730  f8aa1026          STRH     r1,[r10,#0x26]        ;1212
001734  f8aa2028          STRH     r2,[r10,#0x28]        ;1213
001738  f8aa302a          STRH     r3,[r10,#0x2a]        ;1214
00173c  e150              B        |L1.6624|
                  |L1.5950|
00173e  f8aa102c          STRH     r1,[r10,#0x2c]        ;1217
001742  f8aa202e          STRH     r2,[r10,#0x2e]        ;1218
001746  4a74              LDR      r2,|L1.6424|
001748  9901              LDR      r1,[sp,#4]            ;1219
00174a  6011              STR      r1,[r2,#0]            ;1219  ; ddt_error_temp
00174c  4a62              LDR      r2,|L1.6360|
00174e  f40e037f          AND      r3,lr,#0xff0000       ;1220
001752  ea430301          ORR      r3,r3,r1              ;1220
001756  6013              STR      r3,[r2,#0]            ;1220  ; ddt_error
001758  e142              B        |L1.6624|
                  |L1.5978|
00175a  4a72              LDR      r2,|L1.6436|
00175c  8011              STRH     r1,[r2,#0]            ;1223
00175e  ea4f4105          LSL      r1,r5,#16             ;1224
001762  eb012108          ADD      r1,r1,r8,LSL #8       ;1224
001766  eb01020c          ADD      r2,r1,r12             ;1224
00176a  496f              LDR      r1,|L1.6440|
00176c  600a              STR      r2,[r1,#0]            ;1224  ; sk_alarm
00176e  496f              LDR      r1,|L1.6444|
001770  f8819000          STRB     r9,[r1,#0]            ;1225
001774  e134              B        |L1.6624|
                  |L1.6006|
001776  ea4f4107          LSL      r1,r7,#16             ;1228
00177a  4a6d              LDR      r2,|L1.6448|
00177c  eb012106          ADD      r1,r1,r6,LSL #8       ;1228
001780  4429              ADD      r1,r1,r5              ;1228
001782  6011              STR      r1,[r2,#0]            ;1228  ; status_di1
001784  ea4f4108          LSL      r1,r8,#16             ;1229
001788  4a6a              LDR      r2,|L1.6452|
00178a  eb01210c          ADD      r1,r1,r12,LSL #8      ;1229
00178e  4449              ADD      r1,r1,r9              ;1229
001790  6011              STR      r1,[r2,#0]            ;1229  ; status_di2
001792  e125              B        |L1.6624|
                  |L1.6036|
001794  f8a91000          STRH     r1,[r9,#0]            ;1233
001798  f88a5000          STRB     r5,[r10,#0]           ;1234
00179c  f88e8000          STRB     r8,[lr,#0]            ;1235
0017a0  4965              LDR      r1,|L1.6456|
0017a2  f881c000          STRB     r12,[r1,#0]           ;1236
0017a6  e11b              B        |L1.6624|
                  |L1.6056|
0017a8  f8ac1000          STRH     r1,[r12,#0]           ;1239
0017ac  f8ac2002          STRH     r2,[r12,#2]           ;1240
0017b0  f8ac3004          STRH     r3,[r12,#4]           ;1241
0017b4  e114              B        |L1.6624|
                  |L1.6070|
0017b6  f8ac1006          STRH     r1,[r12,#6]           ;1244
0017ba  f8ac2008          STRH     r2,[r12,#8]           ;1245
0017be  f8ac300a          STRH     r3,[r12,#0xa]         ;1246
0017c2  e10d              B        |L1.6624|
                  |L1.6084|
0017c4  f8ac100c          STRH     r1,[r12,#0xc]         ;1249
0017c8  f8ac200e          STRH     r2,[r12,#0xe]         ;1250
0017cc  f8ac3010          STRH     r3,[r12,#0x10]        ;1251
0017d0  e106              B        |L1.6624|
                  |L1.6098|
0017d2  f8ac1012          STRH     r1,[r12,#0x12]        ;1254
0017d6  f8ac2014          STRH     r2,[r12,#0x14]        ;1255
0017da  f8ac3016          STRH     r3,[r12,#0x16]        ;1256
0017de  e0ff              B        |L1.6624|
                  |L1.6112|
0017e0  f8ac1018          STRH     r1,[r12,#0x18]        ;1259
0017e4  f8ac201a          STRH     r2,[r12,#0x1a]        ;1260
0017e8  f8ac301c          STRH     r3,[r12,#0x1c]        ;1261
0017ec  e0f8              B        |L1.6624|
                  |L1.6126|
0017ee  f8ac101e          STRH     r1,[r12,#0x1e]        ;1264
0017f2  f8ac2020          STRH     r2,[r12,#0x20]        ;1265
0017f6  f8ac3022          STRH     r3,[r12,#0x22]        ;1266
0017fa  e0f1              B        |L1.6624|
                  |L1.6140|
0017fc  f8ac1024          STRH     r1,[r12,#0x24]        ;1269
001800  f8ac2026          STRH     r2,[r12,#0x26]        ;1270
001804  f8ac3028          STRH     r3,[r12,#0x28]        ;1271
001808  e0ea              B        |L1.6624|
                  |L1.6154|
00180a  f8ac102a          STRH     r1,[r12,#0x2a]        ;1274
00180e  f8ac202c          STRH     r2,[r12,#0x2c]        ;1275
001812  f8ac302e          STRH     r3,[r12,#0x2e]        ;1276
001816  e0e3              B        |L1.6624|
                  |L1.6168|
001818  4d35              LDR      r5,|L1.6384|
00181a  702c              STRB     r4,[r5,#0]            ;1282
00181c  4d35              LDR      r5,|L1.6388|
00181e  8029              STRH     r1,[r5,#0]            ;1283
001820  4935              LDR      r1,|L1.6392|
001822  800a              STRH     r2,[r1,#0]            ;1284
001824  4935              LDR      r1,|L1.6396|
001826  800b              STRH     r3,[r1,#0]            ;1285
001828  e0da              B        |L1.6624|
                  |L1.6186|
00182a  4a35              LDR      r2,|L1.6400|
00182c  8011              STRH     r1,[r2,#0]            ;1288
00182e  4a35              LDR      r2,|L1.6404|
001830  9900              LDR      r1,[sp,#0]            ;1289
001832  7011              STRB     r1,[r2,#0]            ;1289
001834  4934              LDR      r1,|L1.6408|
001836  f881b000          STRB     r11,[r1,#0]           ;1290
00183a  e0d1              B        |L1.6624|
                  |L1.6204|
00183c  4933              LDR      r1,|L1.6412|
00183e  700f              STRB     r7,[r1,#0]            ;1293
001840  eb052106          ADD      r1,r5,r6,LSL #8       ;1294
001844  f8a91000          STRH     r1,[r9,#0]            ;1294
001848  4938              LDR      r1,|L1.6444|
00184a  f8818000          STRB     r8,[r1,#0]            ;1295
00184e  4935              LDR      r1,|L1.6436|
001850  800b              STRH     r3,[r1,#0]            ;1296
001852  e0c5              B        |L1.6624|
                  |L1.6228|
001854  f88a7000          STRB     r7,[r10,#0]           ;1299
001858  f88e6000          STRB     r6,[lr,#0]            ;1300
00185c  4936              LDR      r1,|L1.6456|
00185e  700d              STRB     r5,[r1,#0]            ;1301
001860  e0be              B        |L1.6624|
                  |L1.6242|
;;;1311   	no_net_in=0;
001862  4d36              LDR      r5,|L1.6460|
001864  702c              STRB     r4,[r5,#0]
;;;1312   	if(RXBUFF[1]==0) {
001866  b1a0              CBZ      r0,|L1.6290|
;;;1313   		net_in_u1_a=((unsigned short)RXBUFF[2]<<8)+RXBUFF[3];
;;;1314   		net_in_u1_b=((unsigned short)RXBUFF[4]<<8)+RXBUFF[5];
;;;1315   		net_in_u1_c=((unsigned short)RXBUFF[6]<<8)+RXBUFF[7];
;;;1316   	}
;;;1317   	else if(RXBUFF[1]==1) {
001868  2801              CMP      r0,#1
00186a  d019              BEQ      |L1.6304|
;;;1318   		net_in_i1_a=((unsigned short)RXBUFF[2]<<8)+RXBUFF[3];
;;;1319   		net_in_i1_b=((unsigned short)RXBUFF[4]<<8)+RXBUFF[5];
;;;1320   		net_in_i1_c=((unsigned short)RXBUFF[6]<<8)+RXBUFF[7];
;;;1321   	} 
;;;1322   	else if(RXBUFF[1]==2) {
00186c  2802              CMP      r0,#2
00186e  d01e              BEQ      |L1.6318|
;;;1323   		net_in_p1_a=((unsigned short)RXBUFF[2]<<8)+RXBUFF[3];
;;;1324   		net_in_p1_b=((unsigned short)RXBUFF[4]<<8)+RXBUFF[5];
;;;1325   		net_in_p1_c=((unsigned short)RXBUFF[6]<<8)+RXBUFF[7];
;;;1326   	}
;;;1327   	else if(RXBUFF[1]==3) {
001870  2803              CMP      r0,#3
001872  d023              BEQ      |L1.6332|
;;;1328   	   	net_in_s1_a=((unsigned short)RXBUFF[2]<<8)+RXBUFF[3];
;;;1329   		net_in_s1_b=((unsigned short)RXBUFF[4]<<8)+RXBUFF[5];
;;;1330   		net_in_s1_c=((unsigned short)RXBUFF[6]<<8)+RXBUFF[7];
;;;1331   	}
;;;1332   	else if(RXBUFF[1]==4) {
001874  2804              CMP      r0,#4
001876  d028              BEQ      |L1.6346|
;;;1333   		net_in_u2_a=((unsigned short)RXBUFF[2]<<8)+RXBUFF[3];
;;;1334   		net_in_u2_b=((unsigned short)RXBUFF[4]<<8)+RXBUFF[5];
;;;1335   		net_in_u2_c=((unsigned short)RXBUFF[6]<<8)+RXBUFF[7];
;;;1336   	}
;;;1337   	else if(RXBUFF[1]==5) {
001878  2805              CMP      r0,#5
00187a  d079              BEQ      |L1.6512|
;;;1338   		net_in_i2_a=((unsigned short)RXBUFF[2]<<8)+RXBUFF[3];
;;;1339   		net_in_i2_b=((unsigned short)RXBUFF[4]<<8)+RXBUFF[5];
;;;1340   		net_in_i2_c=((unsigned short)RXBUFF[6]<<8)+RXBUFF[7];
;;;1341   	} 
;;;1342   	else if(RXBUFF[1]==6) {
00187c  2806              CMP      r0,#6
00187e  d078              BEQ      |L1.6514|
;;;1343   		net_in_p2_a=((unsigned short)RXBUFF[2]<<8)+RXBUFF[3];
;;;1344   		net_in_p2_b=((unsigned short)RXBUFF[4]<<8)+RXBUFF[5];
;;;1345   		net_in_p2_c=((unsigned short)RXBUFF[6]<<8)+RXBUFF[7];
;;;1346   	}
;;;1347   	else if(RXBUFF[1]==7) {
001880  2807              CMP      r0,#7
001882  d077              BEQ      |L1.6516|
;;;1348   	   	net_in_s2_a=((unsigned short)RXBUFF[2]<<8)+RXBUFF[3];
;;;1349   		net_in_s2_b=((unsigned short)RXBUFF[4]<<8)+RXBUFF[5];
;;;1350   		net_in_s2_c=((unsigned short)RXBUFF[6]<<8)+RXBUFF[7];
;;;1351   	}
;;;1352   	else if(RXBUFF[1]==8) {
001884  2808              CMP      r0,#8
001886  d076              BEQ      |L1.6518|
;;;1353   		net_in_f1=((unsigned short)RXBUFF[2]<<8)+RXBUFF[3];
;;;1354   		net_in_f2=((unsigned short)RXBUFF[4]<<8)+RXBUFF[5];
;;;1355   		priority_net_in=RXBUFF[6];
;;;1356   		hysteresis_net_in=RXBUFF[7];
;;;1357   	}
;;;1358   	else if(RXBUFF[1]==9) {
001888  2809              CMP      r0,#9
00188a  d075              BEQ      |L1.6520|
;;;1359   		u_min_net_in=((unsigned short)RXBUFF[2]<<8)+RXBUFF[3];
;;;1360   		u_max_net_in=((unsigned short)RXBUFF[4]<<8)+RXBUFF[5];
;;;1361   		i_min_net_in=((unsigned short)RXBUFF[6]<<8)+RXBUFF[7];
;;;1362   	}
;;;1363   	else if(RXBUFF[1]==10) {
00188c  280a              CMP      r0,#0xa
00188e  d074              BEQ      |L1.6522|
001890  e0a6              B        |L1.6624|
                  |L1.6290|
001892  4d2b              LDR      r5,|L1.6464|
001894  8029              STRH     r1,[r5,#0]            ;1313
001896  492b              LDR      r1,|L1.6468|
001898  800a              STRH     r2,[r1,#0]            ;1314
00189a  492b              LDR      r1,|L1.6472|
00189c  800b              STRH     r3,[r1,#0]            ;1315
00189e  e09f              B        |L1.6624|
                  |L1.6304|
0018a0  4d2a              LDR      r5,|L1.6476|
0018a2  8029              STRH     r1,[r5,#0]            ;1318
0018a4  492a              LDR      r1,|L1.6480|
0018a6  800a              STRH     r2,[r1,#0]            ;1319
0018a8  492a              LDR      r1,|L1.6484|
0018aa  800b              STRH     r3,[r1,#0]            ;1320
0018ac  e098              B        |L1.6624|
                  |L1.6318|
0018ae  4d2a              LDR      r5,|L1.6488|
0018b0  8029              STRH     r1,[r5,#0]            ;1323
0018b2  492a              LDR      r1,|L1.6492|
0018b4  800a              STRH     r2,[r1,#0]            ;1324
0018b6  492a              LDR      r1,|L1.6496|
0018b8  800b              STRH     r3,[r1,#0]            ;1325
0018ba  e091              B        |L1.6624|
                  |L1.6332|
0018bc  4d29              LDR      r5,|L1.6500|
0018be  8029              STRH     r1,[r5,#0]            ;1328
0018c0  4929              LDR      r1,|L1.6504|
0018c2  800a              STRH     r2,[r1,#0]            ;1329
0018c4  4929              LDR      r1,|L1.6508|
0018c6  800b              STRH     r3,[r1,#0]            ;1330
0018c8  e08a              B        |L1.6624|
                  |L1.6346|
0018ca  e057              B        |L1.6524|
                  |L1.6348|
                          DCD      PAR
                  |L1.6352|
                          DCD      ||.bss||+0x14c
                  |L1.6356|
                          DCD      no_rki
                  |L1.6360|
                          DCD      ddt_error
                  |L1.6364|
                          DCD      Iddt
                  |L1.6368|
                          DCD      porog_u_in
                  |L1.6372|
                          DCD      u_asymmetry_porog_up
                  |L1.6376|
                          DCD      u_asymmetry_porog
                  |L1.6380|
                          DCD      Rddt
                  |L1.6384|
                          DCD      type_rki
                  |L1.6388|
                          DCD      r_iz_plus
                  |L1.6392|
                          DCD      r_iz_minus
                  |L1.6396|
                          DCD      r_iz_porog_pred
                  |L1.6400|
                          DCD      r_iz_porog_error
                  |L1.6404|
                          DCD      v_plus
                  |L1.6408|
                          DCD      v_minus
                  |L1.6412|
                          DCD      asymmetry
                  |L1.6416|
                          DCD      sk1_24
                  |L1.6420|
                          DCD      count_Iddt
                  |L1.6424|
                          DCD      ddt_error_temp
                  |L1.6428|
                          DCD      Iddt_porog_pred
                  |L1.6432|
                          DCD      Iddt_porog_error
                  |L1.6436|
                          DCD      status_izm_r
                  |L1.6440|
                          DCD      sk_alarm
                  |L1.6444|
                          DCD      asymmetry_porog
                  |L1.6448|
                          DCD      status_di1
                  |L1.6452|
                          DCD      status_di2
                  |L1.6456|
                          DCD      u_asymmetry_porog_down
                  |L1.6460|
                          DCD      no_net_in
                  |L1.6464|
                          DCD      net_in_u1_a
                  |L1.6468|
                          DCD      net_in_u1_b
                  |L1.6472|
                          DCD      net_in_u1_c
                  |L1.6476|
                          DCD      net_in_i1_a
                  |L1.6480|
                          DCD      net_in_i1_b
                  |L1.6484|
                          DCD      net_in_i1_c
                  |L1.6488|
                          DCD      net_in_p1_a
                  |L1.6492|
                          DCD      net_in_p1_b
                  |L1.6496|
                          DCD      net_in_p1_c
                  |L1.6500|
                          DCD      net_in_s1_a
                  |L1.6504|
                          DCD      net_in_s1_b
                  |L1.6508|
                          DCD      net_in_s1_c
                  |L1.6512|
001970  e00b              B        |L1.6538|
                  |L1.6514|
001972  e011              B        |L1.6552|
                  |L1.6516|
001974  e017              B        |L1.6566|
                  |L1.6518|
001976  e01d              B        |L1.6580|
                  |L1.6520|
001978  e027              B        |L1.6602|
                  |L1.6522|
00197a  e02d              B        |L1.6616|
                  |L1.6524|
00197c  4dff              LDR      r5,|L1.7548|
00197e  8029              STRH     r1,[r5,#0]            ;1333
001980  49ff              LDR      r1,|L1.7552|
001982  800a              STRH     r2,[r1,#0]            ;1334
001984  49ff              LDR      r1,|L1.7556|
001986  800b              STRH     r3,[r1,#0]            ;1335
001988  e02a              B        |L1.6624|
                  |L1.6538|
00198a  4dff              LDR      r5,|L1.7560|
00198c  8029              STRH     r1,[r5,#0]            ;1338
00198e  49ff              LDR      r1,|L1.7564|
001990  800a              STRH     r2,[r1,#0]            ;1339
001992  49ff              LDR      r1,|L1.7568|
001994  800b              STRH     r3,[r1,#0]            ;1340
001996  e023              B        |L1.6624|
                  |L1.6552|
001998  4dfe              LDR      r5,|L1.7572|
00199a  8029              STRH     r1,[r5,#0]            ;1343
00199c  49fe              LDR      r1,|L1.7576|
00199e  800a              STRH     r2,[r1,#0]            ;1344
0019a0  49fe              LDR      r1,|L1.7580|
0019a2  800b              STRH     r3,[r1,#0]            ;1345
0019a4  e01c              B        |L1.6624|
                  |L1.6566|
0019a6  4dfe              LDR      r5,|L1.7584|
0019a8  8029              STRH     r1,[r5,#0]            ;1348
0019aa  49fe              LDR      r1,|L1.7588|
0019ac  800a              STRH     r2,[r1,#0]            ;1349
0019ae  49fe              LDR      r1,|L1.7592|
0019b0  800b              STRH     r3,[r1,#0]            ;1350
0019b2  e015              B        |L1.6624|
                  |L1.6580|
0019b4  4bfd              LDR      r3,|L1.7596|
0019b6  8019              STRH     r1,[r3,#0]            ;1353
0019b8  49fd              LDR      r1,|L1.7600|
0019ba  800a              STRH     r2,[r1,#0]            ;1354
0019bc  49fd              LDR      r1,|L1.7604|
0019be  f881c000          STRB     r12,[r1,#0]           ;1355
0019c2  49fd              LDR      r1,|L1.7608|
0019c4  f8819000          STRB     r9,[r1,#0]            ;1356
0019c8  e00a              B        |L1.6624|
                  |L1.6602|
0019ca  4dfc              LDR      r5,|L1.7612|
0019cc  8029              STRH     r1,[r5,#0]            ;1359
0019ce  49fc              LDR      r1,|L1.7616|
0019d0  800a              STRH     r2,[r1,#0]            ;1360
0019d2  49fc              LDR      r1,|L1.7620|
0019d4  800b              STRH     r3,[r1,#0]            ;1361
0019d6  e003              B        |L1.6624|
                  |L1.6616|
;;;1364   		t_inclusion_net_in=((unsigned short)RXBUFF[2]<<8)+RXBUFF[3];
0019d8  4bfb              LDR      r3,|L1.7624|
0019da  8019              STRH     r1,[r3,#0]
;;;1365   		t_shutdown_net_in=((unsigned short)RXBUFF[4]<<8)+RXBUFF[5];
0019dc  49fb              LDR      r1,|L1.7628|
0019de  800a              STRH     r2,[r1,#0]
                  |L1.6624|
;;;1366   		
;;;1367   	}
;;;1368   
;;;1369   	
;;;1370   }
;;;1371   // oleg_end
;;;1372   
;;;1373   if((((RXBUFF[0]==sub_ind1)&&(ind==iK_bps))||((RXBUFF[0]==uavt_bps_pntr)&&(uavt_set_stat==uassSTEP3)))&&(RXBUFF[1]==PUTID)&&(RXBUFF[2]==0xdd)&&(RXBUFF[3]==0xdd)/*&&(sub_ind==6)*/)
0019e0  49fc              LDR      r1,|L1.7636|
0019e2  9a02              LDR      r2,[sp,#8]
0019e4  f8dfa3e8          LDR      r10,|L1.7632|
0019e8  f9913002          LDRSB    r3,[r1,#2]  ; a_ind
;;;1374   	{
;;;1375   	mess_send(MESS2IND_HNDL,PARAM_U_AVT_GOOD,0,10);
;;;1376   	can_reset_cnt=0;
0019ec  4dfa              LDR      r5,|L1.7640|
0019ee  429a              CMP      r2,r3                 ;1373
0019f0  d102              BNE      |L1.6648|
0019f2  7809              LDRB     r1,[r1,#0]            ;1373  ; a_ind
0019f4  2961              CMP      r1,#0x61              ;1373
0019f6  d008              BEQ      |L1.6666|
                  |L1.6648|
0019f8  4af8              LDR      r2,|L1.7644|
0019fa  9902              LDR      r1,[sp,#8]            ;1373
0019fc  7812              LDRB     r2,[r2,#0]            ;1373  ; uavt_bps_pntr
0019fe  4291              CMP      r1,r2                 ;1373
001a00  d110              BNE      |L1.6692|
001a02  49f7              LDR      r1,|L1.7648|
001a04  7809              LDRB     r1,[r1,#0]            ;1373  ; uavt_set_stat
001a06  2903              CMP      r1,#3                 ;1373
001a08  d10c              BNE      |L1.6692|
                  |L1.6666|
001a0a  2891              CMP      r0,#0x91              ;1373
001a0c  d10a              BNE      |L1.6692|
001a0e  2fdd              CMP      r7,#0xdd              ;1373
001a10  d108              BNE      |L1.6692|
001a12  2edd              CMP      r6,#0xdd              ;1373
001a14  d106              BNE      |L1.6692|
001a16  230a              MOVS     r3,#0xa               ;1375
001a18  2200              MOVS     r2,#0                 ;1375
001a1a  21d9              MOVS     r1,#0xd9              ;1375
001a1c  20d7              MOVS     r0,#0xd7              ;1375
001a1e  f7fffffe          BL       mess_send
001a22  70ac              STRB     r4,[r5,#2]
                  |L1.6692|
;;;1377   	}
;;;1378   
;;;1379   
;;;1380   if((RXBUFF[1]==PUTTM1)&&((RXBUFF[0]&0x1f)>=0)&&((RXBUFF[0]&0x1f)<17))
001a24  f89a0001          LDRB     r0,[r10,#1]  ; RXBUFF
001a28  2602              MOVS     r6,#2                 ;1157
;;;1381        {
;;;1382   	//can_debug_plazma[1][2]++;
;;;1383        slave_num=RXBUFF[0]&0x1f;
;;;1384        
;;;1385       if((RXBUFF[0]&0xe0)==0)bps[slave_num]._device=dSRC;
001a2a  f8df83b8          LDR      r8,|L1.7652|
001a2e  270a              MOVS     r7,#0xa               ;1157
001a30  f04f0905          MOV      r9,#5                 ;1157
001a34  f04f0b03          MOV      r11,#3                ;1157
001a38  28da              CMP      r0,#0xda              ;1380
001a3a  d133              BNE      |L1.6820|
001a3c  f89a1000          LDRB     r1,[r10,#0]           ;1380  ; RXBUFF
001a40  f001001f          AND      r0,r1,#0x1f           ;1380
001a44  2811              CMP      r0,#0x11              ;1380
001a46  d22d              BCS      |L1.6820|
001a48  094a              LSRS     r2,r1,#5
001a4a  d030              BEQ      |L1.6830|
;;;1386       else if((RXBUFF[0]&0xe0)==0x40)bps[slave_num]._device=dINV;
001a4c  ebb61f51          CMP      r6,r1,LSR #5
001a50  d105              BNE      |L1.6750|
001a52  ebc001c0          RSB      r1,r0,r0,LSL #3
001a56  eb011100          ADD      r1,r1,r0,LSL #4
001a5a  f8089021          STRB     r9,[r8,r1,LSL #2]
                  |L1.6750|
;;;1387        	
;;;1388   	bps[slave_num]._buff[0]=RXBUFF[2]; 
001a5e  ebc001c0          RSB      r1,r0,r0,LSL #3
001a62  eb011100          ADD      r1,r1,r0,LSL #4
001a66  eb080181          ADD      r1,r8,r1,LSL #2
001a6a  f89a2002          LDRB     r2,[r10,#2]  ; RXBUFF
001a6e  718a              STRB     r2,[r1,#6]
;;;1389   	bps[slave_num]._buff[1]=RXBUFF[3];
001a70  f89a2003          LDRB     r2,[r10,#3]  ; RXBUFF
001a74  71ca              STRB     r2,[r1,#7]
;;;1390   	bps[slave_num]._buff[2]=RXBUFF[4];
001a76  f89a2004          LDRB     r2,[r10,#4]  ; RXBUFF
001a7a  720a              STRB     r2,[r1,#8]
;;;1391   	bps[slave_num]._buff[3]=RXBUFF[5];
001a7c  f89a2005          LDRB     r2,[r10,#5]  ; RXBUFF
001a80  724a              STRB     r2,[r1,#9]
;;;1392   	bps[slave_num]._buff[4]=RXBUFF[6];
001a82  f89a2006          LDRB     r2,[r10,#6]  ; RXBUFF
001a86  728a              STRB     r2,[r1,#0xa]
;;;1393   	bps[slave_num]._buff[5]=RXBUFF[7];
001a88  f89a2007          LDRB     r2,[r10,#7]  ; RXBUFF
001a8c  72ca              STRB     r2,[r1,#0xb]
;;;1394   
;;;1395   
;;;1396   /*	can_slot[slave_num,0]=RXBUFF[0];
;;;1397   	can_slot[slave_num,1]=RXBUFF[1];
;;;1398   	can_slot[slave_num,2]=RXBUFF[2];
;;;1399   	can_slot[slave_num,3]=RXBUFF[3];
;;;1400   	can_slot[slave_num,4]=RXBUFF[4];
;;;1401   	can_slot[slave_num,5]=RXBUFF[5];
;;;1402   	can_slot[slave_num,6]=RXBUFF[6];
;;;1403   	can_slot[slave_num,7]=RXBUFF[7]; */
;;;1404   	
;;;1405   	bps[slave_num]._cnt=0;
001a8e  70cc              STRB     r4,[r1,#3]
;;;1406   	bps[slave_num]._is_on_cnt=10;
001a90  f8817038          STRB     r7,[r1,#0x38]
;;;1407   	
;;;1408    	if((bps[slave_num]._cnt==0)&&(bps[slave_num]._av&(1<<3))) avar_bps_hndl(slave_num,3,0);
001a94  7849              LDRB     r1,[r1,#1]
001a96  0709              LSLS     r1,r1,#28
001a98  d503              BPL      |L1.6818|
001a9a  2200              MOVS     r2,#0
001a9c  2103              MOVS     r1,#3
001a9e  f7fffffe          BL       avar_bps_hndl
                  |L1.6818|
;;;1409   
;;;1410   	can_reset_cnt=0;
001aa2  70ac              STRB     r4,[r5,#2]
                  |L1.6820|
;;;1411        }
;;;1412   
;;;1413   if((RXBUFF[1]==PUTTM2)&&((RXBUFF[0]&0x1f)>=0)&&((RXBUFF[0]&0x1f)<12))
001aa4  f89a1001          LDRB     r1,[r10,#1]  ; RXBUFF
001aa8  29db              CMP      r1,#0xdb
001aaa  d007              BEQ      |L1.6844|
001aac  e033              B        |L1.6934|
                  |L1.6830|
001aae  ebc001c0          RSB      r1,r0,r0,LSL #3       ;1385
001ab2  eb011100          ADD      r1,r1,r0,LSL #4       ;1385
001ab6  f808b021          STRB     r11,[r8,r1,LSL #2]    ;1385
001aba  e7d0              B        |L1.6750|
                  |L1.6844|
001abc  f89a2000          LDRB     r2,[r10,#0]  ; RXBUFF
001ac0  f002001f          AND      r0,r2,#0x1f
001ac4  280c              CMP      r0,#0xc
001ac6  d226              BCS      |L1.6934|
;;;1414    	{
;;;1415        slave_num=RXBUFF[0]&0x1f;  
;;;1416   
;;;1417       if((RXBUFF[0]&0xe0)==0)bps[slave_num]._device=dSRC;
001ac8  0953              LSRS     r3,r2,#5
001aca  d027              BEQ      |L1.6940|
;;;1418       else if((RXBUFF[0]&0xe0)==0x40)bps[slave_num]._device=dINV;
001acc  ebb61f52          CMP      r6,r2,LSR #5
001ad0  d105              BNE      |L1.6878|
001ad2  ebc002c0          RSB      r2,r0,r0,LSL #3
001ad6  eb021200          ADD      r2,r2,r0,LSL #4
001ada  f8089022          STRB     r9,[r8,r2,LSL #2]
                  |L1.6878|
;;;1419        
;;;1420   	bps[slave_num]._buff[6]=RXBUFF[2]; 
001ade  ebc003c0          RSB      r3,r0,r0,LSL #3
001ae2  eb031000          ADD      r0,r3,r0,LSL #4
001ae6  eb080080          ADD      r0,r8,r0,LSL #2
001aea  f89a2002          LDRB     r2,[r10,#2]  ; RXBUFF
001aee  7302              STRB     r2,[r0,#0xc]
;;;1421   	bps[slave_num]._buff[7]=RXBUFF[3];
001af0  f89a2003          LDRB     r2,[r10,#3]  ; RXBUFF
001af4  7342              STRB     r2,[r0,#0xd]
;;;1422   	bps[slave_num]._buff[8]=RXBUFF[4];
001af6  f89a2004          LDRB     r2,[r10,#4]  ; RXBUFF
001afa  7382              STRB     r2,[r0,#0xe]
;;;1423   	bps[slave_num]._buff[9]=RXBUFF[5];
001afc  f89a2005          LDRB     r2,[r10,#5]  ; RXBUFF
001b00  73c2              STRB     r2,[r0,#0xf]
;;;1424   	bps[slave_num]._buff[10]=RXBUFF[6];
001b02  f89a2006          LDRB     r2,[r10,#6]  ; RXBUFF
001b06  7402              STRB     r2,[r0,#0x10]
;;;1425   	bps[slave_num]._buff[11]=RXBUFF[7];	
001b08  f89a2007          LDRB     r2,[r10,#7]  ; RXBUFF
001b0c  7442              STRB     r2,[r0,#0x11]
;;;1426   
;;;1427   
;;;1428   /*	can_slot[slave_num,8]=RXBUFF[0];
;;;1429   	can_slot[slave_num,9]=RXBUFF[1];
;;;1430   	can_slot[slave_num,10]=RXBUFF[2];
;;;1431   	can_slot[slave_num,11]=RXBUFF[3];
;;;1432   	can_slot[slave_num,12]=RXBUFF[4];
;;;1433   	can_slot[slave_num,13]=RXBUFF[5];
;;;1434   	can_slot[slave_num,14]=RXBUFF[6];
;;;1435   	can_slot[slave_num,15]=RXBUFF[7]; */
;;;1436   	
;;;1437   	bps[slave_num]._cnt=0;
001b0e  70c4              STRB     r4,[r0,#3]
;;;1438   	bps[slave_num]._is_on_cnt=10; 
001b10  f8807038          STRB     r7,[r0,#0x38]
;;;1439   
;;;1440      	//if((src[slave_num]._cnt==0)&&(src[slave_num]._av_net)) avar_s_hndl(slave_num,3,0); 
;;;1441   	can_reset_cnt=0;
001b14  70ac              STRB     r4,[r5,#2]
                  |L1.6934|
;;;1442      	}
;;;1443   
;;;1444   if((RXBUFF[1]==PUTTM1INV2)&&((RXBUFF[0]&0x1f)>=MINIM_INV_ADRESS)&&((RXBUFF[0]&0x1f)<MINIM_INV_ADRESS+NUMINV))
001b16  29dd              CMP      r1,#0xdd
001b18  d007              BEQ      |L1.6954|
001b1a  e045              B        |L1.7080|
                  |L1.6940|
001b1c  ebc002c0          RSB      r2,r0,r0,LSL #3       ;1417
001b20  eb021200          ADD      r2,r2,r0,LSL #4       ;1417
001b24  f808b022          STRB     r11,[r8,r2,LSL #2]    ;1417
001b28  e7d9              B        |L1.6878|
                  |L1.6954|
001b2a  f89a1000          LDRB     r1,[r10,#0]  ; RXBUFF
001b2e  f001001f          AND      r0,r1,#0x1f
001b32  2814              CMP      r0,#0x14
001b34  d338              BCC      |L1.7080|
001b36  4aac              LDR      r2,|L1.7656|
001b38  f9b22000          LDRSH    r2,[r2,#0]  ; NUMINV
001b3c  3214              ADDS     r2,r2,#0x14
001b3e  4290              CMP      r0,r2
001b40  da32              BGE      |L1.7080|
;;;1445        {
;;;1446   	//can_debug_plazma[1][2]++;
;;;1447        slave_num=RXBUFF[0]&0x1f;
;;;1448   
;;;1449   	plazma_can_inv[0]++;
001b42  4baa              LDR      r3,|L1.7660|
001b44  781a              LDRB     r2,[r3,#0]  ; plazma_can_inv
001b46  f1020201          ADD      r2,r2,#1
001b4a  701a              STRB     r2,[r3,#0]
;;;1450        
;;;1451       if((RXBUFF[0]&0xe0)==0)bps[slave_num]._device=dSRC;
001b4c  094a              LSRS     r2,r1,#5
001b4e  d031              BEQ      |L1.7092|
;;;1452       else if((RXBUFF[0]&0xe0)==0x40)bps[slave_num]._device=dINV;
001b50  ebb61f51          CMP      r6,r1,LSR #5
001b54  d105              BNE      |L1.7010|
001b56  ebc001c0          RSB      r1,r0,r0,LSL #3
001b5a  eb011100          ADD      r1,r1,r0,LSL #4
001b5e  f8089021          STRB     r9,[r8,r1,LSL #2]
                  |L1.7010|
;;;1453        	
;;;1454   	bps[slave_num]._buff[0]=RXBUFF[2]; 
001b62  ebc001c0          RSB      r1,r0,r0,LSL #3
001b66  eb011100          ADD      r1,r1,r0,LSL #4
001b6a  eb080181          ADD      r1,r8,r1,LSL #2
001b6e  f89a2002          LDRB     r2,[r10,#2]  ; RXBUFF
001b72  718a              STRB     r2,[r1,#6]
;;;1455   	bps[slave_num]._buff[1]=RXBUFF[3];
001b74  f89a2003          LDRB     r2,[r10,#3]  ; RXBUFF
001b78  71ca              STRB     r2,[r1,#7]
;;;1456   	bps[slave_num]._buff[2]=RXBUFF[4];
001b7a  f89a2004          LDRB     r2,[r10,#4]  ; RXBUFF
001b7e  720a              STRB     r2,[r1,#8]
;;;1457   	bps[slave_num]._buff[3]=RXBUFF[5];
001b80  f89a2005          LDRB     r2,[r10,#5]  ; RXBUFF
001b84  724a              STRB     r2,[r1,#9]
;;;1458   	bps[slave_num]._buff[4]=RXBUFF[6];
001b86  f89a2006          LDRB     r2,[r10,#6]  ; RXBUFF
001b8a  728a              STRB     r2,[r1,#0xa]
;;;1459   	bps[slave_num]._buff[5]=RXBUFF[7];
001b8c  f89a2007          LDRB     r2,[r10,#7]  ; RXBUFF
001b90  72ca              STRB     r2,[r1,#0xb]
;;;1460   
;;;1461   
;;;1462   /*	can_slot[slave_num,0]=RXBUFF[0];
;;;1463   	can_slot[slave_num,1]=RXBUFF[1];
;;;1464   	can_slot[slave_num,2]=RXBUFF[2];
;;;1465   	can_slot[slave_num,3]=RXBUFF[3];
;;;1466   	can_slot[slave_num,4]=RXBUFF[4];
;;;1467   	can_slot[slave_num,5]=RXBUFF[5];
;;;1468   	can_slot[slave_num,6]=RXBUFF[6];
;;;1469   	can_slot[slave_num,7]=RXBUFF[7]; */
;;;1470   	
;;;1471   	bps[slave_num]._cnt=0;
001b92  70cc              STRB     r4,[r1,#3]
;;;1472   	bps[slave_num]._is_on_cnt=10;
001b94  f8817038          STRB     r7,[r1,#0x38]
;;;1473   	
;;;1474    	if((bps[slave_num]._cnt==0)&&(bps[slave_num]._av&(1<<3))) avar_bps_hndl(slave_num,3,0);
001b98  7849              LDRB     r1,[r1,#1]
001b9a  0709              LSLS     r1,r1,#28
001b9c  d503              BPL      |L1.7078|
001b9e  2200              MOVS     r2,#0
001ba0  2103              MOVS     r1,#3
001ba2  f7fffffe          BL       avar_bps_hndl
                  |L1.7078|
;;;1475   
;;;1476   	can_reset_cnt=0;
001ba6  70ac              STRB     r4,[r5,#2]
                  |L1.7080|
;;;1477        }
;;;1478   
;;;1479   if((RXBUFF[1]==PUTTM2INV2)&&((RXBUFF[0]&0x1f)>=MINIM_INV_ADRESS)&&((RXBUFF[0]&0x1f)<MINIM_INV_ADRESS+NUMINV))
001ba8  f89a0001          LDRB     r0,[r10,#1]  ; RXBUFF
001bac  4653              MOV      r3,r10
001bae  28de              CMP      r0,#0xde
001bb0  d007              BEQ      |L1.7106|
001bb2  e03d              B        |L1.7216|
                  |L1.7092|
001bb4  ebc001c0          RSB      r1,r0,r0,LSL #3       ;1451
001bb8  eb011100          ADD      r1,r1,r0,LSL #4       ;1451
001bbc  f808b021          STRB     r11,[r8,r1,LSL #2]    ;1451
001bc0  e7cf              B        |L1.7010|
                  |L1.7106|
001bc2  781a              LDRB     r2,[r3,#0]  ; RXBUFF
001bc4  f002011f          AND      r1,r2,#0x1f
001bc8  2914              CMP      r1,#0x14
001bca  d331              BCC      |L1.7216|
001bcc  f8dfc218          LDR      r12,|L1.7656|
001bd0  f9bcc000          LDRSH    r12,[r12,#0]  ; NUMINV
001bd4  f10c0c14          ADD      r12,r12,#0x14
001bd8  4561              CMP      r1,r12
001bda  da29              BGE      |L1.7216|
;;;1480    	{
;;;1481        slave_num=RXBUFF[0]&0x1f;
;;;1482   	
;;;1483   	plazma_can_inv[1]++;  
001bdc  f8dfc20c          LDR      r12,|L1.7660|
001be0  f89ca001          LDRB     r10,[r12,#1]  ; plazma_can_inv
001be4  f10a0a01          ADD      r10,r10,#1
001be8  f88ca001          STRB     r10,[r12,#1]
;;;1484   
;;;1485       if((RXBUFF[0]&0xe0)==0)bps[slave_num]._device=dSRC;
001bec  ea5f1c52          LSRS     r12,r2,#5
001bf0  d021              BEQ      |L1.7222|
;;;1486       else if((RXBUFF[0]&0xe0)==0x40)bps[slave_num]._device=dINV;
001bf2  ebb61f52          CMP      r6,r2,LSR #5
001bf6  d105              BNE      |L1.7172|
001bf8  ebc102c1          RSB      r2,r1,r1,LSL #3
001bfc  eb021201          ADD      r2,r2,r1,LSL #4
001c00  f8089022          STRB     r9,[r8,r2,LSL #2]
                  |L1.7172|
;;;1487        
;;;1488   	bps[slave_num]._buff[6]=RXBUFF[2]; 
001c04  ebc10cc1          RSB      r12,r1,r1,LSL #3
001c08  eb0c1101          ADD      r1,r12,r1,LSL #4
001c0c  eb080181          ADD      r1,r8,r1,LSL #2
001c10  789a              LDRB     r2,[r3,#2]  ; RXBUFF
001c12  730a              STRB     r2,[r1,#0xc]
;;;1489   	bps[slave_num]._buff[7]=RXBUFF[3];
001c14  78da              LDRB     r2,[r3,#3]  ; RXBUFF
001c16  734a              STRB     r2,[r1,#0xd]
;;;1490   	bps[slave_num]._buff[8]=RXBUFF[4];
001c18  791a              LDRB     r2,[r3,#4]  ; RXBUFF
001c1a  738a              STRB     r2,[r1,#0xe]
;;;1491   	bps[slave_num]._buff[9]=RXBUFF[5];
001c1c  795a              LDRB     r2,[r3,#5]  ; RXBUFF
001c1e  73ca              STRB     r2,[r1,#0xf]
;;;1492   	bps[slave_num]._buff[10]=RXBUFF[6];
001c20  799a              LDRB     r2,[r3,#6]  ; RXBUFF
001c22  740a              STRB     r2,[r1,#0x10]
;;;1493   	bps[slave_num]._buff[11]=RXBUFF[7];	
001c24  79da              LDRB     r2,[r3,#7]  ; RXBUFF
001c26  744a              STRB     r2,[r1,#0x11]
;;;1494   
;;;1495   
;;;1496   /*	can_slot[slave_num,8]=RXBUFF[0];
;;;1497   	can_slot[slave_num,9]=RXBUFF[1];
;;;1498   	can_slot[slave_num,10]=RXBUFF[2];
;;;1499   	can_slot[slave_num,11]=RXBUFF[3];
;;;1500   	can_slot[slave_num,12]=RXBUFF[4];
;;;1501   	can_slot[slave_num,13]=RXBUFF[5];
;;;1502   	can_slot[slave_num,14]=RXBUFF[6];
;;;1503   	can_slot[slave_num,15]=RXBUFF[7]; */
;;;1504   	
;;;1505   	bps[slave_num]._cnt=0;
001c28  70cc              STRB     r4,[r1,#3]
;;;1506   	bps[slave_num]._is_on_cnt=10; 
001c2a  f8817038          STRB     r7,[r1,#0x38]
;;;1507   
;;;1508      	//if((src[slave_num]._cnt==0)&&(src[slave_num]._av_net)) avar_s_hndl(slave_num,3,0); 
;;;1509   	can_reset_cnt=0;
001c2e  70ac              STRB     r4,[r5,#2]
                  |L1.7216|
;;;1510      	}
;;;1511   
;;;1512   if((RXBUFF[1]==PUTTM3INV2)&&((RXBUFF[0]&0x1f)>=MINIM_INV_ADRESS)&&((RXBUFF[0]&0x1f)<MINIM_INV_ADRESS+NUMINV))
001c30  28df              CMP      r0,#0xdf
001c32  d007              BEQ      |L1.7236|
001c34  e03d              B        |L1.7346|
                  |L1.7222|
001c36  ebc102c1          RSB      r2,r1,r1,LSL #3       ;1485
001c3a  eb021201          ADD      r2,r2,r1,LSL #4       ;1485
001c3e  f808b022          STRB     r11,[r8,r2,LSL #2]    ;1485
001c42  e7df              B        |L1.7172|
                  |L1.7236|
001c44  781a              LDRB     r2,[r3,#0]  ; RXBUFF
001c46  f002011f          AND      r1,r2,#0x1f
001c4a  2914              CMP      r1,#0x14
001c4c  d331              BCC      |L1.7346|
001c4e  f8dfc198          LDR      r12,|L1.7656|
001c52  f9bcc000          LDRSH    r12,[r12,#0]  ; NUMINV
001c56  f10c0c14          ADD      r12,r12,#0x14
001c5a  4561              CMP      r1,r12
001c5c  da29              BGE      |L1.7346|
;;;1513    	{
;;;1514        slave_num=RXBUFF[0]&0x1f; 
;;;1515   
;;;1516   	plazma_can_inv[2]++; 
001c5e  f8dfa18c          LDR      r10,|L1.7660|
001c62  f89ac002          LDRB     r12,[r10,#2]  ; plazma_can_inv
001c66  f10c0c01          ADD      r12,r12,#1
001c6a  f88ac002          STRB     r12,[r10,#2]
;;;1517   
;;;1518       if((RXBUFF[0]&0xe0)==0)bps[slave_num]._device=dSRC;
001c6e  ea5f1c52          LSRS     r12,r2,#5
001c72  d022              BEQ      |L1.7354|
;;;1519       else if((RXBUFF[0]&0xe0)==0x40)bps[slave_num]._device=dINV;
001c74  ebb61f52          CMP      r6,r2,LSR #5
001c78  d105              BNE      |L1.7302|
001c7a  ebc102c1          RSB      r2,r1,r1,LSL #3
001c7e  eb021201          ADD      r2,r2,r1,LSL #4
001c82  f8089022          STRB     r9,[r8,r2,LSL #2]
                  |L1.7302|
;;;1520        
;;;1521   	bps[slave_num]._buff[12]=RXBUFF[2]; 
001c86  ebc106c1          RSB      r6,r1,r1,LSL #3
001c8a  eb061101          ADD      r1,r6,r1,LSL #4
001c8e  eb080181          ADD      r1,r8,r1,LSL #2
001c92  789a              LDRB     r2,[r3,#2]  ; RXBUFF
001c94  748a              STRB     r2,[r1,#0x12]
;;;1522   	bps[slave_num]._buff[13]=RXBUFF[3];
001c96  78da              LDRB     r2,[r3,#3]  ; RXBUFF
001c98  74ca              STRB     r2,[r1,#0x13]
;;;1523   	bps[slave_num]._buff[14]=RXBUFF[4];
001c9a  791a              LDRB     r2,[r3,#4]  ; RXBUFF
001c9c  750a              STRB     r2,[r1,#0x14]
;;;1524   	bps[slave_num]._buff[15]=RXBUFF[5];
001c9e  795a              LDRB     r2,[r3,#5]  ; RXBUFF
001ca0  754a              STRB     r2,[r1,#0x15]
;;;1525   	bps[slave_num]._buff[16]=RXBUFF[6];
001ca2  799a              LDRB     r2,[r3,#6]  ; RXBUFF
001ca4  758a              STRB     r2,[r1,#0x16]
;;;1526   	bps[slave_num]._buff[17]=RXBUFF[7];	
001ca6  79da              LDRB     r2,[r3,#7]  ; RXBUFF
001ca8  75ca              STRB     r2,[r1,#0x17]
;;;1527   
;;;1528   
;;;1529   /*	can_slot[slave_num,8]=RXBUFF[0];
;;;1530   	can_slot[slave_num,9]=RXBUFF[1];
;;;1531   	can_slot[slave_num,10]=RXBUFF[2];
;;;1532   	can_slot[slave_num,11]=RXBUFF[3];
;;;1533   	can_slot[slave_num,12]=RXBUFF[4];
;;;1534   	can_slot[slave_num,13]=RXBUFF[5];
;;;1535   	can_slot[slave_num,14]=RXBUFF[6];
;;;1536   	can_slot[slave_num,15]=RXBUFF[7]; */
;;;1537   	
;;;1538   	bps[slave_num]._cnt=0;
001caa  70cc              STRB     r4,[r1,#3]
;;;1539   	bps[slave_num]._is_on_cnt=10; 
001cac  f8817038          STRB     r7,[r1,#0x38]
;;;1540   
;;;1541      	//if((src[slave_num]._cnt==0)&&(src[slave_num]._av_net)) avar_s_hndl(slave_num,3,0); 
;;;1542   	can_reset_cnt=0;
001cb0  70ac              STRB     r4,[r5,#2]
                  |L1.7346|
;;;1543      	}
;;;1544   
;;;1545   if((RXBUFF[1]==PUTTM1BYPS))
;;;1546        {
;;;1547   	//can_debug_plazma[1][2]++;
;;;1548        byps._adress=RXBUFF[0]&0x1f;
001cb2  494f              LDR      r1,|L1.7664|
001cb4  28d8              CMP      r0,#0xd8              ;1545
001cb6  d007              BEQ      |L1.7368|
001cb8  e01a              B        |L1.7408|
                  |L1.7354|
001cba  ebc102c1          RSB      r2,r1,r1,LSL #3       ;1518
001cbe  eb021201          ADD      r2,r2,r1,LSL #4       ;1518
001cc2  f808b022          STRB     r11,[r8,r2,LSL #2]    ;1518
001cc6  e7de              B        |L1.7302|
                  |L1.7368|
001cc8  781a              LDRB     r2,[r3,#0]  ; RXBUFF
001cca  f002021f          AND      r2,r2,#0x1f
001cce  734a              STRB     r2,[r1,#0xd]
;;;1549        
;;;1550        	
;;;1551   	byps._Iout=(signed short)RXBUFF[2]+(((signed short)RXBUFF[3])*256);
001cd0  789a              LDRB     r2,[r3,#2]  ; RXBUFF
001cd2  78de              LDRB     r6,[r3,#3]  ; RXBUFF
001cd4  eb022206          ADD      r2,r2,r6,LSL #8
001cd8  800a              STRH     r2,[r1,#0]
;;;1552   	byps._Pout=(signed short)RXBUFF[4]+(((signed short)RXBUFF[5])*256);
001cda  791a              LDRB     r2,[r3,#4]  ; RXBUFF
001cdc  795e              LDRB     r6,[r3,#5]  ; RXBUFF
001cde  eb022206          ADD      r2,r2,r6,LSL #8
001ce2  808a              STRH     r2,[r1,#4]
;;;1553   	byps._Uout=(signed short)RXBUFF[6]+(((signed short)RXBUFF[7])*256);
001ce4  799a              LDRB     r2,[r3,#6]  ; RXBUFF
001ce6  79de              LDRB     r6,[r3,#7]  ; RXBUFF
001ce8  eb022206          ADD      r2,r2,r6,LSL #8
001cec  804a              STRH     r2,[r1,#2]
;;;1554   	
;;;1555   	byps._cnt=0;
001cee  730c              STRB     r4,[r1,#0xc]
                  |L1.7408|
;;;1556        }
;;;1557   
;;;1558   if((RXBUFF[1]==PUTTM2BYPS))
001cf0  28d9              CMP      r0,#0xd9
001cf2  d10e              BNE      |L1.7442|
;;;1559    	{
;;;1560   	byps._T=(char)RXBUFF[2];
001cf4  789a              LDRB     r2,[r3,#2]  ; RXBUFF
001cf6  728a              STRB     r2,[r1,#0xa]
;;;1561   	byps._flags=(char)RXBUFF[3];
001cf8  78da              LDRB     r2,[r3,#3]  ; RXBUFF
001cfa  72ca              STRB     r2,[r1,#0xb]
;;;1562   	byps._Unet=(signed short)RXBUFF[4]+(((signed short)RXBUFF[5])*256);
001cfc  791a              LDRB     r2,[r3,#4]  ; RXBUFF
001cfe  795e              LDRB     r6,[r3,#5]  ; RXBUFF
001d00  eb022206          ADD      r2,r2,r6,LSL #8
001d04  80ca              STRH     r2,[r1,#6]
;;;1563   	byps._Uin=(signed short)RXBUFF[6]+(((signed short)RXBUFF[7])*256);
001d06  799a              LDRB     r2,[r3,#6]  ; RXBUFF
001d08  79de              LDRB     r6,[r3,#7]  ; RXBUFF
001d0a  eb022206          ADD      r2,r2,r6,LSL #8
001d0e  810a              STRH     r2,[r1,#8]
;;;1564   
;;;1565   	byps._cnt=0;
001d10  730c              STRB     r4,[r1,#0xc]
                  |L1.7442|
;;;1566      	}
;;;1567   
;;;1568   if((RXBUFF[1]==PUTTM_IBATMETER)&&((RXBUFF[0]&0x1f)>=0)&&((RXBUFF[0]&0x1f)<12))
;;;1569    	{
;;;1570       slave_num=RXBUFF[0]&0x1f;  
;;;1571   
;;;1572       bps[slave_num]._device=dIBAT_METR;
;;;1573            
;;;1574   	bps[slave_num]._buff[0]=RXBUFF[2]; 
;;;1575   	bps[slave_num]._buff[1]=RXBUFF[3];
;;;1576   	bps[slave_num]._buff[2]=RXBUFF[4];
;;;1577   	bps[slave_num]._buff[3]=RXBUFF[5];
;;;1578   	bps[slave_num]._buff[4]=RXBUFF[6];
;;;1579   	bps[slave_num]._buff[5]=RXBUFF[7];	
;;;1580   
;;;1581   
;;;1582   /*	can_slot[slave_num,8]=RXBUFF[0];
;;;1583   	can_slot[slave_num,9]=RXBUFF[1];
;;;1584   	can_slot[slave_num,10]=RXBUFF[2];
;;;1585   	can_slot[slave_num,11]=RXBUFF[3];
;;;1586   	can_slot[slave_num,12]=RXBUFF[4];
;;;1587   	can_slot[slave_num,13]=RXBUFF[5];
;;;1588   	can_slot[slave_num,14]=RXBUFF[6];
;;;1589   	can_slot[slave_num,15]=RXBUFF[7]; */
;;;1590   	
;;;1591   	bps[slave_num]._cnt=0;
;;;1592   	bps[slave_num]._is_on_cnt=10; 
;;;1593   
;;;1594      	//if((src[slave_num]._cnt==0)&&(src[slave_num]._av_net)) avar_s_hndl(slave_num,3,0); 
;;;1595   	can_reset_cnt=0;
;;;1596   	ibat_metr_cnt=0;
001d12  f8dfc0e0          LDR      r12,|L1.7668|
001d16  28d1              CMP      r0,#0xd1              ;1568
001d18  d120              BNE      |L1.7516|
001d1a  7819              LDRB     r1,[r3,#0]            ;1568  ; RXBUFF
001d1c  f001011f          AND      r1,r1,#0x1f           ;1568
001d20  290c              CMP      r1,#0xc               ;1568
001d22  d21b              BCS      |L1.7516|
001d24  ebc106c1          RSB      r6,r1,r1,LSL #3       ;1572
001d28  eb061101          ADD      r1,r6,r1,LSL #4       ;1572
001d2c  f04f0209          MOV      r2,#9                 ;1572
001d30  f8082021          STRB     r2,[r8,r1,LSL #2]     ;1572
001d34  eb080181          ADD      r1,r8,r1,LSL #2       ;1574
001d38  789a              LDRB     r2,[r3,#2]            ;1574  ; RXBUFF
001d3a  718a              STRB     r2,[r1,#6]            ;1574
001d3c  78da              LDRB     r2,[r3,#3]            ;1575  ; RXBUFF
001d3e  71ca              STRB     r2,[r1,#7]            ;1575
001d40  791a              LDRB     r2,[r3,#4]            ;1576  ; RXBUFF
001d42  720a              STRB     r2,[r1,#8]            ;1576
001d44  795a              LDRB     r2,[r3,#5]            ;1577  ; RXBUFF
001d46  724a              STRB     r2,[r1,#9]            ;1577
001d48  799a              LDRB     r2,[r3,#6]            ;1578  ; RXBUFF
001d4a  728a              STRB     r2,[r1,#0xa]          ;1578
001d4c  79da              LDRB     r2,[r3,#7]            ;1579  ; RXBUFF
001d4e  72ca              STRB     r2,[r1,#0xb]          ;1579
001d50  70cc              STRB     r4,[r1,#3]            ;1591
001d52  f8817038          STRB     r7,[r1,#0x38]         ;1592
001d56  70ac              STRB     r4,[r5,#2]            ;1595
001d58  f8ac4000          STRH     r4,[r12,#0]
                  |L1.7516|
;;;1597      	}
;;;1598   
;;;1599   if((RXBUFF[1]==PUTTM_IBATMETER)&&(RXBUFF[0]==PUTTM_IBATMETER))
;;;1600    	{
;;;1601   	ibat_metr_buff_[0]=((signed long)RXBUFF[2])+(((signed long)RXBUFF[3])<<8);
;;;1602   	ibat_metr_buff_[1]=((signed long)RXBUFF[4])+(((signed long)RXBUFF[5])<<8);
;;;1603   	bIBAT_SMKLBR=((signed short)RXBUFF[6])+(((signed short)RXBUFF[7])<<8);
;;;1604   	if(bIBAT_SMKLBR) bIBAT_SMKLBR_cnt=50;
001d5c  2632              MOVS     r6,#0x32
001d5e  28d1              CMP      r0,#0xd1              ;1599
001d60  d17e              BNE      |L1.7776|
001d62  7819              LDRB     r1,[r3,#0]            ;1599  ; RXBUFF
001d64  29d1              CMP      r1,#0xd1              ;1599
001d66  d17b              BNE      |L1.7776|
001d68  789a              LDRB     r2,[r3,#2]            ;1601  ; RXBUFF
001d6a  78d9              LDRB     r1,[r3,#3]            ;1601  ; RXBUFF
001d6c  f8df9088          LDR      r9,|L1.7672|
001d70  eb022101          ADD      r1,r2,r1,LSL #8       ;1601
001d74  f8c91000          STR      r1,[r9,#0]            ;1601  ; ibat_metr_buff_
001d78  791a              LDRB     r2,[r3,#4]            ;1602  ; RXBUFF
001d7a  e03f              B        |L1.7676|
                  |L1.7548|
                          DCD      net_in_u2_a
                  |L1.7552|
                          DCD      net_in_u2_b
                  |L1.7556|
                          DCD      net_in_u2_c
                  |L1.7560|
                          DCD      net_in_i2_a
                  |L1.7564|
                          DCD      net_in_i2_b
                  |L1.7568|
                          DCD      net_in_i2_c
                  |L1.7572|
                          DCD      net_in_p2_a
                  |L1.7576|
                          DCD      net_in_p2_b
                  |L1.7580|
                          DCD      net_in_p2_c
                  |L1.7584|
                          DCD      net_in_s2_a
                  |L1.7588|
                          DCD      net_in_s2_b
                  |L1.7592|
                          DCD      net_in_s2_c
                  |L1.7596|
                          DCD      net_in_f1
                  |L1.7600|
                          DCD      net_in_f2
                  |L1.7604|
                          DCD      priority_net_in
                  |L1.7608|
                          DCD      hysteresis_net_in
                  |L1.7612|
                          DCD      u_min_net_in
                  |L1.7616|
                          DCD      u_max_net_in
                  |L1.7620|
                          DCD      i_min_net_in
                  |L1.7624|
                          DCD      t_inclusion_net_in
                  |L1.7628|
                          DCD      t_shutdown_net_in
                  |L1.7632|
                          DCD      ||.bss||+0x124
                  |L1.7636|
                          DCD      a_ind
                  |L1.7640|
                          DCD      ||.data||
                  |L1.7644|
                          DCD      uavt_bps_pntr
                  |L1.7648|
                          DCD      uavt_set_stat
                  |L1.7652|
                          DCD      bps
                  |L1.7656|
                          DCD      NUMINV
                  |L1.7660|
                          DCD      plazma_can_inv
                  |L1.7664|
                          DCD      byps
                  |L1.7668|
                          DCD      ibat_metr_cnt
                  |L1.7672|
                          DCD      ibat_metr_buff_
                  |L1.7676|
001dfc  f893a005          LDRB     r10,[r3,#5]           ;1602  ; RXBUFF
001e00  eb02220a          ADD      r2,r2,r10,LSL #8      ;1602
001e04  f8c92004          STR      r2,[r9,#4]            ;1602  ; ibat_metr_buff_
001e08  f8939006          LDRB     r9,[r3,#6]            ;1603  ; RXBUFF
001e0c  f893a007          LDRB     r10,[r3,#7]           ;1603  ; RXBUFF
001e10  eb09290a          ADD      r9,r9,r10,LSL #8      ;1603
001e14  fa0ffa89          SXTH     r10,r9                ;1603
001e18  f8df9408          LDR      r9,|L1.8740|
001e1c  f8a9a000          STRH     r10,[r9,#0]           ;1603
001e20  f8df9404          LDR      r9,|L1.8744|
001e24  f1ba0f00          CMP      r10,#0
001e28  d001              BEQ      |L1.7726|
001e2a  f8a96000          STRH     r6,[r9,#0]
                  |L1.7726|
;;;1605   	if(!bIBAT_SMKLBR)
001e2e  d13d              BNE      |L1.7852|
;;;1606   		{
;;;1607   		signed long temp_SL;
;;;1608   		temp_SL=(signed long)ibat_metr_buff_[0];
;;;1609   		temp_SL-=(signed long)ibat_metr_buff_[1];
001e30  eba10102          SUB      r1,r1,r2
;;;1610   		temp_SL*=(signed long)Kibat1[0];
001e34  4afd              LDR      r2,|L1.8748|
001e36  f9b22000          LDRSH    r2,[r2,#0]  ; Kibat1
001e3a  fb02f201          MUL      r2,r2,r1
;;;1611   		if((AUSW_MAIN==22010)||(AUSW_MAIN==22011)||(AUSW_MAIN==22035)||(AUSW_MAIN==22033)||(AUSW_MAIN==22063)||(AUSW_MAIN==22023)||(AUSW_MAIN==22043)||(AUSW_MAIN==22044))temp_SL/=2000L;
001e3e  49fc              LDR      r1,|L1.8752|
001e40  8809              LDRH     r1,[r1,#0]  ; AUSW_MAIN
001e42  f5a14aa8          SUB      r10,r1,#0x5400
001e46  f5ba7afd          SUBS     r10,r10,#0x1fa
001e4a  d016              BEQ      |L1.7802|
001e4c  f1ba0a01          SUBS     r10,r10,#1
001e50  d013              BEQ      |L1.7802|
001e52  f1ba0a18          SUBS     r10,r10,#0x18
001e56  d010              BEQ      |L1.7802|
001e58  f11a0a02          ADDS     r10,r10,#2
001e5c  d00d              BEQ      |L1.7802|
001e5e  e000              B        |L1.7778|
                  |L1.7776|
001e60  e026              B        |L1.7856|
                  |L1.7778|
001e62  f1ba0a1e          SUBS     r10,r10,#0x1e
001e66  d008              BEQ      |L1.7802|
001e68  f11a0a28          ADDS     r10,r10,#0x28
001e6c  d005              BEQ      |L1.7802|
001e6e  f1ba0a14          SUBS     r10,r10,#0x14
001e72  d002              BEQ      |L1.7802|
001e74  f1ba0a01          SUBS     r10,r10,#1
001e78  d103              BNE      |L1.7810|
                  |L1.7802|
001e7a  f44f61fa          MOV      r1,#0x7d0
001e7e  fb92f2f1          SDIV     r2,r2,r1
                  |L1.7810|
;;;1612   	
;;;1613   		Ib_ips_termokompensat =(signed short)temp_SL;
001e82  f8dfa3b0          LDR      r10,|L1.8756|
001e86  b212              SXTH     r2,r2
001e88  f8aa2000          STRH     r2,[r10,#0]
;;;1614   		if(bIBAT_SMKLBR_cnt)
001e8c  f9b91000          LDRSH    r1,[r9,#0]  ; bIBAT_SMKLBR_cnt
;;;1615   			{
;;;1616   			bIBAT_SMKLBR_cnt--;
;;;1617   			Ib_ips_termokompensat=Ib_ips_termokompensat_temp;
001e90  f8dfe3a4          LDR      lr,|L1.8760|
001e94  b141              CBZ      r1,|L1.7848|
001e96  f1a10101          SUB      r1,r1,#1              ;1616
001e9a  f8a91000          STRH     r1,[r9,#0]            ;1616
001e9e  f8be1000          LDRH     r1,[lr,#0]  ; Ib_ips_termokompensat_temp
001ea2  f8aa1000          STRH     r1,[r10,#0]
001ea6  e001              B        |L1.7852|
                  |L1.7848|
;;;1618   			}
;;;1619   		else 
;;;1620   			{
;;;1621   			Ib_ips_termokompensat_temp=Ib_ips_termokompensat;
001ea8  f8ae2000          STRH     r2,[lr,#0]
                  |L1.7852|
;;;1622   			}
;;;1623   		}
;;;1624   	ibat_metr_cnt=0;
001eac  f8ac4000          STRH     r4,[r12,#0]
                  |L1.7856|
;;;1625      	}
;;;1626   
;;;1627   if((RXBUFF[1]==PUTTM_NET)&&((RXBUFF[0]&0x1f)>=0)&&((RXBUFF[0]&0x1f)<12))
001eb0  28ea              CMP      r0,#0xea
001eb2  d11e              BNE      |L1.7922|
001eb4  7819              LDRB     r1,[r3,#0]  ; RXBUFF
001eb6  f001011f          AND      r1,r1,#0x1f
001eba  290c              CMP      r1,#0xc
001ebc  d219              BCS      |L1.7922|
;;;1628    	{
;;;1629       slave_num=RXBUFF[0]&0x1f;  
;;;1630   
;;;1631       bps[slave_num]._device=dNET_METR;
001ebe  ebc10cc1          RSB      r12,r1,r1,LSL #3
001ec2  eb0c1101          ADD      r1,r12,r1,LSL #4
001ec6  f04f0207          MOV      r2,#7
001eca  f8082021          STRB     r2,[r8,r1,LSL #2]
;;;1632            
;;;1633   	bps[slave_num]._buff[0]=RXBUFF[2]; 
001ece  eb080181          ADD      r1,r8,r1,LSL #2
001ed2  789a              LDRB     r2,[r3,#2]  ; RXBUFF
001ed4  718a              STRB     r2,[r1,#6]
;;;1634   	bps[slave_num]._buff[1]=RXBUFF[3];
001ed6  78da              LDRB     r2,[r3,#3]  ; RXBUFF
001ed8  71ca              STRB     r2,[r1,#7]
;;;1635   	bps[slave_num]._buff[2]=RXBUFF[4];
001eda  791a              LDRB     r2,[r3,#4]  ; RXBUFF
001edc  720a              STRB     r2,[r1,#8]
;;;1636   	bps[slave_num]._buff[3]=RXBUFF[5];
001ede  795a              LDRB     r2,[r3,#5]  ; RXBUFF
001ee0  724a              STRB     r2,[r1,#9]
;;;1637   	bps[slave_num]._buff[4]=RXBUFF[6];
001ee2  799a              LDRB     r2,[r3,#6]  ; RXBUFF
001ee4  728a              STRB     r2,[r1,#0xa]
;;;1638   	bps[slave_num]._buff[5]=RXBUFF[7];	
001ee6  79da              LDRB     r2,[r3,#7]  ; RXBUFF
001ee8  72ca              STRB     r2,[r1,#0xb]
;;;1639   
;;;1640   
;;;1641   /*	can_slot[slave_num,8]=RXBUFF[0];
;;;1642   	can_slot[slave_num,9]=RXBUFF[1];
;;;1643   	can_slot[slave_num,10]=RXBUFF[2];
;;;1644   	can_slot[slave_num,11]=RXBUFF[3];
;;;1645   	can_slot[slave_num,12]=RXBUFF[4];
;;;1646   	can_slot[slave_num,13]=RXBUFF[5];
;;;1647   	can_slot[slave_num,14]=RXBUFF[6];
;;;1648   	can_slot[slave_num,15]=RXBUFF[7]; */
;;;1649   	
;;;1650   	bps[slave_num]._cnt=0;
001eea  70cc              STRB     r4,[r1,#3]
;;;1651   	bps[slave_num]._is_on_cnt=10; 
001eec  f8817038          STRB     r7,[r1,#0x38]
;;;1652   
;;;1653      	//if((src[slave_num]._cnt==0)&&(src[slave_num]._av_net)) avar_s_hndl(slave_num,3,0); 
;;;1654   	can_reset_cnt=0;
001ef0  70ac              STRB     r4,[r5,#2]
                  |L1.7922|
;;;1655      	}
;;;1656   
;;;1657   
;;;1658   if((RXBUFF[1]==PUTTM_NET1)&&((RXBUFF[0]&0x1f)>=0)&&((RXBUFF[0]&0x1f)<12))
001ef2  28eb              CMP      r0,#0xeb
001ef4  d116              BNE      |L1.7972|
001ef6  7819              LDRB     r1,[r3,#0]  ; RXBUFF
001ef8  f001011f          AND      r1,r1,#0x1f
001efc  290c              CMP      r1,#0xc
001efe  d211              BCS      |L1.7972|
;;;1659    	{
;;;1660       slave_num=RXBUFF[0]&0x1f;  
;;;1661   
;;;1662       bps[slave_num]._device=dNET_METR;
001f00  ebc10cc1          RSB      r12,r1,r1,LSL #3
001f04  eb0c1101          ADD      r1,r12,r1,LSL #4
001f08  f04f0207          MOV      r2,#7
001f0c  f8082021          STRB     r2,[r8,r1,LSL #2]
;;;1663            
;;;1664   	bps[slave_num]._buff[6]=RXBUFF[2]; 
001f10  eb080181          ADD      r1,r8,r1,LSL #2
001f14  789a              LDRB     r2,[r3,#2]  ; RXBUFF
001f16  730a              STRB     r2,[r1,#0xc]
;;;1665   	bps[slave_num]._buff[7]=RXBUFF[3];
001f18  78da              LDRB     r2,[r3,#3]  ; RXBUFF
001f1a  734a              STRB     r2,[r1,#0xd]
;;;1666   	
;;;1667   	//net_F= RXBUFF[2]+ (RXBUFF[3]*256);
;;;1668   
;;;1669   	bps[slave_num]._cnt=0;
001f1c  70cc              STRB     r4,[r1,#3]
;;;1670   	bps[slave_num]._is_on_cnt=10; 
001f1e  f8817038          STRB     r7,[r1,#0x38]
;;;1671   
;;;1672      	//if((src[slave_num]._cnt==0)&&(src[slave_num]._av_net)) avar_s_hndl(slave_num,3,0); 
;;;1673   	can_reset_cnt=0;
001f22  70ac              STRB     r4,[r5,#2]
                  |L1.7972|
;;;1674      	}
;;;1675   
;;;1676   if( (RXBUFF[0]==MEM_KF)&&(RXBUFF[1]==1)&&(RXBUFF[2]==1))
001f24  781a              LDRB     r2,[r3,#0]  ; RXBUFF
001f26  2a62              CMP      r2,#0x62
001f28  d111              BNE      |L1.8014|
001f2a  2801              CMP      r0,#1
001f2c  d10f              BNE      |L1.8014|
001f2e  7899              LDRB     r1,[r3,#2]  ; RXBUFF
001f30  2901              CMP      r1,#1
001f32  d10c              BNE      |L1.8014|
;;;1677        {
;;;1678        power_summary_tempo=*((signed short*)&RXBUFF[3]);
001f34  f8dfc304          LDR      r12,|L1.8764|
001f38  f9b31003          LDRSH    r1,[r3,#3]  ; RXBUFF
001f3c  f8cc1000          STR      r1,[r12,#0]  ; power_summary_tempo
;;;1679        power_current_tempo=*((signed short*)&RXBUFF[5]);
001f40  f8dfc2fc          LDR      r12,|L1.8768|
001f44  f8b31005          LDRH     r1,[r3,#5]  ; RXBUFF
001f48  f8ac1000          STRH     r1,[r12,#0]
;;;1680   	//ext_can_cnt++;
;;;1681   	can_reset_cnt=0;
001f4c  70ac              STRB     r4,[r5,#2]
                  |L1.8014|
;;;1682        }
;;;1683   
;;;1684   
;;;1685   if( ((RXBUFF[0]&0x1f)==8)&&((RXBUFF[1])==PUTTM) )
001f4e  f002011f          AND      r1,r2,#0x1f
001f52  2908              CMP      r1,#8
001f54  d123              BNE      |L1.8094|
001f56  28de              CMP      r0,#0xde
001f58  d121              BNE      |L1.8094|
;;;1686        {
;;;1687        adc_buff_ext_[0]=*((short*)&RXBUFF[2]);
001f5a  f8df82e8          LDR      r8,|L1.8772|
001f5e  f8b3c002          LDRH     r12,[r3,#2]  ; RXBUFF
001f62  f8a8c000          STRH     r12,[r8,#0]
;;;1688        adc_buff_ext_[1]=*((short*)&RXBUFF[4]);
001f66  f8b3c004          LDRH     r12,[r3,#4]  ; RXBUFF
001f6a  f8a8c002          STRH     r12,[r8,#2]
;;;1689        adc_buff_ext_[2]=*((short*)&RXBUFF[6]);
001f6e  f8b3c006          LDRH     r12,[r3,#6]  ; RXBUFF
001f72  f8a8c004          STRH     r12,[r8,#4]
;;;1690   	if((adc_buff_ext_[2]>=-50) && (adc_buff_ext_[2]<=100))
001f76  f10c0c32          ADD      r12,r12,#0x32
;;;1691   		{
;;;1692   		t_ext_can=adc_buff_ext_[2];
001f7a  f8df92cc          LDR      r9,|L1.8776|
001f7e  f1bc0f96          CMP      r12,#0x96             ;1690
001f82  d807              BHI      |L1.8084|
001f84  f8b8c004          LDRH     r12,[r8,#4]  ; adc_buff_ext_
001f88  f8a9c000          STRH     r12,[r9,#0]
;;;1693   		t_ext_can_nd=0;
001f8c  f8dfc2bc          LDR      r12,|L1.8780|
001f90  f88c4000          STRB     r4,[r12,#0]
                  |L1.8084|
;;;1694   		}
;;;1695   		t_ext_can=adc_buff_ext_[2];
001f94  f8b8c004          LDRH     r12,[r8,#4]  ; adc_buff_ext_
001f98  f8a9c000          STRH     r12,[r9,#0]
;;;1696   	//ext_can_cnt++;
;;;1697   	can_reset_cnt=0;
001f9c  70ac              STRB     r4,[r5,#2]
                  |L1.8094|
;;;1698        }
;;;1699   
;;;1700   if( ((RXBUFF[0]&0x1f)==9)&&((RXBUFF[1])==PUTTM) )
001f9e  2909              CMP      r1,#9
001fa0  d115              BNE      |L1.8142|
001fa2  28de              CMP      r0,#0xde
001fa4  d113              BNE      |L1.8142|
;;;1701        {
;;;1702        vvod_pos=RXBUFF[2];
001fa6  f8df82a8          LDR      r8,|L1.8784|
001faa  f893c002          LDRB     r12,[r3,#2]  ; RXBUFF
001fae  f8a8c000          STRH     r12,[r8,#0]
;;;1703   	ext_can_cnt=RXBUFF[3];
001fb2  f8df82a0          LDR      r8,|L1.8788|
001fb6  f893c003          LDRB     r12,[r3,#3]  ; RXBUFF
001fba  f888c000          STRB     r12,[r8,#0]
;;;1704   	if(ext_can_cnt<10)bRESET_EXT=0;
001fbe  f1bc0f0a          CMP      r12,#0xa
001fc2  d203              BCS      |L1.8140|
001fc4  f8dfc290          LDR      r12,|L1.8792|
001fc8  f88c4000          STRB     r4,[r12,#0]
                  |L1.8140|
;;;1705   	can_reset_cnt=0;
001fcc  70ac              STRB     r4,[r5,#2]
                  |L1.8142|
;;;1706        }
;;;1707   
;;;1708   if( ((RXBUFF[0]&0x1f)==10)&&((RXBUFF[1])==PUTTM) )
;;;1709        {
;;;1710        power_current=*((signed short*)&RXBUFF[2]);
001fce  f8df928c          LDR      r9,|L1.8796|
;;;1711        power_summary=*((signed long*)&RXBUFF[4]);
001fd2  f8dfa28c          LDR      r10,|L1.8800|
001fd6  290a              CMP      r1,#0xa               ;1708
001fd8  d10a              BNE      |L1.8176|
001fda  28de              CMP      r0,#0xde              ;1708
001fdc  d108              BNE      |L1.8176|
001fde  f8b3c002          LDRH     r12,[r3,#2]           ;1710  ; RXBUFF
001fe2  f8a9c000          STRH     r12,[r9,#0]           ;1710
001fe6  f8d3c004          LDR      r12,[r3,#4]  ; RXBUFF
001fea  f8cac000          STR      r12,[r10,#0]  ; power_summary
;;;1712   	//ext_can_cnt++;
;;;1713   	can_reset_cnt=0;
001fee  70ac              STRB     r4,[r5,#2]
                  |L1.8176|
;;;1714        }
;;;1715   
;;;1716   
;;;1717   if( ((RXBUFF[0]&0x1f)==20)&&((RXBUFF[1])==PUTTM) )
;;;1718        {
;;;1719        eb2_data[0]=RXBUFF[2];
001ff0  f8dfc270          LDR      r12,|L1.8804|
001ff4  2914              CMP      r1,#0x14              ;1717
001ff6  d122              BNE      |L1.8254|
001ff8  28de              CMP      r0,#0xde              ;1717
001ffa  d120              BNE      |L1.8254|
001ffc  f8938002          LDRB     r8,[r3,#2]  ; RXBUFF
002000  f88c8000          STRB     r8,[r12,#0]
;;;1720   	eb2_data[1]=RXBUFF[3];
002004  f8938003          LDRB     r8,[r3,#3]  ; RXBUFF
002008  f88c8001          STRB     r8,[r12,#1]
;;;1721        eb2_data[2]=RXBUFF[4];
00200c  f8938004          LDRB     r8,[r3,#4]  ; RXBUFF
002010  f88c8002          STRB     r8,[r12,#2]
;;;1722   	eb2_data[3]=RXBUFF[5];
002014  f8938005          LDRB     r8,[r3,#5]  ; RXBUFF
002018  f88c8003          STRB     r8,[r12,#3]
;;;1723   	eb2_data[4]=RXBUFF[6];
00201c  f8938006          LDRB     r8,[r3,#6]  ; RXBUFF
002020  f88c8004          STRB     r8,[r12,#4]
;;;1724   	eb2_data[5]=RXBUFF[7];
002024  f8938007          LDRB     r8,[r3,#7]  ; RXBUFF
002028  f88c8005          STRB     r8,[r12,#5]
;;;1725        power_current=*((signed short*)&RXBUFF[2]);
00202c  f8b38002          LDRH     r8,[r3,#2]  ; RXBUFF
002030  f8a98000          STRH     r8,[r9,#0]
;;;1726        power_summary=*((signed long*)&RXBUFF[4]);
002034  f8d38004          LDR      r8,[r3,#4]  ; RXBUFF
002038  f8ca8000          STR      r8,[r10,#0]  ; power_summary
;;;1727   
;;;1728   	 can_reset_cnt=0;
00203c  70ac              STRB     r4,[r5,#2]
                  |L1.8254|
;;;1729        }
;;;1730   
;;;1731   if( ((RXBUFF[0]&0x1f)==21)&&((RXBUFF[1])==PUTTM) )
;;;1732        {
;;;1733        eb2_data[6]=RXBUFF[2];
;;;1734   	eb2_data[7]=RXBUFF[3];
;;;1735        eb2_data[8]=RXBUFF[4];
;;;1736   	eb2_data[9]=RXBUFF[5];
;;;1737   	eb2_data[10]=RXBUFF[6];
;;;1738   	eb2_data[11]=RXBUFF[7];
;;;1739   	eb2_data_short[6]=*((short*)&eb2_data[6]);
00203e  f8df8228          LDR      r8,|L1.8808|
002042  2915              CMP      r1,#0x15              ;1731
002044  d11e              BNE      |L1.8324|
002046  28de              CMP      r0,#0xde              ;1731
002048  d11c              BNE      |L1.8324|
00204a  f8939002          LDRB     r9,[r3,#2]            ;1733  ; RXBUFF
00204e  f88c9006          STRB     r9,[r12,#6]           ;1733
002052  f8939003          LDRB     r9,[r3,#3]            ;1734  ; RXBUFF
002056  f88c9007          STRB     r9,[r12,#7]           ;1734
00205a  f8939004          LDRB     r9,[r3,#4]            ;1735  ; RXBUFF
00205e  f88c9008          STRB     r9,[r12,#8]           ;1735
002062  f8939005          LDRB     r9,[r3,#5]            ;1736  ; RXBUFF
002066  f88c9009          STRB     r9,[r12,#9]           ;1736
00206a  f8939006          LDRB     r9,[r3,#6]            ;1737  ; RXBUFF
00206e  f88c900a          STRB     r9,[r12,#0xa]         ;1737
002072  f8939007          LDRB     r9,[r3,#7]            ;1738  ; RXBUFF
002076  f88c900b          STRB     r9,[r12,#0xb]         ;1738
00207a  f8bc9006          LDRH     r9,[r12,#6]  ; eb2_data
00207e  f8a8900c          STRH     r9,[r8,#0xc]
;;;1740   
;;;1741   	can_reset_cnt=0;
002082  70ac              STRB     r4,[r5,#2]
                  |L1.8324|
;;;1742        }
;;;1743   
;;;1744   if( ((RXBUFF[0]&0x1f)==22)&&((RXBUFF[1])==PUTTM) )
002084  2916              CMP      r1,#0x16
002086  d126              BNE      |L1.8406|
002088  28de              CMP      r0,#0xde
00208a  d124              BNE      |L1.8406|
;;;1745        {
;;;1746        eb2_data[12]=RXBUFF[2];
00208c  f8939002          LDRB     r9,[r3,#2]  ; RXBUFF
002090  f88c900c          STRB     r9,[r12,#0xc]
;;;1747   	eb2_data[13]=RXBUFF[3];
002094  f8939003          LDRB     r9,[r3,#3]  ; RXBUFF
002098  f88c900d          STRB     r9,[r12,#0xd]
;;;1748        eb2_data[14]=RXBUFF[4];
00209c  f8939004          LDRB     r9,[r3,#4]  ; RXBUFF
0020a0  f88c900e          STRB     r9,[r12,#0xe]
;;;1749   	eb2_data[15]=RXBUFF[5];
0020a4  f8939005          LDRB     r9,[r3,#5]  ; RXBUFF
0020a8  f88c900f          STRB     r9,[r12,#0xf]
;;;1750   	eb2_data[16]=RXBUFF[6];
0020ac  f8939006          LDRB     r9,[r3,#6]  ; RXBUFF
0020b0  f88c9010          STRB     r9,[r12,#0x10]
;;;1751   	eb2_data[17]=RXBUFF[7];
0020b4  f8939007          LDRB     r9,[r3,#7]  ; RXBUFF
0020b8  f88c9011          STRB     r9,[r12,#0x11]
;;;1752   	eb2_data_short[0]=*((short*)&eb2_data[12]);
0020bc  f8bc900c          LDRH     r9,[r12,#0xc]  ; eb2_data
0020c0  f8a89000          STRH     r9,[r8,#0]
;;;1753   	eb2_data_short[1]=*((short*)&eb2_data[14]);
0020c4  f8bc900e          LDRH     r9,[r12,#0xe]  ; eb2_data
0020c8  f8a89002          STRH     r9,[r8,#2]
;;;1754   	eb2_data_short[2]=*((short*)&eb2_data[16]);
0020cc  f8bc9010          LDRH     r9,[r12,#0x10]  ; eb2_data
0020d0  f8a89004          STRH     r9,[r8,#4]
;;;1755   
;;;1756   	can_reset_cnt=0;
0020d4  70ac              STRB     r4,[r5,#2]
                  |L1.8406|
;;;1757        }
;;;1758   
;;;1759   if( ((RXBUFF[0]&0x1f)==23)&&((RXBUFF[1])==PUTTM) )
0020d6  2917              CMP      r1,#0x17
0020d8  d120              BNE      |L1.8476|
0020da  28de              CMP      r0,#0xde
0020dc  d11e              BNE      |L1.8476|
;;;1760        {
;;;1761        eb2_data[18]=RXBUFF[2];
0020de  7899              LDRB     r1,[r3,#2]  ; RXBUFF
0020e0  f88c1012          STRB     r1,[r12,#0x12]
;;;1762   	eb2_data[19]=RXBUFF[3];
0020e4  78d9              LDRB     r1,[r3,#3]  ; RXBUFF
0020e6  f88c1013          STRB     r1,[r12,#0x13]
;;;1763        eb2_data[20]=RXBUFF[4];
0020ea  7919              LDRB     r1,[r3,#4]  ; RXBUFF
0020ec  f88c1014          STRB     r1,[r12,#0x14]
;;;1764   	eb2_data[21]=RXBUFF[5];
0020f0  7959              LDRB     r1,[r3,#5]  ; RXBUFF
0020f2  f88c1015          STRB     r1,[r12,#0x15]
;;;1765   	eb2_data[22]=RXBUFF[6];
0020f6  7999              LDRB     r1,[r3,#6]  ; RXBUFF
0020f8  f88c1016          STRB     r1,[r12,#0x16]
;;;1766   	eb2_data[23]=RXBUFF[7];
0020fc  79d9              LDRB     r1,[r3,#7]  ; RXBUFF
0020fe  f88c1017          STRB     r1,[r12,#0x17]
;;;1767   	eb2_data_short[3]=*((short*)&eb2_data[18]);
002102  f8bc1012          LDRH     r1,[r12,#0x12]  ; eb2_data
002106  f8a81006          STRH     r1,[r8,#6]
;;;1768   	eb2_data_short[4]=*((short*)&eb2_data[20]);
00210a  f8bc1014          LDRH     r1,[r12,#0x14]  ; eb2_data
00210e  f8a81008          STRH     r1,[r8,#8]
;;;1769   	eb2_data_short[5]=*((short*)&eb2_data[22]);
002112  f8bc1016          LDRH     r1,[r12,#0x16]  ; eb2_data
002116  f8a8100a          STRH     r1,[r8,#0xa]
;;;1770   
;;;1771   	can_reset_cnt=0;
00211a  70ac              STRB     r4,[r5,#2]
                  |L1.8476|
;;;1772        }
;;;1773   
;;;1774   if( (RXBUFF[1]==PUTTM_MAKB1)&&(RXBUFF[0]>=0)&&(RXBUFF[0]<=3))
;;;1775        {
;;;1776   	makb[RXBUFF[0]]._U[0]=*((short*)&RXBUFF[2]);
00211c  f8dfc14c          LDR      r12,|L1.8812|
002120  28e2              CMP      r0,#0xe2              ;1774
002122  d12e              BNE      |L1.8578|
002124  2a03              CMP      r2,#3                 ;1774
002126  d82c              BHI      |L1.8578|
002128  ebc201c2          RSB      r1,r2,r2,LSL #3
00212c  eb010141          ADD      r1,r1,r1,LSL #1
002130  f9b3a002          LDRSH    r10,[r3,#2]  ; RXBUFF
002134  f82ca011          STRH     r10,[r12,r1,LSL #1]
;;;1777   	makb[RXBUFF[0]]._U[1]=*((short*)&RXBUFF[4]);
002138  eb0c0141          ADD      r1,r12,r1,LSL #1
00213c  f9b38004          LDRSH    r8,[r3,#4]  ; RXBUFF
002140  f8a18002          STRH     r8,[r1,#2]
;;;1778   	makb[RXBUFF[0]]._U[2]=*((short*)&RXBUFF[6]);
002144  f9b39006          LDRSH    r9,[r3,#6]  ; RXBUFF
002148  f8a19004          STRH     r9,[r1,#4]
;;;1779   
;;;1780   	makb[RXBUFF[0]]._Ub[0]=makb[RXBUFF[0]]._U[0];
00214c  f8a1a00a          STRH     r10,[r1,#0xa]
;;;1781   	if(makb[RXBUFF[0]]._Ub[0]<0)makb[RXBUFF[0]]._Ub[0]=0;
002150  f1ba0f00          CMP      r10,#0
002154  da00              BGE      |L1.8536|
002156  814c              STRH     r4,[r1,#0xa]
                  |L1.8536|
;;;1782   	makb[RXBUFF[0]]._Ub[1]=makb[RXBUFF[0]]._U[1]-makb[RXBUFF[0]]._U[0];
002158  eba80a0a          SUB      r10,r8,r10
00215c  fa0ffa8a          SXTH     r10,r10
002160  f8a1a00c          STRH     r10,[r1,#0xc]
;;;1783   	if(makb[RXBUFF[0]]._Ub[1]<0)makb[RXBUFF[0]]._Ub[1]=0;
002164  f1ba0f00          CMP      r10,#0
002168  da00              BGE      |L1.8556|
00216a  818c              STRH     r4,[r1,#0xc]
                  |L1.8556|
;;;1784   	makb[RXBUFF[0]]._Ub[2]=makb[RXBUFF[0]]._U[2]-makb[RXBUFF[0]]._U[1];
00216c  eba90808          SUB      r8,r9,r8
002170  fa0ff888          SXTH     r8,r8
002174  f8a1800e          STRH     r8,[r1,#0xe]
;;;1785   	if(makb[RXBUFF[0]]._Ub[2]<0)makb[RXBUFF[0]]._Ub[2]=0;
002178  f1b80f00          CMP      r8,#0
00217c  da00              BGE      |L1.8576|
00217e  81cc              STRH     r4,[r1,#0xe]
                  |L1.8576|
;;;1786   
;;;1787   	makb[RXBUFF[0]]._cnt=0;
002180  850c              STRH     r4,[r1,#0x28]
                  |L1.8578|
;;;1788        }
;;;1789   
;;;1790   if( (RXBUFF[1]==PUTTM_MAKB2)&&(RXBUFF[0]>=0)&&(RXBUFF[0]<=3))
002182  28e3              CMP      r0,#0xe3
002184  d12e              BNE      |L1.8676|
002186  2a03              CMP      r2,#3
002188  d82c              BHI      |L1.8676|
;;;1791        {
;;;1792   	makb[RXBUFF[0]]._U[3]=*((short*)&RXBUFF[2]);
00218a  ebc201c2          RSB      r1,r2,r2,LSL #3
00218e  eb010141          ADD      r1,r1,r1,LSL #1
002192  eb0c0141          ADD      r1,r12,r1,LSL #1
002196  f9b38002          LDRSH    r8,[r3,#2]  ; RXBUFF
00219a  f8a18006          STRH     r8,[r1,#6]
;;;1793   	makb[RXBUFF[0]]._U[4]=*((short*)&RXBUFF[4]);
00219e  f9b39004          LDRSH    r9,[r3,#4]  ; RXBUFF
0021a2  f8a19008          STRH     r9,[r1,#8]
;;;1794   	makb[RXBUFF[0]]._T[0]=(signed short)(*((signed char*)&RXBUFF[6]));
0021a6  f993a006          LDRSB    r10,[r3,#6]  ; RXBUFF
0021aa  f8a1a014          STRH     r10,[r1,#0x14]
;;;1795   	makb[RXBUFF[0]]._T[1]=(signed short)(*((signed char*)&RXBUFF[7]));
0021ae  f993a007          LDRSB    r10,[r3,#7]  ; RXBUFF
0021b2  f8a1a016          STRH     r10,[r1,#0x16]
;;;1796   
;;;1797   	makb[RXBUFF[0]]._Ub[3]=makb[RXBUFF[0]]._U[3]-makb[RXBUFF[0]]._U[2];
0021b6  f8b1a004          LDRH     r10,[r1,#4]
0021ba  eba80a0a          SUB      r10,r8,r10
0021be  fa0ffa8a          SXTH     r10,r10
0021c2  f8a1a010          STRH     r10,[r1,#0x10]
;;;1798   	if(makb[RXBUFF[0]]._Ub[3]<0)makb[RXBUFF[0]]._Ub[3]=0;
0021c6  f1ba0f00          CMP      r10,#0
0021ca  da00              BGE      |L1.8654|
0021cc  820c              STRH     r4,[r1,#0x10]
                  |L1.8654|
;;;1799   	makb[RXBUFF[0]]._Ub[4]=makb[RXBUFF[0]]._U[4]-makb[RXBUFF[0]]._U[3];
0021ce  eba90808          SUB      r8,r9,r8
0021d2  fa0ff888          SXTH     r8,r8
0021d6  f8a18012          STRH     r8,[r1,#0x12]
;;;1800   	if(makb[RXBUFF[0]]._Ub[4]<0)makb[RXBUFF[0]]._Ub[4]=0;
0021da  f1b80f00          CMP      r8,#0
0021de  da00              BGE      |L1.8674|
0021e0  824c              STRH     r4,[r1,#0x12]
                  |L1.8674|
;;;1801   
;;;1802   	makb[RXBUFF[0]]._cnt=0;
0021e2  850c              STRH     r4,[r1,#0x28]
                  |L1.8676|
;;;1803        }
;;;1804   
;;;1805   if( (RXBUFF[1]==PUTTM_MAKB3)&&(RXBUFF[0]>=0)&&(RXBUFF[0]<=3))
0021e4  28e4              CMP      r0,#0xe4
0021e6  d169              BNE      |L1.8892|
0021e8  2a03              CMP      r2,#3
0021ea  d867              BHI      |L1.8892|
;;;1806        {
;;;1807   	makb[RXBUFF[0]]._T[2]=(signed short)(*((signed char*)&RXBUFF[2]));
0021ec  ebc201c2          RSB      r1,r2,r2,LSL #3
0021f0  eb010141          ADD      r1,r1,r1,LSL #1
0021f4  eb0c0141          ADD      r1,r12,r1,LSL #1
0021f8  f9938002          LDRSB    r8,[r3,#2]  ; RXBUFF
0021fc  f8a18018          STRH     r8,[r1,#0x18]
;;;1808   	makb[RXBUFF[0]]._T[3]=(signed short)(*((signed char*)&RXBUFF[3]));
002200  f993c003          LDRSB    r12,[r3,#3]  ; RXBUFF
002204  f8a1c01a          STRH     r12,[r1,#0x1a]
;;;1809   	makb[RXBUFF[0]]._T[4]=(signed short)(*((signed char*)&RXBUFF[4]));
002208  f993c004          LDRSB    r12,[r3,#4]  ; RXBUFF
00220c  f8a1c01c          STRH     r12,[r1,#0x1c]
;;;1810   
;;;1811   	if(RXBUFF[5]&0x01)makb[RXBUFF[0]]._T_nd[0]=1;
002210  f893c005          LDRB     r12,[r3,#5]  ; RXBUFF
002214  ea5f78cc          LSLS     r8,r12,#31
002218  d02a              BEQ      |L1.8816|
00221a  f04f0801          MOV      r8,#1
00221e  f8a1801e          STRH     r8,[r1,#0x1e]
002222  e026              B        |L1.8818|
                  |L1.8740|
                          DCD      bIBAT_SMKLBR
                  |L1.8744|
                          DCD      bIBAT_SMKLBR_cnt
                  |L1.8748|
                          DCD      Kibat1
                  |L1.8752|
                          DCD      AUSW_MAIN
                  |L1.8756|
                          DCD      Ib_ips_termokompensat
                  |L1.8760|
                          DCD      Ib_ips_termokompensat_temp
                  |L1.8764|
                          DCD      power_summary_tempo
                  |L1.8768|
                          DCD      power_current_tempo
                  |L1.8772|
                          DCD      adc_buff_ext_
                  |L1.8776|
                          DCD      t_ext_can
                  |L1.8780|
                          DCD      t_ext_can_nd
                  |L1.8784|
                          DCD      vvod_pos
                  |L1.8788|
                          DCD      ext_can_cnt
                  |L1.8792|
                          DCD      bRESET_EXT
                  |L1.8796|
                          DCD      power_current
                  |L1.8800|
                          DCD      power_summary
                  |L1.8804|
                          DCD      eb2_data
                  |L1.8808|
                          DCD      eb2_data_short
                  |L1.8812|
                          DCD      makb
                  |L1.8816|
;;;1812   	else makb[RXBUFF[0]]._T_nd[0]=0;
002270  83cc              STRH     r4,[r1,#0x1e]
                  |L1.8818|
;;;1813   	if(RXBUFF[5]&0x02)makb[RXBUFF[0]]._T_nd[1]=1;
002272  ea5f788c          LSLS     r8,r12,#30
002276  d504              BPL      |L1.8834|
002278  f04f0801          MOV      r8,#1
00227c  f8a18020          STRH     r8,[r1,#0x20]
002280  e000              B        |L1.8836|
                  |L1.8834|
;;;1814   	else makb[RXBUFF[0]]._T_nd[1]=0;
002282  840c              STRH     r4,[r1,#0x20]
                  |L1.8836|
;;;1815   	if(RXBUFF[5]&0x04)makb[RXBUFF[0]]._T_nd[2]=1;
002284  ea5f784c          LSLS     r8,r12,#29
002288  d504              BPL      |L1.8852|
00228a  f04f0801          MOV      r8,#1
00228e  f8a18022          STRH     r8,[r1,#0x22]
002292  e000              B        |L1.8854|
                  |L1.8852|
;;;1816   	else makb[RXBUFF[0]]._T_nd[2]=0;
002294  844c              STRH     r4,[r1,#0x22]
                  |L1.8854|
;;;1817   	if(RXBUFF[5]&0x08)makb[RXBUFF[0]]._T_nd[3]=1;
002296  ea5f780c          LSLS     r8,r12,#28
00229a  d504              BPL      |L1.8870|
00229c  f04f0801          MOV      r8,#1
0022a0  f8a18024          STRH     r8,[r1,#0x24]
0022a4  e000              B        |L1.8872|
                  |L1.8870|
;;;1818   	else makb[RXBUFF[0]]._T_nd[3]=0;
0022a6  848c              STRH     r4,[r1,#0x24]
                  |L1.8872|
;;;1819   	if(RXBUFF[5]&0x10)makb[RXBUFF[0]]._T_nd[4]=1;
0022a8  ea5f6ccc          LSLS     r12,r12,#27
0022ac  d504              BPL      |L1.8888|
0022ae  f04f0c01          MOV      r12,#1
0022b2  f8a1c026          STRH     r12,[r1,#0x26]
0022b6  e000              B        |L1.8890|
                  |L1.8888|
;;;1820   	else makb[RXBUFF[0]]._T_nd[4]=0;
0022b8  84cc              STRH     r4,[r1,#0x26]
                  |L1.8890|
;;;1821   
;;;1822   	makb[RXBUFF[0]]._cnt=0;
0022ba  850c              STRH     r4,[r1,#0x28]
                  |L1.8892|
;;;1823        }
;;;1824   
;;;1825   /*if(RXBUFF[0]==PUT_LB_TM1)
;;;1826        {
;;;1827   	lakb[0]._max_cell_volt=(unsigned short)(*((unsigned short*)&RXBUFF[1]));
;;;1828   	lakb[0]._min_cell_volt=(unsigned short)(*((unsigned short*)&RXBUFF[3]));
;;;1829   	lakb[0]._tot_bat_volt=(unsigned short)(*((unsigned short*)&RXBUFF[5]));
;;;1830   	lakb[0]._max_cell_temp=(unsigned short)RXBUFF[7];
;;;1831   	lakb[0]._cnt=0;
;;;1832   	lakb[0]._plazma[0]++;
;;;1833        }
;;;1834   if(RXBUFF[0]==PUT_LB_TM2)
;;;1835        {
;;;1836   	lakb[0]._ch_curr=(unsigned short)(*((unsigned short*)&RXBUFF[1]));
;;;1837   	lakb[0]._dsch_curr=(unsigned short)(*((unsigned short*)&RXBUFF[3]));
;;;1838   	lakb[0]._rat_cap=(unsigned short)(*((unsigned short*)&RXBUFF[5]));
;;;1839   	lakb[0]._min_cell_temp=(unsigned short)RXBUFF[7];
;;;1840   	lakb[0]._cnt=0;
;;;1841   	lakb[0]._plazma[1]++;
;;;1842        }
;;;1843   if(RXBUFF[0]==PUT_LB_TM3)
;;;1844        {
;;;1845   	lakb[0]._s_o_h=(unsigned short)RXBUFF[1];
;;;1846   	lakb[0]._s_o_c=(unsigned short)RXBUFF[2];
;;;1847   	lakb[0]._c_c_l_v=(unsigned short)(*((unsigned short*)&RXBUFF[3]));
;;;1848   	lakb[0]._r_b_t=(unsigned short)RXBUFF[5];
;;;1849   	lakb[0]._flags1=(unsigned short)RXBUFF[6];
;;;1850   	lakb[0]._flags2=(unsigned short)RXBUFF[7];
;;;1851   	lakb[0]._cnt=0;
;;;1852   	lakb[0]._plazma[2]++;
;;;1853        }
;;;1854   if(RXBUFF[0]==PUT_LB_TM4)
;;;1855        {
;;;1856   	lakb[0]._bRS485ERR=(unsigned short)RXBUFF[1];
;;;1857   	lakb[0]._rs485_cnt=(unsigned short)RXBUFF[2];
;;;1858   	lakb[0]._cnt=0;
;;;1859   	lakb[0]._plazma[3]++;
;;;1860        }*/
;;;1861   	
;;;1862   if((RXBUFF[1]&0xf8)==PUT_LB_TM1)
;;;1863        {
;;;1864   	char temp;
;;;1865   	temp=RXBUFF[1]&0x07;
;;;1866   	
;;;1867   	if(temp==0) //    
;;;1868   		{	
;;;1869   		lakb_damp[temp][0]=RXBUFF[0];
0022bc  f8df858c          LDR      r8,|L1.10316|
;;;1870   		mem_copy(&lakb_damp[temp][1],&RXBUFF[2],6);
;;;1871   	
;;;1872   		ccc_plazma[0]++;
0022c0  f8df958c          LDR      r9,|L1.10320|
;;;1873   		ccc_plazma[7]=temp;
;;;1874   		li_bat._canErrorCnt=0;
0022c4  f8dfa58c          LDR      r10,|L1.10324|
0022c8  ebbb0fd0          CMP      r11,r0,LSR #3         ;1862
0022cc  d11a              BNE      |L1.8964|
0022ce  f1a90182          SUB      r1,r9,#0x82           ;1865
0022d2  f0000007          AND      r0,r0,#7              ;1865
0022d6  b9a8              CBNZ     r0,|L1.8964|
0022d8  f8882000          STRB     r2,[r8,#0]            ;1869
0022dc  f1080001          ADD      r0,r8,#1              ;1869
0022e0  f04f0206          MOV      r2,#6                 ;1870
0022e4  f1010102          ADD      r1,r1,#2              ;1870
0022e8  f7fffffe          BL       mem_copy
0022ec  f8990000          LDRB     r0,[r9,#0]            ;1872  ; ccc_plazma
0022f0  f1000001          ADD      r0,r0,#1              ;1872
0022f4  f8890000          STRB     r0,[r9,#0]            ;1872
0022f8  f8894007          STRB     r4,[r9,#7]            ;1873
0022fc  f8aa4012          STRH     r4,[r10,#0x12]
;;;1875   		li_bat._canError=0;
002300  f88a4014          STRB     r4,[r10,#0x14]
                  |L1.8964|
;;;1876   		}
;;;1877   	}	
;;;1878   
;;;1879   if((RXBUFF[1]&0xf8)==PUT_LB_TM2)
002304  f8dfb548          LDR      r11,|L1.10320|
002308  210f              MOVS     r1,#0xf
00230a  f1ab0b82          SUB      r11,r11,#0x82
00230e  f89b0001          LDRB     r0,[r11,#1]  ; RXBUFF
002312  ebb10fd0          CMP      r1,r0,LSR #3
002316  d11a              BNE      |L1.9038|
;;;1880        {
;;;1881   	char temp;
;;;1882   	temp=RXBUFF[1]&0x07;
002318  4659              MOV      r1,r11
00231a  f0000007          AND      r0,r0,#7
;;;1883   	
;;;1884   	if(temp==0) //    
00231e  b9b0              CBNZ     r0,|L1.9038|
;;;1885   		{		
;;;1886   		lakb_damp[temp][7]=RXBUFF[0];
002320  f8112b02          LDRB     r2,[r1],#2  ; RXBUFF
002324  4640              MOV      r0,r8
002326  f8882007          STRB     r2,[r8,#7]
;;;1887   		mem_copy(&lakb_damp[temp][8],&RXBUFF[2],6);
00232a  f1000008          ADD      r0,r0,#8
00232e  f04f0206          MOV      r2,#6
002332  f7fffffe          BL       mem_copy
;;;1888   		
;;;1889   		ccc_plazma[1]++;
002336  f8990001          LDRB     r0,[r9,#1]  ; ccc_plazma
00233a  f1000001          ADD      r0,r0,#1
00233e  f8890001          STRB     r0,[r9,#1]
;;;1890   		ccc_plazma[8]=temp;
002342  f8894008          STRB     r4,[r9,#8]
;;;1891   		li_bat._canErrorCnt=0;
002346  f8aa4012          STRH     r4,[r10,#0x12]
;;;1892   		li_bat._canError=0;
00234a  f88a4014          STRB     r4,[r10,#0x14]
                  |L1.9038|
;;;1893   		}
;;;1894   	}
;;;1895   
;;;1896   if((RXBUFF[1]&0xf8)==PUT_LB_TM3)
00234e  f89b0001          LDRB     r0,[r11,#1]  ; RXBUFF
002352  2107              MOVS     r1,#7
002354  ebb10fd0          CMP      r1,r0,LSR #3
002358  d11a              BNE      |L1.9104|
;;;1897        {
;;;1898   	char temp;
;;;1899   	temp=RXBUFF[1]&0x07;
00235a  4659              MOV      r1,r11
00235c  f0000007          AND      r0,r0,#7
;;;1900   
;;;1901   	if(temp==0) //    
002360  b9b0              CBNZ     r0,|L1.9104|
;;;1902   		{
;;;1903   		lakb_damp[temp][14]=RXBUFF[0];
002362  f8112b02          LDRB     r2,[r1],#2  ; RXBUFF
002366  4640              MOV      r0,r8
002368  f888200e          STRB     r2,[r8,#0xe]
;;;1904   		mem_copy(&lakb_damp[temp][15],&RXBUFF[2],6);
00236c  f100000f          ADD      r0,r0,#0xf
002370  f04f0206          MOV      r2,#6
002374  f7fffffe          BL       mem_copy
;;;1905   		
;;;1906   		ccc_plazma[2]++;
002378  f8990002          LDRB     r0,[r9,#2]  ; ccc_plazma
00237c  f1000001          ADD      r0,r0,#1
002380  f8890002          STRB     r0,[r9,#2]
;;;1907   		ccc_plazma[9]=temp;
002384  f8894009          STRB     r4,[r9,#9]
;;;1908   		li_bat._canErrorCnt=0;
002388  f8aa4012          STRH     r4,[r10,#0x12]
;;;1909   		li_bat._canError=0;
00238c  f88a4014          STRB     r4,[r10,#0x14]
                  |L1.9104|
;;;1910   		}
;;;1911   	}	
;;;1912   
;;;1913   if((RXBUFF[1]&0xf8)==PUT_LB_TM4)
002390  f89b0001          LDRB     r0,[r11,#1]  ; RXBUFF
002394  2109              MOVS     r1,#9
002396  ebb10fd0          CMP      r1,r0,LSR #3
00239a  d11a              BNE      |L1.9170|
;;;1914        {
;;;1915   	char temp;
;;;1916   	temp=RXBUFF[1]&0x07;
00239c  4659              MOV      r1,r11
00239e  f0000007          AND      r0,r0,#7
;;;1917   	
;;;1918   	if(temp==0) //    
0023a2  b9b0              CBNZ     r0,|L1.9170|
;;;1919   		{
;;;1920   		lakb_damp[temp][21]=RXBUFF[0];
0023a4  f8112b02          LDRB     r2,[r1],#2  ; RXBUFF
0023a8  4640              MOV      r0,r8
0023aa  f8882015          STRB     r2,[r8,#0x15]
;;;1921   		mem_copy(&lakb_damp[temp][22],&RXBUFF[2],6);
0023ae  f1000016          ADD      r0,r0,#0x16
0023b2  f04f0206          MOV      r2,#6
0023b6  f7fffffe          BL       mem_copy
;;;1922   		
;;;1923   		ccc_plazma[3]++;
0023ba  f8990003          LDRB     r0,[r9,#3]  ; ccc_plazma
0023be  f1000001          ADD      r0,r0,#1
0023c2  f8890003          STRB     r0,[r9,#3]
;;;1924   		ccc_plazma[10]=temp;
0023c6  f889400a          STRB     r4,[r9,#0xa]
;;;1925   		li_bat._canErrorCnt=0;
0023ca  f8aa4012          STRH     r4,[r10,#0x12]
;;;1926   		li_bat._canError=0;
0023ce  f88a4014          STRB     r4,[r10,#0x14]
                  |L1.9170|
;;;1927   		}
;;;1928   	}
;;;1929   
;;;1930   if((RXBUFF[1]&0xf8)==PUT_LB_TM5)
0023d2  f89b0001          LDRB     r0,[r11,#1]  ; RXBUFF
0023d6  210b              MOVS     r1,#0xb
0023d8  ebb10fd0          CMP      r1,r0,LSR #3
0023dc  d11a              BNE      |L1.9236|
;;;1931        {
;;;1932   	char temp;
;;;1933   	temp=RXBUFF[1]&0x07;
0023de  4659              MOV      r1,r11
0023e0  f0000007          AND      r0,r0,#7
;;;1934   
;;;1935   	if(temp==0) //    
0023e4  b9b0              CBNZ     r0,|L1.9236|
;;;1936   		{		
;;;1937   		lakb_damp[temp][28]=RXBUFF[0];
0023e6  f8112b02          LDRB     r2,[r1],#2  ; RXBUFF
0023ea  4640              MOV      r0,r8
0023ec  f888201c          STRB     r2,[r8,#0x1c]
;;;1938   		mem_copy(&lakb_damp[temp][29],&RXBUFF[2],6);
0023f0  f100001d          ADD      r0,r0,#0x1d
0023f4  f04f0206          MOV      r2,#6
0023f8  f7fffffe          BL       mem_copy
;;;1939   
;;;1940   		ccc_plazma[4]++;
0023fc  f8990004          LDRB     r0,[r9,#4]  ; ccc_plazma
002400  f1000001          ADD      r0,r0,#1
002404  f8890004          STRB     r0,[r9,#4]
;;;1941   		ccc_plazma[11]=temp;
002408  f889400b          STRB     r4,[r9,#0xb]
;;;1942   		li_bat._canErrorCnt=0;
00240c  f8aa4012          STRH     r4,[r10,#0x12]
;;;1943   		li_bat._canError=0;
002410  f88a4014          STRB     r4,[r10,#0x14]
                  |L1.9236|
;;;1944   		}
;;;1945   	}
;;;1946   
;;;1947   if((RXBUFF[1]&0xf8)==PUT_LB_TM6)
002414  f89b0001          LDRB     r0,[r11,#1]  ; RXBUFF
002418  210d              MOVS     r1,#0xd
00241a  ebb10fd0          CMP      r1,r0,LSR #3
00241e  d11a              BNE      |L1.9302|
;;;1948        {
;;;1949   	char temp;
;;;1950   	temp=RXBUFF[1]&0x07;
002420  4659              MOV      r1,r11
002422  f0000007          AND      r0,r0,#7
;;;1951   		
;;;1952   	if(temp==0) //    
002426  b9b0              CBNZ     r0,|L1.9302|
;;;1953   		{
;;;1954   		lakb_damp[temp][35]=RXBUFF[0];
002428  f8112b02          LDRB     r2,[r1],#2  ; RXBUFF
00242c  4640              MOV      r0,r8
00242e  f8882023          STRB     r2,[r8,#0x23]
;;;1955   		mem_copy(&lakb_damp[temp][36],&RXBUFF[2],6);
002432  f1000024          ADD      r0,r0,#0x24
002436  f04f0206          MOV      r2,#6
00243a  f7fffffe          BL       mem_copy
;;;1956   		
;;;1957   		ccc_plazma[5]++;
00243e  f8990005          LDRB     r0,[r9,#5]  ; ccc_plazma
002442  f1000001          ADD      r0,r0,#1
002446  f8890005          STRB     r0,[r9,#5]
;;;1958   		ccc_plazma[12]=temp;
00244a  f889400c          STRB     r4,[r9,#0xc]
;;;1959   		li_bat._canErrorCnt=0;
00244e  f8aa4012          STRH     r4,[r10,#0x12]
;;;1960   		li_bat._canError=0;	
002452  f88a4014          STRB     r4,[r10,#0x14]
                  |L1.9302|
;;;1961   		}
;;;1962   	}
;;;1963   
;;;1964   
;;;1965   if(RXBUFF[1]==PUT_ZTT_TM1)
002456  f89b0001          LDRB     r0,[r11,#1]  ; RXBUFF
;;;1966       {
;;;1967   	lakb[0]._communication2lvlErrorCnt=(signed short)(*((signed char*)&RXBUFF[0]));
;;;1968   	lakb[0]._ch_curr=(signed short)(*((signed short*)&RXBUFF[2]));
;;;1969   	lakb[0]._tot_bat_volt=(signed short)(*((signed short*)&RXBUFF[4]));
;;;1970   	lakb[0]._cell_temp_1=(signed char)(RXBUFF[6]);
;;;1971   	lakb[0]._cell_temp_2=(signed char)(RXBUFF[7]);
;;;1972   	
;;;1973   	//lakb[0]._cell_temp_1=37;
;;;1974   	//lakb[0]._cell_temp_2=38;
;;;1975   	plazma_ztt[0]++;
00245a  f8dfc3fc          LDR      r12,|L1.10328|
00245e  49ff              LDR      r1,|L1.10332|
;;;1976   
;;;1977   	libat_comm_cnt=50;
002460  4aff              LDR      r2,|L1.10336|
002462  465b              MOV      r3,r11                ;1965
002464  28c1              CMP      r0,#0xc1              ;1965
002466  d11a              BNE      |L1.9374|
002468  f9938000          LDRSB    r8,[r3,#0]            ;1967  ; RXBUFF
00246c  f8a18020          STRH     r8,[r1,#0x20]         ;1967
002470  f8b38002          LDRH     r8,[r3,#2]            ;1968  ; RXBUFF
002474  f8a1800a          STRH     r8,[r1,#0xa]          ;1968
002478  f8b38004          LDRH     r8,[r3,#4]            ;1969  ; RXBUFF
00247c  f8a18008          STRH     r8,[r1,#8]            ;1969
002480  f8938006          LDRB     r8,[r3,#6]            ;1970  ; RXBUFF
002484  f881803a          STRB     r8,[r1,#0x3a]         ;1970
002488  f8938007          LDRB     r8,[r3,#7]            ;1971  ; RXBUFF
00248c  f881803b          STRB     r8,[r1,#0x3b]         ;1971
002490  f89c8000          LDRB     r8,[r12,#0]           ;1975  ; plazma_ztt
002494  f1080801          ADD      r8,r8,#1              ;1975
002498  f88c8000          STRB     r8,[r12,#0]           ;1975
00249c  8016              STRH     r6,[r2,#0]
                  |L1.9374|
;;;1978   
;;;1979   	}
;;;1980   
;;;1981   if(RXBUFF[1]==PUT_ZTT_TM2)
00249e  28c2              CMP      r0,#0xc2
0024a0  d11a              BNE      |L1.9432|
;;;1982       {
;;;1983   	lakb[0]._communication2lvlErrorStat=(signed short)(*((signed char*)&RXBUFF[0]));
0024a2  f9938000          LDRSB    r8,[r3,#0]  ; RXBUFF
0024a6  f8a1801e          STRH     r8,[r1,#0x1e]
;;;1984   	lakb[0]._s_o_c=(signed short)(*((signed short*)&RXBUFF[2]));
0024aa  f8b38002          LDRH     r8,[r3,#2]  ; RXBUFF
0024ae  f8a18012          STRH     r8,[r1,#0x12]
;;;1985   	lakb[0]._s_o_h=(signed short)(*((signed short*)&RXBUFF[4]));
0024b2  f8b38004          LDRH     r8,[r3,#4]  ; RXBUFF
0024b6  f8a18010          STRH     r8,[r1,#0x10]
;;;1986   	lakb[0]._cell_temp_3=(signed char)(RXBUFF[6]);
0024ba  f8938006          LDRB     r8,[r3,#6]  ; RXBUFF
0024be  f881803c          STRB     r8,[r1,#0x3c]
;;;1987   	lakb[0]._cell_temp_4=(signed char)(RXBUFF[7]);
0024c2  f8938007          LDRB     r8,[r3,#7]  ; RXBUFF
0024c6  f881803d          STRB     r8,[r1,#0x3d]
;;;1988   	//lakb[0]._cell_temp_3=39;
;;;1989   	//lakb[0]._cell_temp_4=40;
;;;1990   	
;;;1991   	plazma_ztt[1]++;
0024ca  f89c8001          LDRB     r8,[r12,#1]  ; plazma_ztt
0024ce  f1080801          ADD      r8,r8,#1
0024d2  f88c8001          STRB     r8,[r12,#1]
;;;1992   
;;;1993   	libat_comm_cnt=50;
0024d6  8016              STRH     r6,[r2,#0]
                  |L1.9432|
;;;1994   	}		
;;;1995   
;;;1996   if(RXBUFF[1]==PUT_ZTT_TM3)
0024d8  28c3              CMP      r0,#0xc3
0024da  d114              BNE      |L1.9478|
;;;1997       {
;;;1998   	lakb[1]._communication2lvlErrorCnt=(signed short)(*((signed char*)&RXBUFF[0]));
0024dc  f993c000          LDRSB    r12,[r3,#0]  ; RXBUFF
0024e0  f8a1c06c          STRH     r12,[r1,#0x6c]
;;;1999   	lakb[1]._ch_curr=(signed short)(*((signed short*)&RXBUFF[2]));
0024e4  f8b3c002          LDRH     r12,[r3,#2]  ; RXBUFF
0024e8  f8a1c056          STRH     r12,[r1,#0x56]
;;;2000   	lakb[1]._tot_bat_volt=(signed short)(*((signed short*)&RXBUFF[4]));
0024ec  f8b3c004          LDRH     r12,[r3,#4]  ; RXBUFF
0024f0  f8a1c054          STRH     r12,[r1,#0x54]
;;;2001   	lakb[1]._cell_temp_1=(signed char)(RXBUFF[6]);
0024f4  f893c006          LDRB     r12,[r3,#6]  ; RXBUFF
0024f8  f881c086          STRB     r12,[r1,#0x86]
;;;2002   	lakb[1]._cell_temp_2=(signed char)(RXBUFF[7]);
0024fc  f893c007          LDRB     r12,[r3,#7]  ; RXBUFF
002500  f881c087          STRB     r12,[r1,#0x87]
;;;2003   	
;;;2004   	libat_comm_cnt=50;
002504  8016              STRH     r6,[r2,#0]
                  |L1.9478|
;;;2005   	}
;;;2006   
;;;2007   if(RXBUFF[1]==PUT_ZTT_TM4)
002506  28c4              CMP      r0,#0xc4
002508  d114              BNE      |L1.9524|
;;;2008       {
;;;2009   	lakb[1]._communication2lvlErrorStat=(signed short)(*((signed char*)&RXBUFF[0]));
00250a  f993c000          LDRSB    r12,[r3,#0]  ; RXBUFF
00250e  f8a1c06a          STRH     r12,[r1,#0x6a]
;;;2010   	lakb[1]._s_o_c=(signed short)(*((signed short*)&RXBUFF[2]));
002512  f8b3c002          LDRH     r12,[r3,#2]  ; RXBUFF
002516  f8a1c05e          STRH     r12,[r1,#0x5e]
;;;2011   	lakb[1]._s_o_h=(signed short)(*((signed short*)&RXBUFF[4]));
00251a  f8b3c004          LDRH     r12,[r3,#4]  ; RXBUFF
00251e  f8a1c05c          STRH     r12,[r1,#0x5c]
;;;2012   	lakb[1]._cell_temp_3=(signed char)(RXBUFF[6]);
002522  f893c006          LDRB     r12,[r3,#6]  ; RXBUFF
002526  f881c088          STRB     r12,[r1,#0x88]
;;;2013   	lakb[1]._cell_temp_4=(signed char)(RXBUFF[7]);
00252a  f893c007          LDRB     r12,[r3,#7]  ; RXBUFF
00252e  f881c089          STRB     r12,[r1,#0x89]
;;;2014   	
;;;2015   	libat_comm_cnt=50;
002532  8016              STRH     r6,[r2,#0]
                  |L1.9524|
;;;2016   	}	
;;;2017   
;;;2018   if(RXBUFF[1]==PUT_ZTT_TM5)
002534  28c5              CMP      r0,#0xc5
002536  d114              BNE      |L1.9570|
;;;2019       {
;;;2020   	lakb[2]._communication2lvlErrorCnt=(signed short)(*((signed char*)&RXBUFF[0]));
002538  f993c000          LDRSB    r12,[r3,#0]  ; RXBUFF
00253c  f8a1c0b8          STRH     r12,[r1,#0xb8]
;;;2021   	lakb[2]._ch_curr=(signed short)(*((signed short*)&RXBUFF[2]));
002540  f8b3c002          LDRH     r12,[r3,#2]  ; RXBUFF
002544  f8a1c0a2          STRH     r12,[r1,#0xa2]
;;;2022   	lakb[2]._tot_bat_volt=(signed short)(*((signed short*)&RXBUFF[4]));
002548  f8b3c004          LDRH     r12,[r3,#4]  ; RXBUFF
00254c  f8a1c0a0          STRH     r12,[r1,#0xa0]
;;;2023   	lakb[2]._cell_temp_1=(signed char)(RXBUFF[6]);
002550  f893c006          LDRB     r12,[r3,#6]  ; RXBUFF
002554  f881c0d2          STRB     r12,[r1,#0xd2]
;;;2024   	lakb[2]._cell_temp_2=(signed char)(RXBUFF[7]);
002558  f893c007          LDRB     r12,[r3,#7]  ; RXBUFF
00255c  f881c0d3          STRB     r12,[r1,#0xd3]
;;;2025   	
;;;2026   	libat_comm_cnt=50;
002560  8016              STRH     r6,[r2,#0]
                  |L1.9570|
;;;2027   	}
;;;2028   
;;;2029   if(RXBUFF[1]==PUT_ZTT_TM6)
002562  28c6              CMP      r0,#0xc6
002564  d110              BNE      |L1.9608|
;;;2030       {
;;;2031   	lakb[2]._communication2lvlErrorStat=(signed short)(*((signed char*)&RXBUFF[0]));
002566  f993c000          LDRSB    r12,[r3,#0]  ; RXBUFF
00256a  f8a1c0b6          STRH     r12,[r1,#0xb6]
;;;2032   	lakb[2]._s_o_c=(signed short)(*((signed short*)&RXBUFF[2]));
00256e  f8b3c002          LDRH     r12,[r3,#2]  ; RXBUFF
002572  f8a1c0aa          STRH     r12,[r1,#0xaa]
;;;2033   	lakb[2]._s_o_h=(signed short)(*((signed short*)&RXBUFF[4]));
002576  f8b3c004          LDRH     r12,[r3,#4]  ; RXBUFF
00257a  f8a1c0a8          STRH     r12,[r1,#0xa8]
;;;2034   	lakb[2]._cell_temp_3=(signed char)(RXBUFF[6]);
;;;2035   	lakb[2]._cell_temp_3=(signed char)(RXBUFF[7]);
00257e  f893c007          LDRB     r12,[r3,#7]  ; RXBUFF
002582  f881c0d4          STRB     r12,[r1,#0xd4]
;;;2036   	
;;;2037   	libat_comm_cnt=50;	
002586  8016              STRH     r6,[r2,#0]
                  |L1.9608|
;;;2038   	}	
;;;2039   
;;;2040   if(RXBUFF[1]==PUT_ZTT_TM7)
002588  28c7              CMP      r0,#0xc7
00258a  d118              BNE      |L1.9662|
;;;2041       {
;;;2042   	lakb[0]._cell_temp_ambient=(signed char)(RXBUFF[0]);
00258c  f893c000          LDRB     r12,[r3,#0]  ; RXBUFF
002590  f881c03e          STRB     r12,[r1,#0x3e]
;;;2043   	lakb[0]._cell_temp_power=(signed char)(RXBUFF[2]);
002594  f893c002          LDRB     r12,[r3,#2]  ; RXBUFF
002598  f881c03f          STRB     r12,[r1,#0x3f]
;;;2044   	lakb[1]._cell_temp_ambient=(signed char)(RXBUFF[3]);
00259c  f893c003          LDRB     r12,[r3,#3]  ; RXBUFF
0025a0  f881c08a          STRB     r12,[r1,#0x8a]
;;;2045   	lakb[1]._cell_temp_power=(signed char)(RXBUFF[4]);
0025a4  f893c004          LDRB     r12,[r3,#4]  ; RXBUFF
0025a8  f881c08b          STRB     r12,[r1,#0x8b]
;;;2046   	lakb[2]._cell_temp_ambient=(signed char)(RXBUFF[5]);
0025ac  f893c005          LDRB     r12,[r3,#5]  ; RXBUFF
0025b0  f881c0d6          STRB     r12,[r1,#0xd6]
;;;2047   	lakb[2]._cell_temp_power=(signed char)(RXBUFF[6]);	
0025b4  f893c006          LDRB     r12,[r3,#6]  ; RXBUFF
0025b8  f881c0d7          STRB     r12,[r1,#0xd7]
;;;2048   	//lakb[0]._cell_temp_ambient=41;
;;;2049   	//lakb[0]._cell_temp_power=42;
;;;2050   
;;;2051   	libat_comm_cnt=50;
0025bc  8016              STRH     r6,[r2,#0]
                  |L1.9662|
;;;2052   	}	
;;;2053   
;;;2054   if(RXBUFF[1]==PUT_ZTT_TM8)
0025be  28c8              CMP      r0,#0xc8
0025c0  d17d              BNE      |L1.9918|
;;;2055       {
;;;2056   	if(RXBUFF[0]==0)
0025c2  f893c000          LDRB     r12,[r3,#0]  ; RXBUFF
0025c6  f1bc0f00          CMP      r12,#0
0025ca  d117              BNE      |L1.9724|
;;;2057   		{
;;;2058   		lakb[0]._charge_and_discharge_current_alarm_status=(signed char)(RXBUFF[2]);
0025cc  f8938002          LDRB     r8,[r3,#2]  ; RXBUFF
0025d0  f8818040          STRB     r8,[r1,#0x40]
;;;2059   		lakb[0]._battery_total_voltage_alarm_status=(signed char)(RXBUFF[3]);
0025d4  f8938003          LDRB     r8,[r3,#3]  ; RXBUFF
0025d8  f8818041          STRB     r8,[r1,#0x41]
;;;2060   		lakb[1]._charge_and_discharge_current_alarm_status=(signed char)(RXBUFF[4]);
0025dc  f8938004          LDRB     r8,[r3,#4]  ; RXBUFF
0025e0  f881808c          STRB     r8,[r1,#0x8c]
;;;2061   		lakb[1]._battery_total_voltage_alarm_status=(signed char)(RXBUFF[5]);
0025e4  f8938005          LDRB     r8,[r3,#5]  ; RXBUFF
0025e8  f881808d          STRB     r8,[r1,#0x8d]
;;;2062   		lakb[2]._charge_and_discharge_current_alarm_status=(signed char)(RXBUFF[6]);
0025ec  f8938006          LDRB     r8,[r3,#6]  ; RXBUFF
0025f0  f88180d8          STRB     r8,[r1,#0xd8]
;;;2063   		lakb[2]._battery_total_voltage_alarm_status=(signed char)(RXBUFF[7]);
0025f4  f8938007          LDRB     r8,[r3,#7]  ; RXBUFF
0025f8  f88180d9          STRB     r8,[r1,#0xd9]
                  |L1.9724|
;;;2064   		}
;;;2065   	if(RXBUFF[0]==1)
0025fc  f1bc0f01          CMP      r12,#1
002600  d117              BNE      |L1.9778|
;;;2066   		{
;;;2067   		lakb[0]._custom_alarm_quantity=(signed char)(RXBUFF[2]);
002602  f8938002          LDRB     r8,[r3,#2]  ; RXBUFF
002606  f8818042          STRB     r8,[r1,#0x42]
;;;2068   		lakb[0]._balanced_event_code=(signed char)(RXBUFF[3]);
00260a  f8938003          LDRB     r8,[r3,#3]  ; RXBUFF
00260e  f8818043          STRB     r8,[r1,#0x43]
;;;2069   		lakb[1]._custom_alarm_quantity=(signed char)(RXBUFF[4]);
002612  f8938004          LDRB     r8,[r3,#4]  ; RXBUFF
002616  f881808e          STRB     r8,[r1,#0x8e]
;;;2070   		lakb[1]._balanced_event_code=(signed char)(RXBUFF[5]);
00261a  f8938005          LDRB     r8,[r3,#5]  ; RXBUFF
00261e  f881808f          STRB     r8,[r1,#0x8f]
;;;2071   		lakb[2]._custom_alarm_quantity=(signed char)(RXBUFF[6]);
002622  f8938006          LDRB     r8,[r3,#6]  ; RXBUFF
002626  f88180da          STRB     r8,[r1,#0xda]
;;;2072   		lakb[2]._balanced_event_code=(signed char)(RXBUFF[7]);
00262a  f8938007          LDRB     r8,[r3,#7]  ; RXBUFF
00262e  f88180db          STRB     r8,[r1,#0xdb]
                  |L1.9778|
;;;2073   		}
;;;2074   	if(RXBUFF[0]==2)
002632  f1bc0f02          CMP      r12,#2
002636  d117              BNE      |L1.9832|
;;;2075   		{
;;;2076   		lakb[0]._voltage_event_code=(signed char)(RXBUFF[2]);
002638  f8938002          LDRB     r8,[r3,#2]  ; RXBUFF
00263c  f8818044          STRB     r8,[r1,#0x44]
;;;2077   		lakb[0]._temperature_event_code=(signed char)(RXBUFF[3]);
002640  f8938003          LDRB     r8,[r3,#3]  ; RXBUFF
002644  f8818045          STRB     r8,[r1,#0x45]
;;;2078   		lakb[1]._voltage_event_code=(signed char)(RXBUFF[4]);
002648  f8938004          LDRB     r8,[r3,#4]  ; RXBUFF
00264c  f8818090          STRB     r8,[r1,#0x90]
;;;2079   		lakb[1]._temperature_event_code=(signed char)(RXBUFF[5]);
002650  f8938005          LDRB     r8,[r3,#5]  ; RXBUFF
002654  f8818091          STRB     r8,[r1,#0x91]
;;;2080   		lakb[2]._voltage_event_code=(signed char)(RXBUFF[6]);
002658  f8938006          LDRB     r8,[r3,#6]  ; RXBUFF
00265c  f88180dc          STRB     r8,[r1,#0xdc]
;;;2081   		lakb[2]._temperature_event_code=(signed char)(RXBUFF[7]);
002660  f8938007          LDRB     r8,[r3,#7]  ; RXBUFF
002664  f88180dd          STRB     r8,[r1,#0xdd]
                  |L1.9832|
;;;2082   		}
;;;2083   	if(RXBUFF[0]==3)
002668  f1bc0f03          CMP      r12,#3
00266c  d117              BNE      |L1.9886|
;;;2084   		{
;;;2085   		lakb[0]._current_event_code=(signed char)(RXBUFF[2]);
00266e  f8938002          LDRB     r8,[r3,#2]  ; RXBUFF
002672  f8818046          STRB     r8,[r1,#0x46]
;;;2086   		lakb[0]._fet_status_code=(signed char)(RXBUFF[3]);
002676  f8938003          LDRB     r8,[r3,#3]  ; RXBUFF
00267a  f8818047          STRB     r8,[r1,#0x47]
;;;2087   		lakb[1]._current_event_code=(signed char)(RXBUFF[4]);
00267e  f8938004          LDRB     r8,[r3,#4]  ; RXBUFF
002682  f8818092          STRB     r8,[r1,#0x92]
;;;2088   		lakb[1]._fet_status_code=(signed char)(RXBUFF[5]);
002686  f8938005          LDRB     r8,[r3,#5]  ; RXBUFF
00268a  f8818093          STRB     r8,[r1,#0x93]
;;;2089   		lakb[2]._current_event_code=(signed char)(RXBUFF[6]);
00268e  f8938006          LDRB     r8,[r3,#6]  ; RXBUFF
002692  f88180de          STRB     r8,[r1,#0xde]
;;;2090   		lakb[2]._fet_status_code=(signed char)(RXBUFF[7]);
002696  f8938007          LDRB     r8,[r3,#7]  ; RXBUFF
00269a  f88180df          STRB     r8,[r1,#0xdf]
                  |L1.9886|
;;;2091   		}
;;;2092   	if(RXBUFF[0]==4)
00269e  f1bc0f04          CMP      r12,#4
0026a2  d119              BNE      |L1.9944|
;;;2093   		{
;;;2094   		lakb[0]._balanced_status_code=(signed short)(RXBUFF[2])+(((signed char)(RXBUFF[3]))<<8);
0026a4  f8938002          LDRB     r8,[r3,#2]  ; RXBUFF
0026a8  f8939003          LDRB     r9,[r3,#3]  ; RXBUFF
0026ac  eb082809          ADD      r8,r8,r9,LSL #8
0026b0  f8a18048          STRH     r8,[r1,#0x48]
;;;2095   		lakb[1]._balanced_status_code=(signed short)(RXBUFF[4])+(((signed char)(RXBUFF[5]))<<8);
0026b4  f8938004          LDRB     r8,[r3,#4]  ; RXBUFF
0026b8  f8939005          LDRB     r9,[r3,#5]  ; RXBUFF
0026bc  e000              B        |L1.9920|
                  |L1.9918|
0026be  e01b              B        |L1.9976|
                  |L1.9920|
0026c0  eb082809          ADD      r8,r8,r9,LSL #8
0026c4  f8a18094          STRH     r8,[r1,#0x94]
;;;2096   		lakb[2]._balanced_status_code=(signed short)(RXBUFF[6])+(((signed char)(RXBUFF[7]))<<8);
0026c8  f8938006          LDRB     r8,[r3,#6]  ; RXBUFF
0026cc  f8939007          LDRB     r9,[r3,#7]  ; RXBUFF
0026d0  eb082809          ADD      r8,r8,r9,LSL #8
0026d4  f8a180e0          STRH     r8,[r1,#0xe0]
                  |L1.9944|
;;;2097   		}
;;;2098   	if(RXBUFF[0]==5)
0026d8  f1bc0f05          CMP      r12,#5
0026dc  d10b              BNE      |L1.9974|
;;;2099   		{
;;;2100   		lakb[0]._system_status_code=(signed char)(RXBUFF[2]);
0026de  f893c002          LDRB     r12,[r3,#2]  ; RXBUFF
0026e2  f881c04a          STRB     r12,[r1,#0x4a]
;;;2101   		lakb[1]._system_status_code=(signed char)(RXBUFF[4]);
0026e6  f893c004          LDRB     r12,[r3,#4]  ; RXBUFF
0026ea  f881c096          STRB     r12,[r1,#0x96]
;;;2102   		lakb[2]._system_status_code=(signed char)(RXBUFF[6]);
0026ee  f893c006          LDRB     r12,[r3,#6]  ; RXBUFF
0026f2  f881c0e2          STRB     r12,[r1,#0xe2]
                  |L1.9974|
;;;2103   		}
;;;2104   
;;;2105   	libat_comm_cnt=50;
0026f6  8016              STRH     r6,[r2,#0]
                  |L1.9976|
;;;2106   	}
;;;2107   		
;;;2108   if(RXBUFF[1]==PUT_STARK_TM1)
0026f8  28b1              CMP      r0,#0xb1
0026fa  d116              BNE      |L1.10026|
;;;2109       {
;;;2110   	//lakb[0]._communication2lvlErrorCnt=(signed short)(*((signed char*)&RXBUFF[0]));
;;;2111   	//lakb[0]._ch_curr=(signed short)(*((signed short*)&RXBUFF[2]));
;;;2112   	lakb[0]._tot_bat_volt=((((short)RXBUFF[0])<<8)+(short)RXBUFF[2])/10;
0026fc  f893c002          LDRB     r12,[r3,#2]  ; RXBUFF
002700  f8938000          LDRB     r8,[r3,#0]  ; RXBUFF
002704  eb0c2c08          ADD      r12,r12,r8,LSL #8
002708  fbbcf7f7          UDIV     r7,r12,r7
00270c  810f              STRH     r7,[r1,#8]
;;;2113   	lakb[0]._ch_curr=(((short)RXBUFF[3])<<8)+(short)RXBUFF[4];
00270e  791f              LDRB     r7,[r3,#4]  ; RXBUFF
002710  f893c003          LDRB     r12,[r3,#3]  ; RXBUFF
002714  eb07270c          ADD      r7,r7,r12,LSL #8
002718  814f              STRH     r7,[r1,#0xa]
;;;2114   	lakb[0]._cell_temp_1=(((short)RXBUFF[5])<<8)+(short)RXBUFF[6];
00271a  799f              LDRB     r7,[r3,#6]  ; RXBUFF
00271c  f893c005          LDRB     r12,[r3,#5]  ; RXBUFF
002720  eb07270c          ADD      r7,r7,r12,LSL #8
002724  f881703a          STRB     r7,[r1,#0x3a]
;;;2115   	//lakb[0]._cell_temp_2=(signed char)(RXBUFF[7]);
;;;2116   	
;;;2117   	//lakb[0]._cell_temp_1=37;
;;;2118   	//lakb[0]._cell_temp_2=38;
;;;2119   	//plazma_stark[0]++;
;;;2120      /*
;;;2121   	plazma_stark[2]=RXBUFF[0];
;;;2122   	plazma_stark[3]=RXBUFF[1];
;;;2123   	plazma_stark[4]=RXBUFF[2];
;;;2124   	plazma_stark[5]=RXBUFF[3];
;;;2125   	plazma_stark[6]=RXBUFF[4];
;;;2126   	plazma_stark[7]=RXBUFF[5];
;;;2127   	plazma_stark[8]=RXBUFF[6];
;;;2128   	//plazma_stark[9]=RXBUFF[7];*/
;;;2129   	libat_comm_cnt=50;
002728  8016              STRH     r6,[r2,#0]
                  |L1.10026|
;;;2130   
;;;2131   	}
;;;2132   
;;;2133   if(RXBUFF[1]==PUT_STARK_TM2)
;;;2134       {
;;;2135   	lakb[0]._cell_temp_2=(((short)RXBUFF[0])<<8)+(short)RXBUFF[2];
;;;2136   	lakb[0]._cell_temp_3=(((short)RXBUFF[3])<<8)+(short)RXBUFF[4];
;;;2137   	//lakb[0]._communication2lvlErrorStat=(signed short)(*((signed char*)&RXBUFF[0]));
;;;2138   	//lakb[0]._s_o_c=(signed short)(*((signed short*)&RXBUFF[2]));
;;;2139   	//lakb[0]._s_o_h=(signed short)(*((signed short*)&RXBUFF[4]));
;;;2140   	//lakb[0]._cell_temp_3=(signed char)(RXBUFF[6]);
;;;2141   	//lakb[0]._cell_temp_4=(signed char)(RXBUFF[7]);
;;;2142   	//lakb[0]._cell_temp_3=39;
;;;2143   	//lakb[0]._cell_temp_4=40;
;;;2144   	
;;;2145   	//plazma_stark[1]++;
;;;2146   	/*
;;;2147   	plazma_stark[9]=RXBUFF[0];
;;;2148   	plazma_stark[10]=RXBUFF[1];
;;;2149   	plazma_stark[11]=RXBUFF[2];
;;;2150   	plazma_stark[12]=RXBUFF[3];
;;;2151   	plazma_stark[13]=RXBUFF[4];
;;;2152   	plazma_stark[14]=RXBUFF[5];
;;;2153   	plazma_stark[15]=RXBUFF[6];
;;;2154   	//plazma_stark[17]=RXBUFF[7];
;;;2155   	*/
;;;2156   
;;;2157   	plazma_stark[2]=RXBUFF[0];
00272a  f8df8138          LDR      r8,|L1.10340|
00272e  28b2              CMP      r0,#0xb2              ;2133
002730  d11f              BNE      |L1.10098|
002732  f8939002          LDRB     r9,[r3,#2]            ;2135  ; RXBUFF
002736  f893a000          LDRB     r10,[r3,#0]           ;2135  ; RXBUFF
00273a  eb09270a          ADD      r7,r9,r10,LSL #8      ;2135
00273e  f881703b          STRB     r7,[r1,#0x3b]         ;2135
002742  791f              LDRB     r7,[r3,#4]            ;2136  ; RXBUFF
002744  f893c003          LDRB     r12,[r3,#3]           ;2136  ; RXBUFF
002748  eb072b0c          ADD      r11,r7,r12,LSL #8     ;2136
00274c  f881b03c          STRB     r11,[r1,#0x3c]        ;2136
002750  f888a002          STRB     r10,[r8,#2]
;;;2158   	plazma_stark[3]=RXBUFF[1];
002754  f8880003          STRB     r0,[r8,#3]
;;;2159   	plazma_stark[4]=RXBUFF[2];
002758  f8889004          STRB     r9,[r8,#4]
;;;2160   	plazma_stark[5]=RXBUFF[3];
00275c  f888c005          STRB     r12,[r8,#5]
;;;2161   	plazma_stark[6]=RXBUFF[4];
002760  f8887006          STRB     r7,[r8,#6]
;;;2162   	plazma_stark[7]=RXBUFF[5];
002764  795f              LDRB     r7,[r3,#5]  ; RXBUFF
002766  f8887007          STRB     r7,[r8,#7]
;;;2163   	plazma_stark[8]=RXBUFF[6];
00276a  799f              LDRB     r7,[r3,#6]  ; RXBUFF
00276c  f8887008          STRB     r7,[r8,#8]
;;;2164   
;;;2165   	libat_comm_cnt=50;
002770  8016              STRH     r6,[r2,#0]
                  |L1.10098|
;;;2166   	}		
;;;2167   
;;;2168   if(RXBUFF[1]==PUT_STARK_TM3)
002772  28b3              CMP      r0,#0xb3
002774  d120              BNE      |L1.10168|
;;;2169       {
;;;2170   
;;;2171   	lakb[0]._s_o_h=(((short)RXBUFF[3])<<8)+(short)RXBUFF[4];
002776  f8939004          LDRB     r9,[r3,#4]  ; RXBUFF
00277a  f893a003          LDRB     r10,[r3,#3]  ; RXBUFF
00277e  eb09270a          ADD      r7,r9,r10,LSL #8
002782  820f              STRH     r7,[r1,#0x10]
;;;2172   	lakb[0]._s_o_c=(((short)RXBUFF[5])<<8)+(short)RXBUFF[6];
002784  799f              LDRB     r7,[r3,#6]  ; RXBUFF
002786  f893c005          LDRB     r12,[r3,#5]  ; RXBUFF
00278a  eb072b0c          ADD      r11,r7,r12,LSL #8
00278e  f8a1b012          STRH     r11,[r1,#0x12]
;;;2173   	/*
;;;2174   	plazma_stark[16]=RXBUFF[0];
;;;2175   	plazma_stark[17]=RXBUFF[1];
;;;2176   	plazma_stark[18]=RXBUFF[2];
;;;2177   	plazma_stark[19]=RXBUFF[3];
;;;2178   	plazma_stark[20]=RXBUFF[4];
;;;2179   	plazma_stark[21]=RXBUFF[5];
;;;2180   	plazma_stark[22]=RXBUFF[6];	*/
;;;2181   
;;;2182   	plazma_stark[9]=RXBUFF[0];
002792  f893b000          LDRB     r11,[r3,#0]  ; RXBUFF
002796  f888b009          STRB     r11,[r8,#9]
;;;2183   	plazma_stark[10]=RXBUFF[1];
00279a  f888000a          STRB     r0,[r8,#0xa]
;;;2184   	plazma_stark[11]=RXBUFF[2];
00279e  f893b002          LDRB     r11,[r3,#2]  ; RXBUFF
0027a2  f888b00b          STRB     r11,[r8,#0xb]
;;;2185   	plazma_stark[12]=RXBUFF[3];
0027a6  f888a00c          STRB     r10,[r8,#0xc]
;;;2186   	plazma_stark[13]=RXBUFF[4];
0027aa  f888900d          STRB     r9,[r8,#0xd]
;;;2187   	plazma_stark[14]=RXBUFF[5];
0027ae  f888c00e          STRB     r12,[r8,#0xe]
;;;2188   	plazma_stark[15]=RXBUFF[6];
0027b2  f888700f          STRB     r7,[r8,#0xf]
;;;2189   
;;;2190   	//lakb[1]._communication2lvlErrorCnt=(signed short)(*((signed char*)&RXBUFF[0]));
;;;2191   	//lakb[1]._ch_curr=(signed short)(*((signed short*)&RXBUFF[2]));
;;;2192   	//lakb[1]._tot_bat_volt=(signed short)(*((signed short*)&RXBUFF[4]));
;;;2193   	//lakb[1]._cell_temp_1=(signed char)(RXBUFF[6]);
;;;2194   	//lakb[1]._cell_temp_2=(signed char)(RXBUFF[7]);
;;;2195   	
;;;2196   	libat_comm_cnt=50;
0027b6  8016              STRH     r6,[r2,#0]
                  |L1.10168|
;;;2197   	}
;;;2198   
;;;2199   if(RXBUFF[1]==PUT_STARK_TM4)
0027b8  28b4              CMP      r0,#0xb4
0027ba  d11e              BNE      |L1.10234|
;;;2200       {
;;;2201   	lakb[0]._flags1=(((short)RXBUFF[3])<<8)+(short)RXBUFF[2];
0027bc  f8939002          LDRB     r9,[r3,#2]  ; RXBUFF
0027c0  f893a003          LDRB     r10,[r3,#3]  ; RXBUFF
0027c4  eb09270a          ADD      r7,r9,r10,LSL #8
0027c8  834f              STRH     r7,[r1,#0x1a]
;;;2202   	lakb[0]._flags2=(((short)RXBUFF[5])<<8)+(short)RXBUFF[6];
0027ca  799f              LDRB     r7,[r3,#6]  ; RXBUFF
0027cc  f893c005          LDRB     r12,[r3,#5]  ; RXBUFF
0027d0  eb072b0c          ADD      r11,r7,r12,LSL #8
0027d4  f8a1b01c          STRH     r11,[r1,#0x1c]
;;;2203   
;;;2204   	plazma_stark[16]=RXBUFF[0];
0027d8  7819              LDRB     r1,[r3,#0]  ; RXBUFF
0027da  f8881010          STRB     r1,[r8,#0x10]
;;;2205   	plazma_stark[17]=RXBUFF[1];
0027de  f8880011          STRB     r0,[r8,#0x11]
;;;2206   	plazma_stark[18]=RXBUFF[2];
0027e2  f8889012          STRB     r9,[r8,#0x12]
;;;2207   	plazma_stark[19]=RXBUFF[3];
0027e6  f888a013          STRB     r10,[r8,#0x13]
;;;2208   	plazma_stark[20]=RXBUFF[4];
0027ea  7919              LDRB     r1,[r3,#4]  ; RXBUFF
0027ec  f8881014          STRB     r1,[r8,#0x14]
;;;2209   	plazma_stark[21]=RXBUFF[5];
0027f0  f888c015          STRB     r12,[r8,#0x15]
;;;2210   	plazma_stark[22]=RXBUFF[6];
0027f4  f8887016          STRB     r7,[r8,#0x16]
;;;2211   	//lakb[1]._communication2lvlErrorStat=(signed short)(*((signed char*)&RXBUFF[0]));
;;;2212   	//lakb[1]._s_o_c=(signed short)(*((signed short*)&RXBUFF[2]));
;;;2213   	//lakb[1]._s_o_h=(signed short)(*((signed short*)&RXBUFF[4]));
;;;2214   	//lakb[1]._cell_temp_3=(signed char)(RXBUFF[6]);
;;;2215   	//lakb[1]._cell_temp_4=(signed char)(RXBUFF[7]);
;;;2216   	
;;;2217   	libat_comm_cnt=50;
0027f8  8016              STRH     r6,[r2,#0]
                  |L1.10234|
;;;2218   	}	
;;;2219   
;;;2220   if(RXBUFF[1]==PUT_STARK_TM5)
0027fa  28b5              CMP      r0,#0xb5
0027fc  d100              BNE      |L1.10240|
;;;2221       {
;;;2222   
;;;2223   
;;;2224   
;;;2225   	//lakb[2]._communication2lvlErrorCnt=(signed short)(*((signed char*)&RXBUFF[0]));
;;;2226   	//lakb[2]._ch_curr=(signed short)(*((signed short*)&RXBUFF[2]));
;;;2227   	//lakb[2]._tot_bat_volt=(signed short)(*((signed short*)&RXBUFF[4]));
;;;2228   	//lakb[2]._cell_temp_1=(signed char)(RXBUFF[6]);
;;;2229   	//lakb[2]._cell_temp_2=(signed char)(RXBUFF[7]);
;;;2230   	
;;;2231   	libat_comm_cnt=50;
0027fe  8016              STRH     r6,[r2,#0]
                  |L1.10240|
;;;2232   	}
;;;2233   
;;;2234   if(RXBUFF[1]==PUT_STARK_TM6)
002800  28b6              CMP      r0,#0xb6
002802  d100              BNE      |L1.10246|
;;;2235       {
;;;2236   	//lakb[2]._communication2lvlErrorStat=(signed short)(*((signed char*)&RXBUFF[0]));
;;;2237   	//lakb[2]._s_o_c=(signed short)(*((signed short*)&RXBUFF[2]));
;;;2238   	//lakb[2]._s_o_h=(signed short)(*((signed short*)&RXBUFF[4]));
;;;2239   	//lakb[2]._cell_temp_3=(signed char)(RXBUFF[6]);
;;;2240   	//lakb[2]._cell_temp_3=(signed char)(RXBUFF[7]);
;;;2241   	
;;;2242   	libat_comm_cnt=50;	
002804  8016              STRH     r6,[r2,#0]
                  |L1.10246|
;;;2243   	}	
;;;2244   
;;;2245   if(RXBUFF[1]==PUT_STARK_TM7)
002806  28b7              CMP      r0,#0xb7
002808  d100              BNE      |L1.10252|
;;;2246       {
;;;2247   	//lakb[0]._cell_temp_ambient=(signed char)(RXBUFF[0]);
;;;2248   	//lakb[0]._cell_temp_power=(signed char)(RXBUFF[2]);
;;;2249   	//lakb[1]._cell_temp_ambient=(signed char)(RXBUFF[3]);
;;;2250   	//lakb[1]._cell_temp_power=(signed char)(RXBUFF[4]);
;;;2251   	//lakb[2]._cell_temp_ambient=(signed char)(RXBUFF[5]);
;;;2252   	//lakb[2]._cell_temp_power=(signed char)(RXBUFF[6]);	
;;;2253   	//lakb[0]._cell_temp_ambient=41;
;;;2254   	//lakb[0]._cell_temp_power=42;
;;;2255   
;;;2256   	libat_comm_cnt=50;
00280a  8016              STRH     r6,[r2,#0]
                  |L1.10252|
;;;2257   	}		
;;;2258   CAN_IN_AN1_end:
;;;2259   bIN2=0;
00280c  726c              STRB     r4,[r5,#9]
;;;2260   }
00280e  e8bd8ffe          POP      {r1-r11,pc}
;;;2261   
                          ENDP

                  CAN_ISR_Rx1 PROC
;;;2272   ***************************************************************************/ 
;;;2273   void CAN_ISR_Rx1( void )
002812  b570              PUSH     {r4-r6,lr}
;;;2274   {
;;;2275   unsigned int buf;
;;;2276   unsigned int *pDest;
;;;2277   char temp;
;;;2278   char *ptr,j;
;;;2279   //can_cnt++;
;;;2280   
;;;2281   rotor_can[0]++;
002814  480e              LDR      r0,|L1.10320|
002816  38a6              SUBS     r0,r0,#0xa6
002818  8801              LDRH     r1,[r0,#0]  ; rotor_can
00281a  f1010101          ADD      r1,r1,#1
00281e  8001              STRH     r1,[r0,#0]
;;;2282   
;;;2283     if (!(LPC_CAN1->RFS & 0xC0000400L))
002820  4c11              LDR      r4,|L1.10344|
002822  6a21              LDR      r1,[r4,#0x20]
002824  4a11              LDR      r2,|L1.10348|
002826  4211              TST      r1,r2
002828  d153              BNE      |L1.10450|
;;;2284     { // 11-bit ID, no RTR, matched a filter
;;;2285   
;;;2286   rotor_can[1]++;
00282a  8841              LDRH     r1,[r0,#2]  ; rotor_can
00282c  f1010101          ADD      r1,r1,#1
002830  8041              STRH     r1,[r0,#2]
;;;2287       // initialize destination pointer
;;;2288       // filter number is in lower 10 bits of C1RFS
;;;2289       pDest = (unsigned int *) &(gFullCANList[(LPC_CAN1->RFS & 0x000003FFL)].Dat1);
002832  6a20              LDR      r0,[r4,#0x20]
002834  4906              LDR      r1,|L1.10320|
002836  f3c00009          UBFX     r0,r0,#0,#10
00283a  eb000040          ADD      r0,r0,r0,LSL #1
00283e  f1a1019a          SUB      r1,r1,#0x9a
002842  eb010080          ADD      r0,r1,r0,LSL #2
;;;2290       
;;;2291       // calculate contents for first entry into FullCAN list
;;;2292       buf = LPC_CAN1->RFS & 0xC00F0000L; // mask FF, RTR and DLC
002846  6a22              LDR      r2,[r4,#0x20]
002848  4b09              LDR      r3,|L1.10352|
00284a  e013              B        |L1.10356|
                  |L1.10316|
                          DCD      lakb_damp
                  |L1.10320|
                          DCD      ||.bss||+0x1a6
                  |L1.10324|
                          DCD      li_bat
                  |L1.10328|
                          DCD      plazma_ztt
                  |L1.10332|
                          DCD      lakb
                  |L1.10336|
                          DCD      libat_comm_cnt
                  |L1.10340|
                          DCD      plazma_stark
                  |L1.10344|
                          DCD      0x40044000
                  |L1.10348|
                          DCD      0xc0000400
                  |L1.10352|
                          DCD      0xc00f0000
                  |L1.10356|
002874  ea020203          AND      r2,r2,r3
;;;2293       buf |= 0x01002000L; // set semaphore to 01b and CAN port to 1
002878  4bff              LDR      r3,|L1.11384|
00287a  ea420203          ORR      r2,r2,r3
;;;2294       buf |= LPC_CAN1->RID & 0x000007FFL; // get CAN message ID
00287e  6a63              LDR      r3,[r4,#0x24]
002880  f3c3030a          UBFX     r3,r3,#0,#11
002884  ea430302          ORR      r3,r3,r2
;;;2295   
;;;2296       // now copy entire message to FullCAN list
;;;2297       *pDest = buf; 
;;;2298       pDest++; // set to gFullCANList[(C1RFS & 0x000003FFL)].DatA
;;;2299       *pDest = LPC_CAN1->RDA; 
002888  6aa2              LDR      r2,[r4,#0x28]
00288a  6042              STR      r2,[r0,#4]
;;;2300       pDest++; // set to gFullCANList[(C1RFS & 0x000003FFL)].DatB
;;;2301       *pDest = LPC_CAN1->RDB; 
00288c  6ae2              LDR      r2,[r4,#0x2c]
00288e  6082              STR      r2,[r0,#8]
;;;2302   
;;;2303       // now set the sempahore to complete
;;;2304       buf |= 0x03000000L; // set semaphore to 11b
002890  f0437240          ORR      r2,r3,#0x3000000
;;;2305       pDest -= 2; // set to gFullCANList[(C1RFS & 0x000003FFL)].Dat1
;;;2306       *pDest = buf; 
002894  6002              STR      r2,[r0,#0]
;;;2307       
;;;2308   	temp=(char)gFullCANList[0].DatA;
002896  6848              LDR      r0,[r1,#4]  ; gFullCANList
002898  b2c0              UXTB     r0,r0
;;;2309   	if(temp==0x30) bR=0;
00289a  4af8              LDR      r2,|L1.11388|
00289c  2830              CMP      r0,#0x30
00289e  d00a              BEQ      |L1.10422|
;;;2310   	else bR++;
0028a0  79d0              LDRB     r0,[r2,#7]  ; bR
0028a2  f1000001          ADD      r0,r0,#1
0028a6  71d0              STRB     r0,[r2,#7]
                  |L1.10408|
;;;2311   	
;;;2312   	temp=(char)(((gFullCANList[0].Dat1)>>16)&0x0f); 
0028a8  c901              LDM      r1!,{r0}  ; gFullCANList
0028aa  f3c04203          UBFX     r2,r0,#16,#4
;;;2313        
;;;2314        ptr=(char*)(&gFullCANList[0].DatA);
;;;2315   	
;;;2316   	for(j=0;j<temp;j++)
0028ae  f04f0000          MOV      r0,#0
;;;2317   		{
;;;2318   		RXBUFF[j]=*ptr;
0028b2  4bf3              LDR      r3,|L1.11392|
0028b4  e009              B        |L1.10442|
                  |L1.10422|
0028b6  f04f0000          MOV      r0,#0                 ;2309
0028ba  71d0              STRB     r0,[r2,#7]            ;2309
0028bc  e7f4              B        |L1.10408|
                  |L1.10430|
0028be  f8115b01          LDRB     r5,[r1],#1
0028c2  541d              STRB     r5,[r3,r0]
0028c4  f1000001          ADD      r0,r0,#1              ;2316
0028c8  b2c0              UXTB     r0,r0                 ;2316
                  |L1.10442|
0028ca  4290              CMP      r0,r2                 ;2316
0028cc  d3f7              BCC      |L1.10430|
;;;2319   		ptr++;
;;;2320   		}
;;;2321   	can_in_an1();
0028ce  f7fffffe          BL       can_in_an1
                  |L1.10450|
;;;2322   	    
;;;2323       
;;;2324     }
;;;2325   
;;;2326     LPC_CAN1->CMR = 0x04; // release receive buffer
0028d2  f04f0004          MOV      r0,#4
0028d6  6060              STR      r0,[r4,#4]
;;;2327   }
0028d8  bd70              POP      {r4-r6,pc}
;;;2328   
                          ENDP

                  CAN_ISR_Rx2 PROC
;;;2336   ***************************************************************************/ 
;;;2337   void CAN_ISR_Rx2( void ) 
0028da  e92d41f0          PUSH     {r4-r8,lr}
;;;2338   {
;;;2339   unsigned int buf;
;;;2340   unsigned int *pDest;
;;;2341   char temp;
;;;2342   char *ptr,j;
;;;2343   //can_cnt++;
;;;2344   
;;;2345   //rotor_can[0]++;
;;;2346   //can_debug_plazma[0][0]++;
;;;2347   //if(C1ICR & 0x00000001L)
;;;2348   //	{
;;;2349   //	can_debug_plazma[0][0]++;
;;;2350   	if (!(LPC_CAN2->RFS & 0xC0000400L))
0028de  4ce9              LDR      r4,|L1.11396|
0028e0  6a20              LDR      r0,[r4,#0x20]
0028e2  49e9              LDR      r1,|L1.11400|
0028e4  4208              TST      r0,r1
0028e6  d17d              BNE      |L1.10724|
;;;2351       		{ // 11-bit ID, no RTR, matched a filter
;;;2352   			
;;;2353       		//rotor_can[1]++;
;;;2354       		// initialize destination pointer
;;;2355       		// filter number is in lower 10 bits of C1RFS
;;;2356   			//plazma_can4=(char)((LPC_CAN2->RFS>>16) & 0x000000FFL);
;;;2357       		pDest = (unsigned int *) &(gFullCANList[(LPC_CAN2->RFS & 0x000003FFL)].Dat1);
0028e8  6a20              LDR      r0,[r4,#0x20]
0028ea  49e5              LDR      r1,|L1.11392|
0028ec  f3c00009          UBFX     r0,r0,#0,#10
0028f0  eb000040          ADD      r0,r0,r0,LSL #1
0028f4  f1a10118          SUB      r1,r1,#0x18
0028f8  eb010180          ADD      r1,r1,r0,LSL #2
;;;2358       
;;;2359   			plazma_can_pal[plazma_can_pal_index]=(char)(LPC_CAN2->RDA);
0028fc  6aa3              LDR      r3,[r4,#0x28]
0028fe  4edf              LDR      r6,|L1.11388|
002900  48df              LDR      r0,|L1.11392|
002902  7b72              LDRB     r2,[r6,#0xd]  ; plazma_can_pal_index
002904  f100006e          ADD      r0,r0,#0x6e
002908  5483              STRB     r3,[r0,r2]
;;;2360   			plazma_can_pal_index++;
00290a  f1020201          ADD      r2,r2,#1
00290e  b2d2              UXTB     r2,r2
;;;2361   			plazma_can_pal[plazma_can_pal_index]=(char)((LPC_CAN2->RDA)>>8);
002910  6aa3              LDR      r3,[r4,#0x28]
002912  ea4f2313          LSR      r3,r3,#8
002916  5483              STRB     r3,[r0,r2]
;;;2362   			plazma_can_pal_index++;
002918  f1020201          ADD      r2,r2,#1
00291c  b2d2              UXTB     r2,r2
;;;2363   			plazma_can_pal[plazma_can_pal_index]=(char)((LPC_CAN2->RDA)>>16);
00291e  6aa3              LDR      r3,[r4,#0x28]
002920  ea4f4313          LSR      r3,r3,#16
002924  5483              STRB     r3,[r0,r2]
;;;2364   			plazma_can_pal_index++;
002926  f1020201          ADD      r2,r2,#1
00292a  b2d2              UXTB     r2,r2
;;;2365   			plazma_can_pal[plazma_can_pal_index]=(char)((LPC_CAN2->RDA)>>24);
00292c  6aa3              LDR      r3,[r4,#0x28]
00292e  ea4f6313          LSR      r3,r3,#24
002932  5483              STRB     r3,[r0,r2]
;;;2366   			plazma_can_pal_index++;
002934  f1020201          ADD      r2,r2,#1
002938  b2d2              UXTB     r2,r2
;;;2367   			plazma_can_pal[plazma_can_pal_index]=(char)(LPC_CAN2->RDB);
00293a  6ae3              LDR      r3,[r4,#0x2c]
00293c  5483              STRB     r3,[r0,r2]
;;;2368   			plazma_can_pal_index++;
00293e  f1020201          ADD      r2,r2,#1
002942  b2d2              UXTB     r2,r2
;;;2369   			plazma_can_pal[plazma_can_pal_index]=(char)((LPC_CAN2->RDB)>>8);
002944  6ae3              LDR      r3,[r4,#0x2c]
002946  ea4f2313          LSR      r3,r3,#8
00294a  5483              STRB     r3,[r0,r2]
;;;2370   			plazma_can_pal_index++;
00294c  f1020201          ADD      r2,r2,#1
002950  b2d2              UXTB     r2,r2
;;;2371   			plazma_can_pal[plazma_can_pal_index]=(char)((LPC_CAN2->RDB)>>16);
002952  6ae3              LDR      r3,[r4,#0x2c]
002954  ea4f4313          LSR      r3,r3,#16
002958  5483              STRB     r3,[r0,r2]
;;;2372   			plazma_can_pal_index++;
00295a  f1020201          ADD      r2,r2,#1
00295e  b2d2              UXTB     r2,r2
;;;2373   			plazma_can_pal[plazma_can_pal_index]=(char)((LPC_CAN2->RDB)>>24);
002960  6ae3              LDR      r3,[r4,#0x2c]
002962  ea4f6313          LSR      r3,r3,#24
002966  5483              STRB     r3,[r0,r2]
;;;2374   			plazma_can_pal_index++;
002968  f1020201          ADD      r2,r2,#1
00296c  7372              STRB     r2,[r6,#0xd]
;;;2375   
;;;2376       		// calculate contents for first entry into FullCAN list
;;;2377       		buf = LPC_CAN2->RFS & 0xC00F0000L; // mask FF, RTR and DLC
00296e  6a20              LDR      r0,[r4,#0x20]
002970  4ac6              LDR      r2,|L1.11404|
002972  ea000002          AND      r0,r0,r2
;;;2378       		buf |= 0x01002000L; // set semaphore to 01b and CAN port to 1
002976  4ac0              LDR      r2,|L1.11384|
002978  ea400002          ORR      r0,r0,r2
;;;2379       		buf |= LPC_CAN2->RID & 0x000007FFL; // get CAN message ID
00297c  6a62              LDR      r2,[r4,#0x24]
00297e  f3c2020a          UBFX     r2,r2,#0,#11
002982  ea420200          ORR      r2,r2,r0
;;;2380   
;;;2381       		// now copy entire message to FullCAN list
;;;2382       		*pDest = buf; 
;;;2383       		pDest++; // set to gFullCANList[(C1RFS & 0x000003FFL)].DatA
;;;2384       		*pDest = LPC_CAN2->RDA;
002986  6aa0              LDR      r0,[r4,#0x28]
002988  6048              STR      r0,[r1,#4]
;;;2385   			//plazma_can4=(char)LPC_CAN2->RDA; 
;;;2386       		pDest++; // set to gFullCANList[(C1RFS & 0x000003FFL)].DatB
;;;2387       		*pDest = LPC_CAN2->RDB; 
00298a  6ae0              LDR      r0,[r4,#0x2c]
00298c  6088              STR      r0,[r1,#8]
;;;2388   
;;;2389       		// now set the sempahore to complete
;;;2390       		buf |= 0x03000000L; // set semaphore to 11b
00298e  f0427040          ORR      r0,r2,#0x3000000
;;;2391       		pDest -= 2; // set to gFullCANList[(C1RFS & 0x000003FFL)].Dat1
;;;2392       		*pDest = buf; 
002992  6008              STR      r0,[r1,#0]
;;;2393       
;;;2394   		//temp=(char)gFullCANList[0].DatA;
;;;2395   		temp=(char)(LPC_CAN2->RDA);
002994  6aa0              LDR      r0,[r4,#0x28]
002996  b2c0              UXTB     r0,r0
;;;2396   		if(temp==0x30)
002998  2830              CMP      r0,#0x30
00299a  d009              BEQ      |L1.10672|
;;;2397   			{
;;;2398   			 bR=0;
;;;2399   			 }
;;;2400   		else bR++;
00299c  79f0              LDRB     r0,[r6,#7]  ; bR
00299e  f1000001          ADD      r0,r0,#1
0029a2  71f0              STRB     r0,[r6,#7]
                  |L1.10660|
;;;2401   	
;;;2402   		//temp=(char)(((gFullCANList[0].Dat1)>>16)&0x0f); 
;;;2403        
;;;2404        	//ptr=(char*)(&gFullCANList[0].DatA);
;;;2405   	
;;;2406   		if(!bR)
0029a4  79f0              LDRB     r0,[r6,#7]  ; bR
;;;2407   			{
;;;2408   			/*for(j=0;j<temp;j++)
;;;2409   				{
;;;2410   				RXBUFF[j]=*ptr;
;;;2411   				ptr++;
;;;2412   				}*/
;;;2413   			RXBUFF[0]=(char)(LPC_CAN2->RDA);
0029a6  4db6              LDR      r5,|L1.11392|
0029a8  b130              CBZ      r0,|L1.10680|
;;;2414   			RXBUFF[1]=(char)((LPC_CAN2->RDA)>>8);
;;;2415   			RXBUFF[2]=(char)((LPC_CAN2->RDA)>>16);
;;;2416   			RXBUFF[3]=(char)((LPC_CAN2->RDA)>>24);
;;;2417   			RXBUFF[4]=(char)(LPC_CAN2->RDB);
;;;2418   			RXBUFF[5]=(char)((LPC_CAN2->RDB)>>8);
;;;2419   			RXBUFF[6]=(char)((LPC_CAN2->RDB)>>16);
;;;2420   			RXBUFF[7]=(char)((LPC_CAN2->RDB)>>24);
;;;2421   			
;;;2422   			}
;;;2423   		else if(bR==1)
0029aa  2801              CMP      r0,#1
0029ac  d023              BEQ      |L1.10742|
0029ae  e03e              B        |L1.10798|
                  |L1.10672|
0029b0  f04f0000          MOV      r0,#0                 ;2398
0029b4  71f0              STRB     r0,[r6,#7]            ;2398
0029b6  e7f5              B        |L1.10660|
                  |L1.10680|
0029b8  6aa0              LDR      r0,[r4,#0x28]         ;2413
0029ba  7028              STRB     r0,[r5,#0]            ;2413
0029bc  6aa0              LDR      r0,[r4,#0x28]         ;2414
0029be  ea4f2010          LSR      r0,r0,#8              ;2414
0029c2  7068              STRB     r0,[r5,#1]            ;2414
0029c4  6aa0              LDR      r0,[r4,#0x28]         ;2415
0029c6  ea4f4010          LSR      r0,r0,#16             ;2415
0029ca  70a8              STRB     r0,[r5,#2]            ;2415
0029cc  6aa0              LDR      r0,[r4,#0x28]         ;2416
0029ce  ea4f6010          LSR      r0,r0,#24             ;2416
0029d2  70e8              STRB     r0,[r5,#3]            ;2416
0029d4  6ae0              LDR      r0,[r4,#0x2c]         ;2417
0029d6  7128              STRB     r0,[r5,#4]            ;2417
0029d8  6ae0              LDR      r0,[r4,#0x2c]         ;2418
0029da  ea4f2010          LSR      r0,r0,#8              ;2418
0029de  7168              STRB     r0,[r5,#5]            ;2418
0029e0  6ae0              LDR      r0,[r4,#0x2c]         ;2419
0029e2  e000              B        |L1.10726|
                  |L1.10724|
0029e4  e03a              B        |L1.10844|
                  |L1.10726|
0029e6  ea4f4010          LSR      r0,r0,#16             ;2419
0029ea  71a8              STRB     r0,[r5,#6]            ;2419
0029ec  6ae0              LDR      r0,[r4,#0x2c]         ;2420
0029ee  ea4f6010          LSR      r0,r0,#24             ;2420
0029f2  71e8              STRB     r0,[r5,#7]            ;2420
0029f4  e01b              B        |L1.10798|
                  |L1.10742|
;;;2424   			{
;;;2425   			RXBUFF[8]=(char)(LPC_CAN2->RDA);
0029f6  6aa0              LDR      r0,[r4,#0x28]
0029f8  7228              STRB     r0,[r5,#8]
;;;2426   			RXBUFF[9]=(char)((LPC_CAN2->RDA)>>8);
0029fa  6aa0              LDR      r0,[r4,#0x28]
0029fc  ea4f2010          LSR      r0,r0,#8
002a00  7268              STRB     r0,[r5,#9]
;;;2427   			RXBUFF[10]=(char)((LPC_CAN2->RDA)>>16);
002a02  6aa0              LDR      r0,[r4,#0x28]
002a04  ea4f4010          LSR      r0,r0,#16
002a08  72a8              STRB     r0,[r5,#0xa]
;;;2428   			RXBUFF[11]=(char)((LPC_CAN2->RDA)>>24);
002a0a  6aa0              LDR      r0,[r4,#0x28]
002a0c  ea4f6010          LSR      r0,r0,#24
002a10  72e8              STRB     r0,[r5,#0xb]
;;;2429   			RXBUFF[12]=(char)(LPC_CAN2->RDB);
002a12  6ae0              LDR      r0,[r4,#0x2c]
002a14  7328              STRB     r0,[r5,#0xc]
;;;2430   			RXBUFF[13]=(char)((LPC_CAN2->RDB)>>8);
002a16  6ae0              LDR      r0,[r4,#0x2c]
002a18  ea4f2010          LSR      r0,r0,#8
002a1c  7368              STRB     r0,[r5,#0xd]
;;;2431   			RXBUFF[14]=(char)((LPC_CAN2->RDB)>>16);
002a1e  6ae0              LDR      r0,[r4,#0x2c]
002a20  ea4f4010          LSR      r0,r0,#16
002a24  73a8              STRB     r0,[r5,#0xe]
;;;2432   			RXBUFF[15]=(char)((LPC_CAN2->RDB)>>24);
002a26  6ae0              LDR      r0,[r4,#0x2c]
002a28  ea4f6010          LSR      r0,r0,#24
002a2c  73e8              STRB     r0,[r5,#0xf]
                  |L1.10798|
;;;2433   			} 		
;;;2434   	
;;;2435   	
;;;2436   	
;;;2437   		
;;;2438   		temp=((RXBUFF[1]&0x1f)+4);
002a2e  7868              LDRB     r0,[r5,#1]  ; RXBUFF
002a30  f000071f          AND      r7,r0,#0x1f
002a34  f1070704          ADD      r7,r7,#4
;;;2439       		//rotor_can[2]++;
;;;2440   		if((CRC1_in()==RXBUFF[temp+1])&&(CRC2_in()==RXBUFF[temp+2])&&bR)
002a38  f7fffffe          BL       CRC1_in
002a3c  443d              ADD      r5,r5,r7
002a3e  7869              LDRB     r1,[r5,#1]
002a40  4288              CMP      r0,r1
002a42  d10b              BNE      |L1.10844|
002a44  f7fffffe          BL       CRC2_in
002a48  78a9              LDRB     r1,[r5,#2]
002a4a  4288              CMP      r0,r1
002a4c  d106              BNE      |L1.10844|
002a4e  79f0              LDRB     r0,[r6,#7]  ; bR
002a50  b120              CBZ      r0,|L1.10844|
;;;2441   			{
;;;2442     
;;;2443   			bIN=1;
002a52  f04f0001          MOV      r0,#1
002a56  7230              STRB     r0,[r6,#8]
;;;2444     			//rotor_can[3]++;
;;;2445     			can_in_an2();
002a58  f7fffffe          BL       can_in_an2
                  |L1.10844|
;;;2446   			
;;;2447   			}    
;;;2448       
;;;2449     		}
;;;2450   
;;;2451   LPC_CAN2->CMR = 0x04; // release receive buffer
002a5c  f04f0004          MOV      r0,#4
002a60  6060              STR      r0,[r4,#4]
;;;2452   }
002a62  e8bd81f0          POP      {r4-r8,pc}
;;;2453   /**************************************************************************
                          ENDP

                  can_isr_tx1 PROC
;;;2459   
;;;2460   void can_isr_tx1 (void) 
002a66  4a85              LDR      r2,|L1.11388|
;;;2461   {
;;;2462   //unsigned int buf;
;;;2463   //unsigned int *pDest;
;;;2464   char temp;
;;;2465   //char *ptr,j;
;;;2466   
;;;2467   //plazma_can2++;
;;;2468   
;;;2469   can_tx_cnt++;
002a68  7ad0              LDRB     r0,[r2,#0xb]  ; can_tx_cnt
002a6a  f1000001          ADD      r0,r0,#1
002a6e  72d0              STRB     r0,[r2,#0xb]
;;;2470   
;;;2471   rotor_can[5]++;
002a70  4983              LDR      r1,|L1.11392|
002a72  f1a10124          SUB      r1,r1,#0x24
002a76  8948              LDRH     r0,[r1,#0xa]  ; rotor_can
002a78  f1000001          ADD      r0,r0,#1
002a7c  8148              STRH     r0,[r1,#0xa]
;;;2472   
;;;2473   if(ptr_can1_tx_wr!=ptr_can1_tx_rd)
002a7e  78d3              LDRB     r3,[r2,#3]  ; ptr_can1_tx_wr
002a80  7910              LDRB     r0,[r2,#4]  ; ptr_can1_tx_rd
;;;2474   	{
;;;2475   	LPC_CAN1->TFI1=can1_info[ptr_can1_tx_rd];
002a82  4983              LDR      r1,|L1.11408|
002a84  4283              CMP      r3,r0                 ;2473
002a86  d01f              BEQ      |L1.10952|
002a88  4b82              LDR      r3,|L1.11412|
002a8a  f8533020          LDR      r3,[r3,r0,LSL #2]
002a8e  630b              STR      r3,[r1,#0x30]
;;;2476        LPC_CAN1->TID1=can1_id[ptr_can1_tx_rd];
002a90  4b80              LDR      r3,|L1.11412|
002a92  3320              ADDS     r3,r3,#0x20
002a94  f8533020          LDR      r3,[r3,r0,LSL #2]
002a98  634b              STR      r3,[r1,#0x34]
;;;2477        LPC_CAN1->TDA1=can1_data[ptr_can1_tx_rd];
002a9a  4b7e              LDR      r3,|L1.11412|
002a9c  3340              ADDS     r3,r3,#0x40
002a9e  f8533020          LDR      r3,[r3,r0,LSL #2]
002aa2  638b              STR      r3,[r1,#0x38]
;;;2478        LPC_CAN1->TDB1=can1_datb[ptr_can1_tx_rd];
002aa4  4b7b              LDR      r3,|L1.11412|
002aa6  3360              ADDS     r3,r3,#0x60
002aa8  f8533020          LDR      r3,[r3,r0,LSL #2]
002aac  63cb              STR      r3,[r1,#0x3c]
;;;2479        LPC_CAN1->CMR=0x00000021;
002aae  f04f0321          MOV      r3,#0x21
002ab2  604b              STR      r3,[r1,#4]
;;;2480        ptr_can1_tx_rd++;
002ab4  f1000001          ADD      r0,r0,#1
002ab8  b2c0              UXTB     r0,r0
002aba  7110              STRB     r0,[r2,#4]
;;;2481        if(ptr_can1_tx_rd>=8)ptr_can1_tx_rd=0;
002abc  2808              CMP      r0,#8
002abe  d306              BCC      |L1.10958|
002ac0  f04f0000          MOV      r0,#0
002ac4  7110              STRB     r0,[r2,#4]
002ac6  e002              B        |L1.10958|
                  |L1.10952|
;;;2482   	}
;;;2483   else bOUT_FREE=1;
002ac8  f04f0001          MOV      r0,#1
002acc  7010              STRB     r0,[r2,#0]
                  |L1.10958|
;;;2484   temp=LPC_CAN1->ICR;
002ace  68c8              LDR      r0,[r1,#0xc]
;;;2485   
;;;2486   }
002ad0  4770              BX       lr
;;;2487   
                          ENDP

                  can_isr_tx2 PROC
;;;2488   /***************************************************************************/
;;;2489   void can_isr_tx2 (void) 
002ad2  4a6a              LDR      r2,|L1.11388|
;;;2490   {
;;;2491   char temp;
;;;2492   can2_tx_cnt++;
002ad4  8ad0              LDRH     r0,[r2,#0x16]  ; can2_tx_cnt
002ad6  f1000001          ADD      r0,r0,#1
002ada  82d0              STRH     r0,[r2,#0x16]
;;;2493   
;;;2494   //=ptr_can2_tx_wr;
;;;2495   
;;;2496   if(ptr_can2_tx_wr!=ptr_can2_tx_rd)
002adc  7953              LDRB     r3,[r2,#5]  ; ptr_can2_tx_wr
002ade  7990              LDRB     r0,[r2,#6]  ; ptr_can2_tx_rd
;;;2497   	{
;;;2498   	LPC_CAN2->TFI1=can2_info[ptr_can2_tx_rd];
002ae0  4968              LDR      r1,|L1.11396|
002ae2  4283              CMP      r3,r0                 ;2496
002ae4  d020              BEQ      |L1.11048|
002ae6  4b6b              LDR      r3,|L1.11412|
002ae8  3380              ADDS     r3,r3,#0x80
002aea  f8533020          LDR      r3,[r3,r0,LSL #2]
002aee  630b              STR      r3,[r1,#0x30]
;;;2499        LPC_CAN2->TID1=can2_id[ptr_can2_tx_rd];
002af0  4b63              LDR      r3,|L1.11392|
002af2  3b84              SUBS     r3,r3,#0x84
002af4  f8533020          LDR      r3,[r3,r0,LSL #2]
002af8  634b              STR      r3,[r1,#0x34]
;;;2500        LPC_CAN2->TDA1=can2_data[ptr_can2_tx_rd];
002afa  4b61              LDR      r3,|L1.11392|
002afc  3b64              SUBS     r3,r3,#0x64
002afe  f8533020          LDR      r3,[r3,r0,LSL #2]
002b02  638b              STR      r3,[r1,#0x38]
;;;2501        LPC_CAN2->TDB1=can2_datb[ptr_can2_tx_rd];
002b04  4b5e              LDR      r3,|L1.11392|
002b06  3b44              SUBS     r3,r3,#0x44
002b08  f8533020          LDR      r3,[r3,r0,LSL #2]
002b0c  63cb              STR      r3,[r1,#0x3c]
;;;2502        LPC_CAN2->CMR=0x00000021;
002b0e  f04f0321          MOV      r3,#0x21
002b12  604b              STR      r3,[r1,#4]
;;;2503        ptr_can2_tx_rd++;
002b14  f1000001          ADD      r0,r0,#1
002b18  b2c0              UXTB     r0,r0
002b1a  7190              STRB     r0,[r2,#6]
;;;2504        if(ptr_can2_tx_rd>=8)ptr_can2_tx_rd=0;
002b1c  2808              CMP      r0,#8
002b1e  d306              BCC      |L1.11054|
002b20  f04f0000          MOV      r0,#0
002b24  7190              STRB     r0,[r2,#6]
002b26  e002              B        |L1.11054|
                  |L1.11048|
;;;2505   	}
;;;2506   else bOUT_FREE2=1;
002b28  f04f0001          MOV      r0,#1
002b2c  7050              STRB     r0,[r2,#1]
                  |L1.11054|
;;;2507   temp=LPC_CAN2->ICR;
002b2e  68c8              LDR      r0,[r1,#0xc]
;;;2508   }
002b30  4770              BX       lr
;;;2509   
                          ENDP

                  can1_init PROC
;;;2513   ***************************************************************************/ 
;;;2514   short can1_init (unsigned int can_btr)
002b32  b510              PUSH     {r4,lr}
;;;2515   {
;;;2516   LPC_SC->PCONP |= (1<<13);  /* Enable CAN1 and CAN2 clock */
002b34  4958              LDR      r1,|L1.11416|
002b36  680a              LDR      r2,[r1,#0]
002b38  f4425200          ORR      r2,r2,#0x2000
002b3c  600a              STR      r2,[r1,#0]
;;;2517   
;;;2518   LPC_PINCON->PINSEL0 &= ~0x0000000F;  /* CAN1 is p0.0 and p0.1	*/
002b3e  4957              LDR      r1,|L1.11420|
002b40  680a              LDR      r2,[r1,#0]
002b42  f022020f          BIC      r2,r2,#0xf
002b46  600a              STR      r2,[r1,#0]
;;;2519   LPC_PINCON->PINSEL0 |= 0x00000005;
002b48  680a              LDR      r2,[r1,#0]
002b4a  f0420205          ORR      r2,r2,#5
002b4e  600a              STR      r2,[r1,#0]
;;;2520   
;;;2521   gCANFilter = 0; // Reset and disable all message filters
002b50  4a4a              LDR      r2,|L1.11388|
002b52  f04f0100          MOV      r1,#0
002b56  8291              STRH     r1,[r2,#0x14]
;;;2522   
;;;2523   LPC_CANAF->AFMR = 0x00000001L; // Acceptance Filter Mode Register = off !
002b58  4b51              LDR      r3,|L1.11424|
002b5a  f04f0201          MOV      r2,#1
002b5e  601a              STR      r2,[r3,#0]
;;;2524   
;;;2525   LPC_CAN1->MOD = 1; // Go into Reset mode
002b60  4c4b              LDR      r4,|L1.11408|
002b62  6022              STR      r2,[r4,#0]
;;;2526   
;;;2527   LPC_CAN1->IER = 0;// Disable All Interrupts
002b64  6121              STR      r1,[r4,#0x10]
;;;2528   
;;;2529   LPC_CAN1->GSR = 0; // Clear Status register
002b66  60a1              STR      r1,[r4,#8]
;;;2530   
;;;2531   LPC_CAN1->BTR = can_btr; // Set bit timing
002b68  6160              STR      r0,[r4,#0x14]
;;;2532   
;;;2533   //LPC_CAN1->IER |=(1<<0)|(1<<1)|(1<<9)|(1<<10); // Enable Receive & Transmit Interrupt
;;;2534   
;;;2535   LPC_CAN1->MOD = 0; // Enter Normal Operating Mode
002b6a  6021              STR      r1,[r4,#0]
;;;2536   
;;;2537   
;;;2538   
;;;2539   NVIC_EnableIRQ(CAN_IRQn);
002b6c  f04f0019          MOV      r0,#0x19
002b70  f7fffffe          BL       NVIC_EnableIRQ
;;;2540   LPC_CAN1->IER =0x0003;
002b74  f04f0003          MOV      r0,#3
002b78  6120              STR      r0,[r4,#0x10]
;;;2541   return 1;
002b7a  f04f0001          MOV      r0,#1
;;;2542   }
002b7e  bd10              POP      {r4,pc}
;;;2543   
                          ENDP

                  FullCAN_SetFilter PROC
;;;2581   ***************************************************************************/ 
;;;2582   short FullCAN_SetFilter  (
002b80  b5f0              PUSH     {r4-r7,lr}
;;;2583                            unsigned short can_port, // CAN interface number
;;;2584                            unsigned int CANID // 11-bit CAN ID
;;;2585                            )
;;;2586   {
;;;2587   unsigned int p, n;
;;;2588   unsigned int buf0, buf1;
;;;2589   unsigned int ID_lower, ID_upper;
;;;2590   unsigned int candata;
;;;2591   unsigned int *pAddr;
;;;2592   
;;;2593    
;;;2594   
;;;2595   // Acceptance Filter Mode Register = off !
;;;2596   LPC_CANAF->AFMR = 0x00000001L;
002b82  4e47              LDR      r6,|L1.11424|
002b84  f04f0701          MOV      r7,#1
002b88  6037              STR      r7,[r6,#0]
;;;2597   
;;;2598   if (gCANFilter == 0)
002b8a  4d3c              LDR      r5,|L1.11388|
002b8c  8aaa              LDRH     r2,[r5,#0x14]  ; gCANFilter
;;;2599        {    
;;;2600        // First call, init entry zero
;;;2601        gFullCANList[0].Dat1 = 0x000037FFL; // CAN 1, disabled and unused
002b8e  4c3c              LDR      r4,|L1.11392|
002b90  f1a40418          SUB      r4,r4,#0x18
002b94  b912              CBNZ     r2,|L1.11164|
002b96  f24372ff          MOV      r2,#0x37ff
002b9a  6022              STR      r2,[r4,#0]  ; gFullCANList
                  |L1.11164|
;;;2602        }
;;;2603   if (gCANFilter >= MAX_FILTERS)
002b9c  f9b52014          LDRSH    r2,[r5,#0x14]  ; gCANFilter
002ba0  2a02              CMP      r2,#2
002ba2  db01              BLT      |L1.11176|
;;;2604        {
;;;2605        return 0;
002ba4  2000              MOVS     r0,#0
;;;2606        }
;;;2607   
;;;2608   CANID &= 0x000007FFL; // Mask out 11-bit ID
;;;2609   CANID |= (can_port << 13); // Put can_port info in bits 13-15
;;;2610   
;;;2611   // Filters must be sorted by interface, then by priority
;;;2612   // new filter is sorted into array
;;;2613   p = 0;
;;;2614   while (p < gCANFilter) // loop through all existing filters 
;;;2615        {
;;;2616        if ((gFullCANList[p].Dat1 & 0x0000FFFFL) > CANID)
;;;2617             {
;;;2618             break;
;;;2619             }
;;;2620        p++;
;;;2621        }
;;;2622   
;;;2623   // insert new filter here
;;;2624   buf0 = gFullCANList[p].Dat1; // save current entry
;;;2625   gFullCANList[p].Dat1 = CANID; // insert the new entry
;;;2626   
;;;2627   // move all remaining entries one row up
;;;2628   gCANFilter++;
;;;2629   while (p < gCANFilter)
;;;2630        {
;;;2631        p++;
;;;2632        buf1 = gFullCANList[p].Dat1;
;;;2633        gFullCANList[p].Dat1 = buf0;
;;;2634        buf0 = buf1;
;;;2635        }
;;;2636   
;;;2637   // Now work on Acceptance Filter Configuration     
;;;2638   // Set CAN filter for 11-bit standard identifiers
;;;2639   p = 0;
;;;2640   
;;;2641   // Set pointer for Standard Frame Individual
;;;2642   // Standard Frame Explicit
;;;2643   LPC_CANAF->SFF_sa = p;
;;;2644   
;;;2645   pAddr = (unsigned int *) LPC_CANAF_RAM_BASE;
;;;2646   for (n = 0; n < ((gCANFilter+1)/2); n++)
;;;2647        {
;;;2648        ID_lower = gFullCANList[n * 2].Dat1 & 0x0000FFFFL;
;;;2649        ID_upper = gFullCANList[n * 2 + 1].Dat1 & 0x0000FFFFL;
;;;2650        candata = (ID_lower << 16) + ID_upper;
;;;2651        *pAddr = candata;
;;;2652        p += 4;
;;;2653        pAddr++;
;;;2654        }
;;;2655   
;;;2656   // p is still pointing to ENDofTable;
;;;2657     
;;;2658   // Set pointer for Standard Frame Groups
;;;2659   // Standard Frame Group Start Address Register
;;;2660   LPC_CANAF->SFF_GRP_sa = p;
;;;2661   
;;;2662   // Set pointer for Extended Frame Individual
;;;2663   // Extended Frame Start Address Register
;;;2664   LPC_CANAF->EFF_sa = p;
;;;2665   
;;;2666   // Set pointer for Extended Frame Groups
;;;2667   // Extended Frame Group Start Address Register
;;;2668   LPC_CANAF->EFF_GRP_sa = p;
;;;2669   
;;;2670   // Set ENDofTable 
;;;2671   // End of AF Tables Register
;;;2672   LPC_CANAF->ENDofTable = p;
;;;2673   
;;;2674   // Acceptance Filter Mode Register, start using filter
;;;2675   LPC_CANAF->AFMR = 0;
;;;2676     
;;;2677   return 1;
;;;2678   
;;;2679   /*
;;;2680     // Acceptance Filter Mode Register = off !
;;;2681   LPC_CANAF->AFMR = 0x00000001L;
;;;2682   
;;;2683     if (gCANFilter == 0)
;;;2684     { // First call, init entry zero
;;;2685       gFullCANList[0].Dat1 = 0x000037FFL; // CAN 1, disabled and unused
;;;2686     }
;;;2687     if (gCANFilter >= MAX_FILTERS)
;;;2688     {
;;;2689       return 0;
;;;2690     }
;;;2691   
;;;2692     CANID &= 0x000007FFL; // Mask out 11-bit ID
;;;2693     CANID |= (can_port << 13); // Put can_port info in bits 13-15
;;;2694   
;;;2695     // Filters must be sorted by interface, then by priority
;;;2696     // new filter is sorted into array
;;;2697     p = 0;
;;;2698     while (p < gCANFilter) // loop through all existing filters 
;;;2699     {
;;;2700       if ((gFullCANList[p].Dat1 & 0x0000FFFFL) > CANID)
;;;2701       {
;;;2702         break;
;;;2703       }
;;;2704       p++;
;;;2705     }
;;;2706   
;;;2707     // insert new filter here
;;;2708     buf0 = gFullCANList[p].Dat1; // save current entry
;;;2709     gFullCANList[p].Dat1 = CANID; // insert the new entry
;;;2710   
;;;2711     // move all remaining entries one row up
;;;2712     gCANFilter++;
;;;2713     while (p < gCANFilter)
;;;2714     {
;;;2715       p++;
;;;2716       buf1 = gFullCANList[p].Dat1;
;;;2717       gFullCANList[p].Dat1 = buf0;
;;;2718       buf0 = buf1;
;;;2719     }
;;;2720   
;;;2721     // Now work on Acceptance Filter Configuration     
;;;2722     // Set CAN filter for 11-bit standard identifiers
;;;2723     p = 0;
;;;2724   
;;;2725     // Set pointer for Standard Frame Individual
;;;2726     // Standard Frame Explicit
;;;2727   LPC_CANAF->SFF_sa = p;
;;;2728   
;;;2729     pAddr = (unsigned int *) ACCEPTANCE_FILTER_RAM_BASE;
;;;2730     for (n = 0; n < ((gCANFilter+1)/2); n++)
;;;2731     {
;;;2732       ID_lower = gFullCANList[n * 2].Dat1 & 0x0000FFFFL;
;;;2733       ID_upper = gFullCANList[n * 2 + 1].Dat1 & 0x0000FFFFL;
;;;2734       candata = (ID_lower << 16) + ID_upper;
;;;2735       *pAddr = candata;
;;;2736       p += 4;
;;;2737       pAddr++;
;;;2738     }
;;;2739   
;;;2740     // p is still pointing to ENDofTable;
;;;2741     
;;;2742     // Set pointer for Standard Frame Groups
;;;2743     // Standard Frame Group Start Address Register
;;;2744   LPC_CANAF->SFF_GRP_sa = p;
;;;2745   
;;;2746     // Set pointer for Extended Frame Individual
;;;2747     // Extended Frame Start Address Register
;;;2748   LPC_CANAF->EFF_sa = p;
;;;2749   
;;;2750     // Set pointer for Extended Frame Groups
;;;2751     // Extended Frame Group Start Address Register
;;;2752   LPC_CANAF->EFF_GRP_sa = p;
;;;2753   
;;;2754     // Set ENDofTable 
;;;2755     // End of AF Tables Register
;;;2756   LPC_CANAF->ENDofTable = p;
;;;2757   
;;;2758     // Acceptance Filter Mode Register, start using filter
;;;2759   LPC_CANAF->AFMR = 0;
;;;2760     
;;;2761     return 1;	 */
;;;2762   }
002ba6  bdf0              POP      {r4-r7,pc}
                  |L1.11176|
002ba8  f3c1010a          UBFX     r1,r1,#0,#11          ;2608
002bac  ea413140          ORR      r1,r1,r0,LSL #13      ;2609
002bb0  f04f0000          MOV      r0,#0                 ;2613
002bb4  e008              B        |L1.11208|
                  |L1.11190|
002bb6  eb000240          ADD      r2,r0,r0,LSL #1       ;2616
002bba  f8542022          LDR      r2,[r4,r2,LSL #2]     ;2616
002bbe  b292              UXTH     r2,r2                 ;2616
002bc0  428a              CMP      r2,r1                 ;2616
002bc2  d805              BHI      |L1.11216|
002bc4  f1000001          ADD      r0,r0,#1              ;2620
                  |L1.11208|
002bc8  f9b52014          LDRSH    r2,[r5,#0x14]         ;2614  ; gCANFilter
002bcc  4290              CMP      r0,r2                 ;2614
002bce  d3f2              BCC      |L1.11190|
                  |L1.11216|
002bd0  eb000340          ADD      r3,r0,r0,LSL #1       ;2624
002bd4  f8542023          LDR      r2,[r4,r3,LSL #2]     ;2624
002bd8  f8441023          STR      r1,[r4,r3,LSL #2]     ;2625
002bdc  8aa9              LDRH     r1,[r5,#0x14]         ;2628  ; gCANFilter
002bde  f1010101          ADD      r1,r1,#1              ;2628
002be2  82a9              STRH     r1,[r5,#0x14]         ;2628
002be4  e008              B        |L1.11256|
                  |L1.11238|
002be6  f1000001          ADD      r0,r0,#1              ;2631
002bea  eb000140          ADD      r1,r0,r0,LSL #1       ;2632
002bee  f8543021          LDR      r3,[r4,r1,LSL #2]     ;2632
002bf2  f8442021          STR      r2,[r4,r1,LSL #2]     ;2633
002bf6  461a              MOV      r2,r3                 ;2634
                  |L1.11256|
002bf8  f9b51014          LDRSH    r1,[r5,#0x14]         ;2629  ; gCANFilter
002bfc  4288              CMP      r0,r1                 ;2629
002bfe  d3f2              BCC      |L1.11238|
002c00  f04f0100          MOV      r1,#0                 ;2639
002c04  6071              STR      r1,[r6,#4]            ;2643
002c06  4a27              LDR      r2,|L1.11428|
002c08  4608              MOV      r0,r1                 ;2646
002c0a  e011              B        |L1.11312|
                  |L1.11276|
002c0c  eb000340          ADD      r3,r0,r0,LSL #1       ;2648
002c10  f854c033          LDR      r12,[r4,r3,LSL #3]    ;2648
002c14  eb070340          ADD      r3,r7,r0,LSL #1       ;2649
002c18  eb030343          ADD      r3,r3,r3,LSL #1       ;2649
002c1c  f8543023          LDR      r3,[r4,r3,LSL #2]     ;2649
002c20  b29b              UXTH     r3,r3                 ;2649
002c22  eb03430c          ADD      r3,r3,r12,LSL #16     ;2650
002c26  c208              STM      r2!,{r3}              ;2651
002c28  f1010104          ADD      r1,r1,#4              ;2652
002c2c  f1000001          ADD      r0,r0,#1              ;2646
                  |L1.11312|
002c30  f9b53014          LDRSH    r3,[r5,#0x14]         ;2646  ; gCANFilter
002c34  1c5b              ADDS     r3,r3,#1              ;2646
002c36  eb0373d3          ADD      r3,r3,r3,LSR #31      ;2646
002c3a  ebb00f63          CMP      r0,r3,ASR #1          ;2646
002c3e  d3e5              BCC      |L1.11276|
002c40  60b1              STR      r1,[r6,#8]            ;2660
002c42  60f1              STR      r1,[r6,#0xc]          ;2664
002c44  6131              STR      r1,[r6,#0x10]         ;2668
002c46  6171              STR      r1,[r6,#0x14]         ;2672
002c48  f04f0000          MOV      r0,#0                 ;2675
002c4c  6030              STR      r0,[r6,#0]            ;2675
002c4e  f04f0001          MOV      r0,#1                 ;2677
002c52  bdf0              POP      {r4-r7,pc}
;;;2763   
                          ENDP

                  CAN_IRQHandler PROC
;;;2764   //-----------------------------------------------
;;;2765   void CAN_IRQHandler(void)  
002c54  b510              PUSH     {r4,lr}
;;;2766   {
;;;2767   //can_rotor[0]++;
;;;2768   CANStatus = LPC_CAN1->ICR;
002c56  480e              LDR      r0,|L1.11408|
002c58  68c0              LDR      r0,[r0,#0xc]
002c5a  4c08              LDR      r4,|L1.11388|
002c5c  61a0              STR      r0,[r4,#0x18]  ; CANStatus
;;;2769   //new_rotor[3]=CANStatus;
;;;2770   //new_rotor[4]=CANStatus>>16;
;;;2771   //
;;;2772   //rotor_rotor_rotor[0]++;
;;;2773   		
;;;2774   if ( CANStatus & (1 << 0) )
002c5e  69a0              LDR      r0,[r4,#0x18]  ; CANStatus
002c60  07c0              LSLS     r0,r0,#31
002c62  d005              BEQ      |L1.11376|
;;;2775        {
;;;2776   	CAN_ISR_Rx1();
002c64  f7fffffe          BL       CAN_ISR_Rx1
;;;2777   	plazma_can1++;
002c68  7be0              LDRB     r0,[r4,#0xf]  ; plazma_can1
002c6a  f1000001          ADD      r0,r0,#1
002c6e  73e0              STRB     r0,[r4,#0xf]
                  |L1.11376|
;;;2778        }
;;;2779   
;;;2780   if ( CANStatus & (1 << 1) )
002c70  69a0              LDR      r0,[r4,#0x18]  ; CANStatus
002c72  0780              LSLS     r0,r0,#30
002c74  d51e              BPL      |L1.11444|
;;;2781        {
;;;2782   	can_isr_tx1();
002c76  e017              B        |L1.11432|
                  |L1.11384|
                          DCD      0x01002000
                  |L1.11388|
                          DCD      ||.data||
                  |L1.11392|
                          DCD      ||.bss||+0x124
                  |L1.11396|
                          DCD      0x40048000
                  |L1.11400|
                          DCD      0xc0000400
                  |L1.11404|
                          DCD      0xc00f0000
                  |L1.11408|
                          DCD      0x40044000
                  |L1.11412|
                          DCD      ||.bss||
                  |L1.11416|
                          DCD      0x400fc0c4
                  |L1.11420|
                          DCD      0x4002c000
                  |L1.11424|
                          DCD      0x4003c000
                  |L1.11428|
                          DCD      0x40038000
                  |L1.11432|
002ca8  f7fffffe          BL       can_isr_tx1
;;;2783   	plazma_can2++;
002cac  7c20              LDRB     r0,[r4,#0x10]  ; plazma_can2
002cae  f1000001          ADD      r0,r0,#1
002cb2  7420              STRB     r0,[r4,#0x10]
                  |L1.11444|
;;;2784   	
;;;2785        }
;;;2786   
;;;2787   CANStatus = LPC_CAN2->ICR;
002cb4  4815              LDR      r0,|L1.11532|
002cb6  68c0              LDR      r0,[r0,#0xc]
002cb8  61a0              STR      r0,[r4,#0x18]  ; CANStatus
;;;2788   //new_rotor[3]=CANStatus;
;;;2789   //new_rotor[4]=CANStatus>>16;
;;;2790   //
;;;2791   //rotor_rotor_rotor[0]++;
;;;2792   plazma_can++;		
002cba  7ba0              LDRB     r0,[r4,#0xe]  ; plazma_can
002cbc  f1000001          ADD      r0,r0,#1
002cc0  73a0              STRB     r0,[r4,#0xe]
;;;2793   if ( CANStatus & (1 << 0) )
002cc2  69a0              LDR      r0,[r4,#0x18]  ; CANStatus
002cc4  07c0              LSLS     r0,r0,#31
002cc6  d008              BEQ      |L1.11482|
;;;2794        {
;;;2795   	CAN_ISR_Rx2();
002cc8  f7fffffe          BL       CAN_ISR_Rx2
;;;2796   	plazma_can3++;
002ccc  7c60              LDRB     r0,[r4,#0x11]  ; plazma_can3
002cce  f1000001          ADD      r0,r0,#1
002cd2  7460              STRB     r0,[r4,#0x11]
;;;2797   	cnt_can_pal=0;
002cd4  f04f0000          MOV      r0,#0
002cd8  7320              STRB     r0,[r4,#0xc]
                  |L1.11482|
;;;2798   
;;;2799        }
;;;2800   
;;;2801   if ( CANStatus & (1 << 1) )
002cda  69a0              LDR      r0,[r4,#0x18]  ; CANStatus
002cdc  0780              LSLS     r0,r0,#30
002cde  d505              BPL      |L1.11500|
;;;2802        {
;;;2803   	can_isr_tx2();
002ce0  f7fffffe          BL       can_isr_tx2
;;;2804   	 plazma_can4++;
002ce4  7ca0              LDRB     r0,[r4,#0x12]  ; plazma_can4
002ce6  f1000001          ADD      r0,r0,#1
002cea  74a0              STRB     r0,[r4,#0x12]
                  |L1.11500|
;;;2805   	
;;;2806        }
;;;2807   
;;;2808   return;
;;;2809   }
002cec  bd10              POP      {r4,pc}
;;;2810   
                          ENDP

                  NVIC_EnableIRQ PROC
;;;1095    */
;;;1096   static __INLINE void NVIC_EnableIRQ(IRQn_Type IRQn)
002cee  f000021f          AND      r2,r0,#0x1f
;;;1097   {
;;;1098     NVIC->ISER[((uint32_t)(IRQn) >> 5)] = (1 << ((uint32_t)(IRQn) & 0x1F)); /* enable interrupt */
002cf2  f04f0101          MOV      r1,#1
002cf6  fa01f102          LSL      r1,r1,r2
002cfa  ea4f1050          LSR      r0,r0,#5
002cfe  f04f22e0          MOV      r2,#0xe000e000
002d02  eb020080          ADD      r0,r2,r0,LSL #2
002d06  f8c01100          STR      r1,[r0,#0x100]
;;;1099   }
002d0a  4770              BX       lr
;;;1100   
                          ENDP

                  |L1.11532|
                          DCD      0x40048000

                          AREA ||area_number.2||, CODE, READONLY, ALIGN=2

                          EXPORTAS ||area_number.2||, ||.text||
                  can1_out PROC
;;;108    //-----------------------------------------------
;;;109    char CRC1_in(void)
000000  e92d4ff0          PUSH     {r4-r11,lr}
;;;110    {
;;;111    char r,j,lb;
;;;112    lb=(RXBUFF[1]&0x1f)+0x04;
000004  e9ddab0b          LDRD     r10,r11,[sp,#0x2c]
000008  e9dd8909          LDRD     r8,r9,[sp,#0x24]
00000c  4d25              LDR      r5,|L2.164|
;;;113    r=RXBUFF[0];
00000e  4f24              LDR      r7,|L2.160|
;;;114    for(j=1;j<(lb+1);j++)
000010  f44f2600          MOV      r6,#0x80000
;;;115    	{
;;;116    	r=(RXBUFF[j]^Table87[r]);
000014  78ec              LDRB     r4,[r5,#3]  ; ptr_can1_tx_wr
000016  f8476024          STR      r6,[r7,r4,LSL #2]     ;114
00001a  f1070c20          ADD      r12,r7,#0x20          ;114
00001e  f04f069e          MOV      r6,#0x9e
000022  f84c6024          STR      r6,[r12,r4,LSL #2]
000026  f1070640          ADD      r6,r7,#0x40           ;114
00002a  f8060024          STRB     r0,[r6,r4,LSL #2]     ;114
;;;117    	}
;;;118    if(r==0)r=0xFF;
00002e  eb060084          ADD      r0,r6,r4,LSL #2
000032  7041              STRB     r1,[r0,#1]
000034  7082              STRB     r2,[r0,#2]
;;;119    return r;	
;;;120    } 
000036  70c3              STRB     r3,[r0,#3]
000038  f1060220          ADD      r2,r6,#0x20
00003c  f8028024          STRB     r8,[r2,r4,LSL #2]
000040  eb020084          ADD      r0,r2,r4,LSL #2
000044  f8809001          STRB     r9,[r0,#1]
000048  f880a002          STRB     r10,[r0,#2]
00004c  f880b003          STRB     r11,[r0,#3]
000050  f1040401          ADD      r4,r4,#1
000054  b2e0              UXTB     r0,r4
000056  70e8              STRB     r0,[r5,#3]
000058  f04f0300          MOV      r3,#0
00005c  2808              CMP      r0,#8
00005e  d300              BCC      |L2.98|
000060  70eb              STRB     r3,[r5,#3]
                  |L2.98|
000062  7828              LDRB     r0,[r5,#0]  ; bOUT_FREE
000064  2800              CMP      r0,#0
000066  d018              BEQ      |L2.154|
000068  7928              LDRB     r0,[r5,#4]  ; ptr_can1_tx_rd
00006a  490f              LDR      r1,|L2.168|
00006c  f8574020          LDR      r4,[r7,r0,LSL #2]
000070  630c              STR      r4,[r1,#0x30]
000072  f85c4020          LDR      r4,[r12,r0,LSL #2]
000076  634c              STR      r4,[r1,#0x34]
000078  f8564020          LDR      r4,[r6,r0,LSL #2]
00007c  638c              STR      r4,[r1,#0x38]
00007e  f8522020          LDR      r2,[r2,r0,LSL #2]
000082  63ca              STR      r2,[r1,#0x3c]
000084  f04f0221          MOV      r2,#0x21
000088  604a              STR      r2,[r1,#4]
00008a  f1000001          ADD      r0,r0,#1
00008e  b2c0              UXTB     r0,r0
000090  7128              STRB     r0,[r5,#4]
000092  2808              CMP      r0,#8
000094  d300              BCC      |L2.152|
000096  712b              STRB     r3,[r5,#4]
                  |L2.152|
000098  702b              STRB     r3,[r5,#0]
                  |L2.154|
00009a  e8bd8ff0          POP      {r4-r11,pc}
;;;121    
                          ENDP

00009e  0000              DCW      0x0000
                  |L2.160|
                          DCD      ||.bss||
                  |L2.164|
                          DCD      ||.data||
                  |L2.168|
                          DCD      0x40044000

                          AREA ||area_number.3||, CODE, READONLY, ALIGN=2

                          EXPORTAS ||area_number.3||, ||.text||
                  can2_init PROC
;;;108    //-----------------------------------------------
;;;109    char CRC1_in(void)
000000  b510              PUSH     {r4,lr}
;;;110    {
;;;111    char r,j,lb;
;;;112    lb=(RXBUFF[1]&0x1f)+0x04;
000002  4913              LDR      r1,|L3.80|
000004  680a              LDR      r2,[r1,#0]
000006  f4424280          ORR      r2,r2,#0x4000
00000a  600a              STR      r2,[r1,#0]
00000c  4911              LDR      r1,|L3.84|
;;;113    r=RXBUFF[0];
00000e  688a              LDR      r2,[r1,#8]
;;;114    for(j=1;j<(lb+1);j++)
000010  f4223270          BIC      r2,r2,#0x3c000
;;;115    	{
;;;116    	r=(RXBUFF[j]^Table87[r]);
000014  608a              STR      r2,[r1,#8]
000016  690a              LDR      r2,[r1,#0x10]         ;114
000018  f44232a0          ORR      r2,r2,#0x14000        ;114
00001c  610a              STR      r2,[r1,#0x10]
00001e  4a0e              LDR      r2,|L3.88|
000020  f04f0100          MOV      r1,#0
000024  8291              STRH     r1,[r2,#0x14]         ;114
000026  4b0d              LDR      r3,|L3.92|
000028  f04f0201          MOV      r2,#1                 ;114
00002c  601a              STR      r2,[r3,#0]            ;114
;;;117    	}
;;;118    if(r==0)r=0xFF;
00002e  4c0c              LDR      r4,|L3.96|
000030  6022              STR      r2,[r4,#0]
000032  6121              STR      r1,[r4,#0x10]
000034  60a1              STR      r1,[r4,#8]
;;;119    return r;	
;;;120    } 
000036  6160              STR      r0,[r4,#0x14]
000038  6021              STR      r1,[r4,#0]
00003a  f04f0019          MOV      r0,#0x19
00003e  f7fffffe          BL       NVIC_EnableIRQ
000042  f04f0003          MOV      r0,#3
000046  6120              STR      r0,[r4,#0x10]
000048  f04f0001          MOV      r0,#1
00004c  bd10              POP      {r4,pc}
;;;121    
                          ENDP

00004e  0000              DCW      0x0000
                  |L3.80|
                          DCD      0x400fc0c4
                  |L3.84|
                          DCD      0x4002c000
                  |L3.88|
                          DCD      ||.data||
                  |L3.92|
                          DCD      0x4003c000
                  |L3.96|
                          DCD      0x40048000

                          AREA ||.bss||, DATA, NOINIT, ALIGN=2

                  can1_info
                          %        32
                  can1_id
                          %        32
                  can1_data
                          %        32
                  can1_datb
                          %        32
                  can2_info
                          %        32
                  can2_id
                          %        32
                  can2_data
                          %        32
                  can2_datb
                          %        32
                  rotor_can
                          %        12
                  gFullCANList
                          %        24
                  RXBUFF
                          %        40
                  TXBUFF
                          %        40
                  can_rotor
                          %        10
                  can_debug_plazma
                          %        20
                  plazma_can_pal
                          %        20
                  ccc_plazma
                          %        20

                          AREA ||area_number.6||, DATA, NOINIT, ALIGN=0

                          EXPORTAS ||area_number.6||, ||.bss||
                  bd_dumm
                          %        25

                          AREA ||area_number.7||, DATA, NOINIT, ALIGN=0

                          EXPORTAS ||area_number.7||, ||.bss||
                  ||bd||
                          %        25

                          AREA ||area_number.8||, DATA, NOINIT, ALIGN=0

                          EXPORTAS ||area_number.8||, ||.bss||
                  RXBUFF2
                          %        40

                          AREA ||area_number.9||, DATA, NOINIT, ALIGN=0

                          EXPORTAS ||area_number.9||, ||.bss||
                  TXBUFF2
                          %        40

                          AREA ||.constdata||, DATA, READONLY, ALIGN=0

                  Table87
000000  000e1c12          DCB      0x00,0x0e,0x1c,0x12
000004  3836242a          DCB      0x38,0x36,0x24,0x2a
000008  707e6c62          DCB      0x70,0x7e,0x6c,0x62
00000c  4846545a          DCB      0x48,0x46,0x54,0x5a
000010  e0eefcf2          DCB      0xe0,0xee,0xfc,0xf2
000014  d8d6c4ca          DCB      0xd8,0xd6,0xc4,0xca
000018  909e8c82          DCB      0x90,0x9e,0x8c,0x82
00001c  a8a6b4ba          DCB      0xa8,0xa6,0xb4,0xba
000020  cec0d2dc          DCB      0xce,0xc0,0xd2,0xdc
000024  f6f8eae4          DCB      0xf6,0xf8,0xea,0xe4
000028  beb0a2ac          DCB      0xbe,0xb0,0xa2,0xac
00002c  86889a94          DCB      0x86,0x88,0x9a,0x94
000030  2e20323c          DCB      0x2e,0x20,0x32,0x3c
000034  16180a04          DCB      0x16,0x18,0x0a,0x04
000038  5e50424c          DCB      0x5e,0x50,0x42,0x4c
00003c  66687a74          DCB      0x66,0x68,0x7a,0x74
000040  929c8e80          DCB      0x92,0x9c,0x8e,0x80
000044  aaa4b6b8          DCB      0xaa,0xa4,0xb6,0xb8
000048  e2ecfef0          DCB      0xe2,0xec,0xfe,0xf0
00004c  dad4c6c8          DCB      0xda,0xd4,0xc6,0xc8
000050  727c6e60          DCB      0x72,0x7c,0x6e,0x60
000054  4a445658          DCB      0x4a,0x44,0x56,0x58
000058  020c1e10          DCB      0x02,0x0c,0x1e,0x10
00005c  3a342628          DCB      0x3a,0x34,0x26,0x28
000060  5c52404e          DCB      0x5c,0x52,0x40,0x4e
000064  646a7876          DCB      0x64,0x6a,0x78,0x76
000068  2c22303e          DCB      0x2c,0x22,0x30,0x3e
00006c  141a0806          DCB      0x14,0x1a,0x08,0x06
000070  bcb2a0ae          DCB      0xbc,0xb2,0xa0,0xae
000074  848a9896          DCB      0x84,0x8a,0x98,0x96
000078  ccc2d0de          DCB      0xcc,0xc2,0xd0,0xde
00007c  f4fae8e6          DCB      0xf4,0xfa,0xe8,0xe6
000080  2a243638          DCB      0x2a,0x24,0x36,0x38
000084  121c0e00          DCB      0x12,0x1c,0x0e,0x00
000088  5a544648          DCB      0x5a,0x54,0x46,0x48
00008c  626c7e70          DCB      0x62,0x6c,0x7e,0x70
000090  cac4d6d8          DCB      0xca,0xc4,0xd6,0xd8
000094  f2fceee0          DCB      0xf2,0xfc,0xee,0xe0
000098  bab4a6a8          DCB      0xba,0xb4,0xa6,0xa8
00009c  828c9e90          DCB      0x82,0x8c,0x9e,0x90
0000a0  e4eaf8f6          DCB      0xe4,0xea,0xf8,0xf6
0000a4  dcd2c0ce          DCB      0xdc,0xd2,0xc0,0xce
0000a8  949a8886          DCB      0x94,0x9a,0x88,0x86
0000ac  aca2b0be          DCB      0xac,0xa2,0xb0,0xbe
0000b0  040a1816          DCB      0x04,0x0a,0x18,0x16
0000b4  3c32202e          DCB      0x3c,0x32,0x20,0x2e
0000b8  747a6866          DCB      0x74,0x7a,0x68,0x66
0000bc  4c42505e          DCB      0x4c,0x42,0x50,0x5e
0000c0  b8b6a4aa          DCB      0xb8,0xb6,0xa4,0xaa
0000c4  808e9c92          DCB      0x80,0x8e,0x9c,0x92
0000c8  c8c6d4da          DCB      0xc8,0xc6,0xd4,0xda
0000cc  f0feece2          DCB      0xf0,0xfe,0xec,0xe2
0000d0  5856444a          DCB      0x58,0x56,0x44,0x4a
0000d4  606e7c72          DCB      0x60,0x6e,0x7c,0x72
0000d8  2826343a          DCB      0x28,0x26,0x34,0x3a
0000dc  101e0c02          DCB      0x10,0x1e,0x0c,0x02
0000e0  76786a64          DCB      0x76,0x78,0x6a,0x64
0000e4  4e40525c          DCB      0x4e,0x40,0x52,0x5c
0000e8  06081a14          DCB      0x06,0x08,0x1a,0x14
0000ec  3e30222c          DCB      0x3e,0x30,0x22,0x2c
0000f0  96988a84          DCB      0x96,0x98,0x8a,0x84
0000f4  aea0b2bc          DCB      0xae,0xa0,0xb2,0xbc
0000f8  e6e8faf4          DCB      0xe6,0xe8,0xfa,0xf4
0000fc  ded0c2cc          DCB      0xde,0xd0,0xc2,0xcc
                  Table95
000100  002a547e          DCB      0x00,0x2a,0x54,0x7e
000104  a882fcd6          DCB      0xa8,0x82,0xfc,0xd6
000108  7a502e04          DCB      0x7a,0x50,0x2e,0x04
00010c  d2f886ac          DCB      0xd2,0xf8,0x86,0xac
000110  f4dea08a          DCB      0xf4,0xde,0xa0,0x8a
000114  5c760822          DCB      0x5c,0x76,0x08,0x22
000118  8ea4daf0          DCB      0x8e,0xa4,0xda,0xf0
00011c  260c7258          DCB      0x26,0x0c,0x72,0x58
000120  c2e896bc          DCB      0xc2,0xe8,0x96,0xbc
000124  6a403e14          DCB      0x6a,0x40,0x3e,0x14
000128  b892ecc6          DCB      0xb8,0x92,0xec,0xc6
00012c  103a446e          DCB      0x10,0x3a,0x44,0x6e
000130  361c6248          DCB      0x36,0x1c,0x62,0x48
000134  9eb4cae0          DCB      0x9e,0xb4,0xca,0xe0
000138  4c661832          DCB      0x4c,0x66,0x18,0x32
00013c  e4ceb09a          DCB      0xe4,0xce,0xb0,0x9a
000140  ae84fad0          DCB      0xae,0x84,0xfa,0xd0
000144  062c5278          DCB      0x06,0x2c,0x52,0x78
000148  d4fe80aa          DCB      0xd4,0xfe,0x80,0xaa
00014c  7c562802          DCB      0x7c,0x56,0x28,0x02
000150  5a700e24          DCB      0x5a,0x70,0x0e,0x24
000154  f2d8a68c          DCB      0xf2,0xd8,0xa6,0x8c
000158  200a745e          DCB      0x20,0x0a,0x74,0x5e
00015c  88a2dcf6          DCB      0x88,0xa2,0xdc,0xf6
000160  6c463812          DCB      0x6c,0x46,0x38,0x12
000164  c4ee90ba          DCB      0xc4,0xee,0x90,0xba
000168  163c4268          DCB      0x16,0x3c,0x42,0x68
00016c  be94eac0          DCB      0xbe,0x94,0xea,0xc0
000170  98b2cce6          DCB      0x98,0xb2,0xcc,0xe6
000174  301a644e          DCB      0x30,0x1a,0x64,0x4e
000178  e2c8b69c          DCB      0xe2,0xc8,0xb6,0x9c
00017c  4a601e34          DCB      0x4a,0x60,0x1e,0x34
000180  765c2208          DCB      0x76,0x5c,0x22,0x08
000184  def48aa0          DCB      0xde,0xf4,0x8a,0xa0
000188  0c265872          DCB      0x0c,0x26,0x58,0x72
00018c  a48ef0da          DCB      0xa4,0x8e,0xf0,0xda
000190  82a8d6fc          DCB      0x82,0xa8,0xd6,0xfc
000194  2a007e54          DCB      0x2a,0x00,0x7e,0x54
000198  f8d2ac86          DCB      0xf8,0xd2,0xac,0x86
00019c  507a042e          DCB      0x50,0x7a,0x04,0x2e
0001a0  b49ee0ca          DCB      0xb4,0x9e,0xe0,0xca
0001a4  1c364862          DCB      0x1c,0x36,0x48,0x62
0001a8  cee49ab0          DCB      0xce,0xe4,0x9a,0xb0
0001ac  664c3218          DCB      0x66,0x4c,0x32,0x18
0001b0  406a143e          DCB      0x40,0x6a,0x14,0x3e
0001b4  e8c2bc96          DCB      0xe8,0xc2,0xbc,0x96
0001b8  3a106e44          DCB      0x3a,0x10,0x6e,0x44
0001bc  92b8c6ec          DCB      0x92,0xb8,0xc6,0xec
0001c0  d8f28ca6          DCB      0xd8,0xf2,0x8c,0xa6
0001c4  705a240e          DCB      0x70,0x5a,0x24,0x0e
0001c8  a288f6dc          DCB      0xa2,0x88,0xf6,0xdc
0001cc  0a205e74          DCB      0x0a,0x20,0x5e,0x74
0001d0  2c067852          DCB      0x2c,0x06,0x78,0x52
0001d4  84aed0fa          DCB      0x84,0xae,0xd0,0xfa
0001d8  567c0228          DCB      0x56,0x7c,0x02,0x28
0001dc  fed4aa80          DCB      0xfe,0xd4,0xaa,0x80
0001e0  1a304e64          DCB      0x1a,0x30,0x4e,0x64
0001e4  b298e6cc          DCB      0xb2,0x98,0xe6,0xcc
0001e8  604a341e          DCB      0x60,0x4a,0x34,0x1e
0001ec  c8e29cb6          DCB      0xc8,0xe2,0x9c,0xb6
0001f0  eec4ba90          DCB      0xee,0xc4,0xba,0x90
0001f4  466c1238          DCB      0x46,0x6c,0x12,0x38
0001f8  94bec0ea          DCB      0x94,0xbe,0xc0,0xea
0001fc  3c166842          DCB      0x3c,0x16,0x68,0x42

                          AREA ||.data||, DATA, ALIGN=2

                  bOUT_FREE
000000  01                DCB      0x01
                  bOUT_FREE2
000001  01                DCB      0x01
                  can_reset_cnt
000002  00                DCB      0x00
                  ptr_can1_tx_wr
000003  00                DCB      0x00
                  ptr_can1_tx_rd
000004  00                DCB      0x00
                  ptr_can2_tx_wr
000005  00                DCB      0x00
                  ptr_can2_tx_rd
000006  00                DCB      0x00
                  ||bR||
000007  00                DCB      0x00
                  bIN
000008  00                DCB      0x00
                  bIN2
000009  00                DCB      0x00
                  TX_len
00000a  00                DCB      0x00
                  can_tx_cnt
00000b  00                DCB      0x00
                  cnt_can_pal
00000c  00                DCB      0x00
                  plazma_can_pal_index
00000d  00                DCB      0x00
                  plazma_can
00000e  00                DCB      0x00
                  plazma_can1
00000f  00                DCB      0x00
                  plazma_can2
000010  00                DCB      0x00
                  plazma_can3
000011  00                DCB      0x00
                  plazma_can4
000012  0000              DCB      0x00,0x00
                  gCANFilter
000014  0000              DCW      0x0000
                  can2_tx_cnt
000016  0000              DCB      0x00,0x00
                  CANStatus
                          DCD      0x00000000

                          AREA ||area_number.13||, DATA, ALIGN=0

                          EXPORTAS ||area_number.13||, ||.data||
                  rotor_rotor_rotor
000000  0000              DCB      0x00,0x00
