; generated by ARM C/C++ Compiler, 4.1 [Build 644]
; commandline ArmCC [--list --debug -c --asm --interleave -o.\EXE\http_data.o --asm_dir=.\ --list_dir=.\ --depend=.\EXE\http_data.d --feedback=.\EXE\UKU_220_IPS_TERMOKOMPENSAT.fed --cpu=Cortex-M3 --apcs=interwork -O1 -IC:\Keil\ARM\CMSIS\Include -IC:\Keil\ARM\INC\NXP\LPC17xx -D__MICROLIB -DUKU_220_IPS_TERMOKOMPENSAT -DUKU2071x -DUKU_ZVU --omf_browse=.\EXE\http_data.crf http_data.c]
                          THUMB

                          AREA ||.text||, CODE, READONLY, ALIGN=2

                          REQUIRE _printf_percent
                          REQUIRE _printf_d
                          REQUIRE _printf_int_dec
                          REQUIRE _printf_pre_padding
                          REQUIRE _printf_flags
                          REQUIRE _printf_widthprec
                          REQUIRE _printf_x
                          REQUIRE _printf_longlong_hex
                          REQUIRE _printf_s
                          REQUIRE _printf_str
                  pal_cyr_decoder PROC
;;;20     //-----------------------------------------------
;;;21     char* pal_cyr_decoder(char* input) 
000000  b530              PUSH     {r4,r5,lr}
;;;22     {
000002  4604              MOV      r4,r0
;;;23     char* output;
;;;24     short i=0,ii=0;
000004  f04f0200          MOV      r2,#0
000008  4611              MOV      r1,r2
;;;25     
;;;26     output = pal_cyr_coder_output;
00000a  48f8              LDR      r0,|L1.1004|
;;;27     	
;;;28     while (input[i])
00000c  e00b              B        |L1.38|
                  |L1.14|
;;;29     	{
;;;30     	if(input[i]=='^')
00000e  2b5e              CMP      r3,#0x5e
000010  d00f              BEQ      |L1.50|
;;;31     		{
;;;32     		i++;
;;;33     		if(input[i]=='X')
;;;34     			{
;;;35     			i++;
;;;36     			if(input[i]=='A') output[ii++]='Ø';
;;;37     			else if(input[i]=='E') output[ii++]='¨';
;;;38     			else if(input[i]=='C') output[ii++]='Æ';
;;;39     			else if(input[i]=='D') output[ii++]='Ù';
;;;40     			else if(input[i]=='B') output[ii++]='Ú';
;;;41     			else if(input[i]=='F') output[ii++]='Û';
;;;42     			else if(input[i]=='G') output[ii++]='Ü';
;;;43     			else if(input[i]=='H') output[ii++]='Ý';
;;;44     			else if(input[i]=='a') output[ii++]='ø';
;;;45     			else if(input[i]=='e') output[ii++]='¸';
;;;46     			else if(input[i]=='c') output[ii++]='æ';
;;;47     			else if(input[i]=='d') output[ii++]='ù';
;;;48     			else if(input[i]=='b') output[ii++]='ú';
;;;49     			else if(input[i]=='f') output[ii++]='û';
;;;50     			else if(input[i]=='g') output[ii++]='ü';
;;;51     			else if(input[i]=='y') output[ii++]='ý';
;;;52     			else if(input[i]=='i') output[ii++]='°';
;;;53     			else if(input[i]=='j') output[ii++]='#';
;;;54     			}
;;;55     		else if(input[i]=='A') output[ii++]='À';
;;;56     		else if(input[i]=='B') output[ii++]='Á';
;;;57     		else if(input[i]=='C') output[ii++]='Ö';
;;;58     		else if(input[i]=='D') output[ii++]='Ä';
;;;59     		else if(input[i]=='E') output[ii++]='Å';
;;;60     		else if(input[i]=='F') output[ii++]='Ô';
;;;61     		else if(input[i]=='G') output[ii++]='Ã';
;;;62     		else if(input[i]=='H') output[ii++]='Õ';
;;;63     		else if(input[i]=='I') output[ii++]='È';
;;;64     		else if(input[i]=='J') output[ii++]='É';
;;;65     		else if(input[i]=='K') output[ii++]='Ê';
;;;66     		else if(input[i]=='L') output[ii++]='Ë';
;;;67     		else if(input[i]=='M') output[ii++]='Ì';
;;;68     		else if(input[i]=='N') output[ii++]='Í';
;;;69     		else if(input[i]=='O') output[ii++]='Î';
;;;70     		else if(input[i]=='P') output[ii++]='Ï';
;;;71     		else if(input[i]=='Q') output[ii++]='ß';
;;;72     		else if(input[i]=='R') output[ii++]='Ð';
;;;73     		else if(input[i]=='S') output[ii++]='Ñ';
;;;74     		else if(input[i]=='T') output[ii++]='Ò';
;;;75     		else if(input[i]=='U') output[ii++]='Ó';
;;;76     		else if(input[i]=='V') output[ii++]='Þ';
;;;77     		else if(input[i]=='W') output[ii++]='Â';
;;;78     		else if(input[i]=='Y') output[ii++]='×';
;;;79     		else if(input[i]=='Z') output[ii++]='Ç';
;;;80     		else if(input[i]=='a') output[ii++]='à';
;;;81     		else if(input[i]=='b') output[ii++]='á';
;;;82     		else if(input[i]=='c') output[ii++]='ö';
;;;83     		else if(input[i]=='d') output[ii++]='ä';
;;;84     		else if(input[i]=='e') output[ii++]='å';
;;;85     		else if(input[i]=='f') output[ii++]='ô';
;;;86     		else if(input[i]=='g') output[ii++]='ã';
;;;87     		else if(input[i]=='h') output[ii++]='õ';
;;;88     		else if(input[i]=='i') output[ii++]='è';
;;;89     		else if(input[i]=='j') output[ii++]='é';
;;;90     		else if(input[i]=='k') output[ii++]='ê';
;;;91     		else if(input[i]=='l') output[ii++]='ë';
;;;92     		else if(input[i]=='m') output[ii++]='ì';
;;;93     		else if(input[i]=='n') output[ii++]='í';
;;;94     		else if(input[i]=='o') output[ii++]='î';
;;;95     		else if(input[i]=='p') output[ii++]='ï';
;;;96     		else if(input[i]=='q') output[ii++]='ÿ';
;;;97     		else if(input[i]=='r') output[ii++]='ð';
;;;98     		else if(input[i]=='s') output[ii++]='ñ';
;;;99     		else if(input[i]=='t') output[ii++]='ò';
;;;100    		else if(input[i]=='u') output[ii++]='ó';
;;;101    		else if(input[i]=='v') output[ii++]='þ';
;;;102    		else if(input[i]=='w') output[ii++]='â';
;;;103    		else if(input[i]=='y') output[ii++]='÷';
;;;104    		else if(input[i]=='z') output[ii++]='ç';
;;;105    		i++;
;;;106    		}
;;;107    	else 
;;;108    		{
;;;109    		output[ii++]=input[i++];
000012  4613              MOV      r3,r2
000014  f1020201          ADD      r2,r2,#1
000018  5ce5              LDRB     r5,[r4,r3]
00001a  460b              MOV      r3,r1
00001c  f1010101          ADD      r1,r1,#1
000020  b212              SXTH     r2,r2
000022  b209              SXTH     r1,r1
000024  54c5              STRB     r5,[r0,r3]
                  |L1.38|
000026  5ca3              LDRB     r3,[r4,r2]            ;28
000028  2b00              CMP      r3,#0                 ;28
00002a  d1f0              BNE      |L1.14|
;;;110    		}
;;;111    	}
;;;112    output[ii]=0;
00002c  461a              MOV      r2,r3
00002e  5442              STRB     r2,[r0,r1]
;;;113    return output;
;;;114    }
000030  bd30              POP      {r4,r5,pc}
                  |L1.50|
000032  f1020201          ADD      r2,r2,#1              ;32
000036  b213              SXTH     r3,r2                 ;32
000038  5ce2              LDRB     r2,[r4,r3]            ;33
00003a  2a58              CMP      r2,#0x58              ;33
00003c  d064              BEQ      |L1.264|
00003e  2a41              CMP      r2,#0x41              ;55
000040  d07e              BEQ      |L1.320|
000042  2a42              CMP      r2,#0x42              ;56
000044  d07d              BEQ      |L1.322|
000046  2a43              CMP      r2,#0x43              ;57
000048  d07c              BEQ      |L1.324|
00004a  2a44              CMP      r2,#0x44              ;58
00004c  d07b              BEQ      |L1.326|
00004e  2a45              CMP      r2,#0x45              ;59
000050  d07a              BEQ      |L1.328|
000052  2a46              CMP      r2,#0x46              ;60
000054  d079              BEQ      |L1.330|
000056  2a47              CMP      r2,#0x47              ;61
000058  d078              BEQ      |L1.332|
00005a  2a48              CMP      r2,#0x48              ;62
00005c  d077              BEQ      |L1.334|
00005e  2a49              CMP      r2,#0x49              ;63
000060  d076              BEQ      |L1.336|
000062  2a4a              CMP      r2,#0x4a              ;64
000064  d075              BEQ      |L1.338|
000066  2a4b              CMP      r2,#0x4b              ;65
000068  d074              BEQ      |L1.340|
00006a  2a4c              CMP      r2,#0x4c              ;66
00006c  d073              BEQ      |L1.342|
00006e  2a4d              CMP      r2,#0x4d              ;67
000070  d072              BEQ      |L1.344|
000072  2a4e              CMP      r2,#0x4e              ;68
000074  d071              BEQ      |L1.346|
000076  2a4f              CMP      r2,#0x4f              ;69
000078  d070              BEQ      |L1.348|
00007a  2a50              CMP      r2,#0x50              ;70
00007c  d06f              BEQ      |L1.350|
00007e  2a51              CMP      r2,#0x51              ;71
000080  d06e              BEQ      |L1.352|
000082  2a52              CMP      r2,#0x52              ;72
000084  d06d              BEQ      |L1.354|
000086  2a53              CMP      r2,#0x53              ;73
000088  d06c              BEQ      |L1.356|
00008a  2a54              CMP      r2,#0x54              ;74
00008c  d06b              BEQ      |L1.358|
00008e  2a55              CMP      r2,#0x55              ;75
000090  d06a              BEQ      |L1.360|
000092  2a56              CMP      r2,#0x56              ;76
000094  d069              BEQ      |L1.362|
000096  2a57              CMP      r2,#0x57              ;77
000098  d068              BEQ      |L1.364|
00009a  2a59              CMP      r2,#0x59              ;78
00009c  d067              BEQ      |L1.366|
00009e  2a5a              CMP      r2,#0x5a              ;79
0000a0  d066              BEQ      |L1.368|
0000a2  2a61              CMP      r2,#0x61              ;80
0000a4  d073              BEQ      |L1.398|
0000a6  2a62              CMP      r2,#0x62              ;81
0000a8  d072              BEQ      |L1.400|
0000aa  2a63              CMP      r2,#0x63              ;82
0000ac  d071              BEQ      |L1.402|
0000ae  2a64              CMP      r2,#0x64              ;83
0000b0  d070              BEQ      |L1.404|
0000b2  2a65              CMP      r2,#0x65              ;84
0000b4  d06f              BEQ      |L1.406|
0000b6  2a66              CMP      r2,#0x66              ;85
0000b8  d06e              BEQ      |L1.408|
0000ba  2a67              CMP      r2,#0x67              ;86
0000bc  d06d              BEQ      |L1.410|
0000be  2a68              CMP      r2,#0x68              ;87
0000c0  d06c              BEQ      |L1.412|
0000c2  2a69              CMP      r2,#0x69              ;88
0000c4  d06b              BEQ      |L1.414|
0000c6  2a6a              CMP      r2,#0x6a              ;89
0000c8  d06a              BEQ      |L1.416|
0000ca  2a6b              CMP      r2,#0x6b              ;90
0000cc  d069              BEQ      |L1.418|
0000ce  2a6c              CMP      r2,#0x6c              ;91
0000d0  d068              BEQ      |L1.420|
0000d2  2a6d              CMP      r2,#0x6d              ;92
0000d4  d067              BEQ      |L1.422|
0000d6  2a6e              CMP      r2,#0x6e              ;93
0000d8  d076              BEQ      |L1.456|
0000da  2a6f              CMP      r2,#0x6f              ;94
0000dc  d075              BEQ      |L1.458|
0000de  2a70              CMP      r2,#0x70              ;95
0000e0  d074              BEQ      |L1.460|
0000e2  2a71              CMP      r2,#0x71              ;96
0000e4  d073              BEQ      |L1.462|
0000e6  2a72              CMP      r2,#0x72              ;97
0000e8  d072              BEQ      |L1.464|
0000ea  2a73              CMP      r2,#0x73              ;98
0000ec  d071              BEQ      |L1.466|
0000ee  2a74              CMP      r2,#0x74              ;99
0000f0  d070              BEQ      |L1.468|
0000f2  2a75              CMP      r2,#0x75              ;100
0000f4  d06f              BEQ      |L1.470|
0000f6  2a76              CMP      r2,#0x76              ;101
0000f8  d06e              BEQ      |L1.472|
0000fa  2a77              CMP      r2,#0x77              ;102
0000fc  d06d              BEQ      |L1.474|
0000fe  2a79              CMP      r2,#0x79              ;103
000100  d06c              BEQ      |L1.476|
000102  2a7a              CMP      r2,#0x7a              ;104
000104  d06b              BEQ      |L1.478|
000106  e28a              B        |L1.1566|
                  |L1.264|
000108  f1030301          ADD      r3,r3,#1              ;35
00010c  b21b              SXTH     r3,r3                 ;35
00010e  5ce2              LDRB     r2,[r4,r3]            ;36
000110  2a41              CMP      r2,#0x41              ;36
000112  d049              BEQ      |L1.424|
000114  2a45              CMP      r2,#0x45              ;37
000116  d04f              BEQ      |L1.440|
000118  2a43              CMP      r2,#0x43              ;38
00011a  d061              BEQ      |L1.480|
00011c  2a44              CMP      r2,#0x44              ;39
00011e  d067              BEQ      |L1.496|
000120  2a42              CMP      r2,#0x42              ;40
000122  d06d              BEQ      |L1.512|
000124  2a46              CMP      r2,#0x46              ;41
000126  d079              BEQ      |L1.540|
000128  2a47              CMP      r2,#0x47              ;42
00012a  d07f              BEQ      |L1.556|
00012c  2a48              CMP      r2,#0x48              ;43
00012e  d071              BEQ      |L1.532|
000130  2a61              CMP      r2,#0x61              ;44
000132  d070              BEQ      |L1.534|
000134  2a65              CMP      r2,#0x65              ;45
000136  d06f              BEQ      |L1.536|
000138  2a63              CMP      r2,#0x63              ;46
00013a  d06e              BEQ      |L1.538|
00013c  2a64              CMP      r2,#0x64              ;47
00013e  e018              B        |L1.370|
                  |L1.320|
000140  e0db              B        |L1.762|
                  |L1.322|
000142  e0e2              B        |L1.778|
                  |L1.324|
000144  e0e9              B        |L1.794|
                  |L1.326|
000146  e0f0              B        |L1.810|
                  |L1.328|
000148  e0f7              B        |L1.826|
                  |L1.330|
00014a  e0fe              B        |L1.842|
                  |L1.332|
00014c  e105              B        |L1.858|
                  |L1.334|
00014e  e10c              B        |L1.874|
                  |L1.336|
000150  e113              B        |L1.890|
                  |L1.338|
000152  e11a              B        |L1.906|
                  |L1.340|
000154  e121              B        |L1.922|
                  |L1.342|
000156  e128              B        |L1.938|
                  |L1.344|
000158  e12f              B        |L1.954|
                  |L1.346|
00015a  e136              B        |L1.970|
                  |L1.348|
00015c  e13d              B        |L1.986|
                  |L1.350|
00015e  e147              B        |L1.1008|
                  |L1.352|
000160  e14e              B        |L1.1024|
                  |L1.354|
000162  e155              B        |L1.1040|
                  |L1.356|
000164  e15c              B        |L1.1056|
                  |L1.358|
000166  e163              B        |L1.1072|
                  |L1.360|
000168  e16a              B        |L1.1088|
                  |L1.362|
00016a  e171              B        |L1.1104|
                  |L1.364|
00016c  e178              B        |L1.1120|
                  |L1.366|
00016e  e17f              B        |L1.1136|
                  |L1.368|
000170  e186              B        |L1.1152|
                  |L1.370|
000172  d073              BEQ      |L1.604|
000174  2a62              CMP      r2,#0x62              ;48
000176  d072              BEQ      |L1.606|
000178  2a66              CMP      r2,#0x66              ;49
00017a  d071              BEQ      |L1.608|
00017c  2a67              CMP      r2,#0x67              ;50
00017e  d070              BEQ      |L1.610|
000180  2a79              CMP      r2,#0x79              ;51
000182  d06f              BEQ      |L1.612|
000184  2a69              CMP      r2,#0x69              ;52
000186  d06e              BEQ      |L1.614|
000188  2a6a              CMP      r2,#0x6a              ;53
00018a  d06d              BEQ      |L1.616|
00018c  e247              B        |L1.1566|
                  |L1.398|
00018e  e17f              B        |L1.1168|
                  |L1.400|
000190  e186              B        |L1.1184|
                  |L1.402|
000192  e18d              B        |L1.1200|
                  |L1.404|
000194  e194              B        |L1.1216|
                  |L1.406|
000196  e19b              B        |L1.1232|
                  |L1.408|
000198  e1a2              B        |L1.1248|
                  |L1.410|
00019a  e1a9              B        |L1.1264|
                  |L1.412|
00019c  e1b0              B        |L1.1280|
                  |L1.414|
00019e  e1b7              B        |L1.1296|
                  |L1.416|
0001a0  e1be              B        |L1.1312|
                  |L1.418|
0001a2  e1c5              B        |L1.1328|
                  |L1.420|
0001a4  e1cc              B        |L1.1344|
                  |L1.422|
0001a6  e1d3              B        |L1.1360|
                  |L1.424|
0001a8  460a              MOV      r2,r1                 ;36
0001aa  f04f05d8          MOV      r5,#0xd8              ;36
0001ae  f1010101          ADD      r1,r1,#1              ;36
0001b2  b209              SXTH     r1,r1                 ;36
0001b4  5485              STRB     r5,[r0,r2]            ;36
0001b6  e232              B        |L1.1566|
                  |L1.440|
0001b8  460a              MOV      r2,r1                 ;37
0001ba  f04f05a8          MOV      r5,#0xa8              ;37
0001be  f1010101          ADD      r1,r1,#1              ;37
0001c2  b209              SXTH     r1,r1                 ;37
0001c4  5485              STRB     r5,[r0,r2]            ;37
0001c6  e22a              B        |L1.1566|
                  |L1.456|
0001c8  e1ca              B        |L1.1376|
                  |L1.458|
0001ca  e1d1              B        |L1.1392|
                  |L1.460|
0001cc  e1d8              B        |L1.1408|
                  |L1.462|
0001ce  e1df              B        |L1.1424|
                  |L1.464|
0001d0  e1e6              B        |L1.1440|
                  |L1.466|
0001d2  e1ed              B        |L1.1456|
                  |L1.468|
0001d4  e1f4              B        |L1.1472|
                  |L1.470|
0001d6  e1fb              B        |L1.1488|
                  |L1.472|
0001d8  e202              B        |L1.1504|
                  |L1.474|
0001da  e209              B        |L1.1520|
                  |L1.476|
0001dc  e210              B        |L1.1536|
                  |L1.478|
0001de  e217              B        |L1.1552|
                  |L1.480|
0001e0  460a              MOV      r2,r1                 ;38
0001e2  f04f05c6          MOV      r5,#0xc6              ;38
0001e6  f1010101          ADD      r1,r1,#1              ;38
0001ea  b209              SXTH     r1,r1                 ;38
0001ec  5485              STRB     r5,[r0,r2]            ;38
0001ee  e216              B        |L1.1566|
                  |L1.496|
0001f0  460a              MOV      r2,r1                 ;39
0001f2  f04f05d9          MOV      r5,#0xd9              ;39
0001f6  f1010101          ADD      r1,r1,#1              ;39
0001fa  b209              SXTH     r1,r1                 ;39
0001fc  5485              STRB     r5,[r0,r2]            ;39
0001fe  e20e              B        |L1.1566|
                  |L1.512|
000200  460a              MOV      r2,r1                 ;40
000202  f04f05da          MOV      r5,#0xda              ;40
000206  f1010101          ADD      r1,r1,#1              ;40
00020a  b209              SXTH     r1,r1                 ;40
00020c  5485              STRB     r5,[r0,r2]            ;40
00020e  e206              B        |L1.1566|
000210  e004              B        |L1.540|
000212  e00b              B        |L1.556|
                  |L1.532|
000214  e012              B        |L1.572|
                  |L1.534|
000216  e019              B        |L1.588|
                  |L1.536|
000218  e027              B        |L1.618|
                  |L1.538|
00021a  e02e              B        |L1.634|
                  |L1.540|
00021c  460a              MOV      r2,r1                 ;41
00021e  f04f05db          MOV      r5,#0xdb              ;41
000222  f1010101          ADD      r1,r1,#1              ;41
000226  b209              SXTH     r1,r1                 ;41
000228  5485              STRB     r5,[r0,r2]            ;41
00022a  e1f8              B        |L1.1566|
                  |L1.556|
00022c  460a              MOV      r2,r1                 ;42
00022e  f04f05dc          MOV      r5,#0xdc              ;42
000232  f1010101          ADD      r1,r1,#1              ;42
000236  b209              SXTH     r1,r1                 ;42
000238  5485              STRB     r5,[r0,r2]            ;42
00023a  e1f0              B        |L1.1566|
                  |L1.572|
00023c  460a              MOV      r2,r1                 ;43
00023e  f04f05dd          MOV      r5,#0xdd              ;43
000242  f1010101          ADD      r1,r1,#1              ;43
000246  b209              SXTH     r1,r1                 ;43
000248  5485              STRB     r5,[r0,r2]            ;43
00024a  e1e8              B        |L1.1566|
                  |L1.588|
00024c  460a              MOV      r2,r1                 ;44
00024e  f04f05f8          MOV      r5,#0xf8              ;44
000252  f1010101          ADD      r1,r1,#1              ;44
000256  b209              SXTH     r1,r1                 ;44
000258  5485              STRB     r5,[r0,r2]            ;44
00025a  e1e0              B        |L1.1566|
                  |L1.604|
00025c  e015              B        |L1.650|
                  |L1.606|
00025e  e01c              B        |L1.666|
                  |L1.608|
000260  e023              B        |L1.682|
                  |L1.610|
000262  e02a              B        |L1.698|
                  |L1.612|
000264  e031              B        |L1.714|
                  |L1.614|
000266  e038              B        |L1.730|
                  |L1.616|
000268  e03f              B        |L1.746|
                  |L1.618|
00026a  460a              MOV      r2,r1                 ;45
00026c  f04f05b8          MOV      r5,#0xb8              ;45
000270  f1010101          ADD      r1,r1,#1              ;45
000274  b209              SXTH     r1,r1                 ;45
000276  5485              STRB     r5,[r0,r2]            ;45
000278  e1d1              B        |L1.1566|
                  |L1.634|
00027a  460a              MOV      r2,r1                 ;46
00027c  f04f05e6          MOV      r5,#0xe6              ;46
000280  f1010101          ADD      r1,r1,#1              ;46
000284  b209              SXTH     r1,r1                 ;46
000286  5485              STRB     r5,[r0,r2]            ;46
000288  e1c9              B        |L1.1566|
                  |L1.650|
00028a  460a              MOV      r2,r1                 ;47
00028c  f04f05f9          MOV      r5,#0xf9              ;47
000290  f1010101          ADD      r1,r1,#1              ;47
000294  b209              SXTH     r1,r1                 ;47
000296  5485              STRB     r5,[r0,r2]            ;47
000298  e1c1              B        |L1.1566|
                  |L1.666|
00029a  460a              MOV      r2,r1                 ;48
00029c  f04f05fa          MOV      r5,#0xfa              ;48
0002a0  f1010101          ADD      r1,r1,#1              ;48
0002a4  b209              SXTH     r1,r1                 ;48
0002a6  5485              STRB     r5,[r0,r2]            ;48
0002a8  e1b9              B        |L1.1566|
                  |L1.682|
0002aa  460a              MOV      r2,r1                 ;49
0002ac  f04f05fb          MOV      r5,#0xfb              ;49
0002b0  f1010101          ADD      r1,r1,#1              ;49
0002b4  b209              SXTH     r1,r1                 ;49
0002b6  5485              STRB     r5,[r0,r2]            ;49
0002b8  e1b1              B        |L1.1566|
                  |L1.698|
0002ba  460a              MOV      r2,r1                 ;50
0002bc  f04f05fc          MOV      r5,#0xfc              ;50
0002c0  f1010101          ADD      r1,r1,#1              ;50
0002c4  b209              SXTH     r1,r1                 ;50
0002c6  5485              STRB     r5,[r0,r2]            ;50
0002c8  e1a9              B        |L1.1566|
                  |L1.714|
0002ca  460a              MOV      r2,r1                 ;51
0002cc  f04f05fd          MOV      r5,#0xfd              ;51
0002d0  f1010101          ADD      r1,r1,#1              ;51
0002d4  b209              SXTH     r1,r1                 ;51
0002d6  5485              STRB     r5,[r0,r2]            ;51
0002d8  e1a1              B        |L1.1566|
                  |L1.730|
0002da  460a              MOV      r2,r1                 ;52
0002dc  f04f05b0          MOV      r5,#0xb0              ;52
0002e0  f1010101          ADD      r1,r1,#1              ;52
0002e4  b209              SXTH     r1,r1                 ;52
0002e6  5485              STRB     r5,[r0,r2]            ;52
0002e8  e199              B        |L1.1566|
                  |L1.746|
0002ea  460a              MOV      r2,r1                 ;53
0002ec  f04f0523          MOV      r5,#0x23              ;53
0002f0  f1010101          ADD      r1,r1,#1              ;53
0002f4  b209              SXTH     r1,r1                 ;53
0002f6  5485              STRB     r5,[r0,r2]            ;53
0002f8  e191              B        |L1.1566|
                  |L1.762|
0002fa  460a              MOV      r2,r1                 ;55
0002fc  f04f05c0          MOV      r5,#0xc0              ;55
000300  f1010101          ADD      r1,r1,#1              ;55
000304  b209              SXTH     r1,r1                 ;55
000306  5485              STRB     r5,[r0,r2]            ;55
000308  e189              B        |L1.1566|
                  |L1.778|
00030a  460a              MOV      r2,r1                 ;56
00030c  f04f05c1          MOV      r5,#0xc1              ;56
000310  f1010101          ADD      r1,r1,#1              ;56
000314  b209              SXTH     r1,r1                 ;56
000316  5485              STRB     r5,[r0,r2]            ;56
000318  e181              B        |L1.1566|
                  |L1.794|
00031a  460a              MOV      r2,r1                 ;57
00031c  f04f05d6          MOV      r5,#0xd6              ;57
000320  f1010101          ADD      r1,r1,#1              ;57
000324  b209              SXTH     r1,r1                 ;57
000326  5485              STRB     r5,[r0,r2]            ;57
000328  e179              B        |L1.1566|
                  |L1.810|
00032a  460a              MOV      r2,r1                 ;58
00032c  f04f05c4          MOV      r5,#0xc4              ;58
000330  f1010101          ADD      r1,r1,#1              ;58
000334  b209              SXTH     r1,r1                 ;58
000336  5485              STRB     r5,[r0,r2]            ;58
000338  e171              B        |L1.1566|
                  |L1.826|
00033a  460a              MOV      r2,r1                 ;59
00033c  f04f05c5          MOV      r5,#0xc5              ;59
000340  f1010101          ADD      r1,r1,#1              ;59
000344  b209              SXTH     r1,r1                 ;59
000346  5485              STRB     r5,[r0,r2]            ;59
000348  e169              B        |L1.1566|
                  |L1.842|
00034a  460a              MOV      r2,r1                 ;60
00034c  f04f05d4          MOV      r5,#0xd4              ;60
000350  f1010101          ADD      r1,r1,#1              ;60
000354  b209              SXTH     r1,r1                 ;60
000356  5485              STRB     r5,[r0,r2]            ;60
000358  e161              B        |L1.1566|
                  |L1.858|
00035a  460a              MOV      r2,r1                 ;61
00035c  f04f05c3          MOV      r5,#0xc3              ;61
000360  f1010101          ADD      r1,r1,#1              ;61
000364  b209              SXTH     r1,r1                 ;61
000366  5485              STRB     r5,[r0,r2]            ;61
000368  e159              B        |L1.1566|
                  |L1.874|
00036a  460a              MOV      r2,r1                 ;62
00036c  f04f05d5          MOV      r5,#0xd5              ;62
000370  f1010101          ADD      r1,r1,#1              ;62
000374  b209              SXTH     r1,r1                 ;62
000376  5485              STRB     r5,[r0,r2]            ;62
000378  e151              B        |L1.1566|
                  |L1.890|
00037a  460a              MOV      r2,r1                 ;63
00037c  f04f05c8          MOV      r5,#0xc8              ;63
000380  f1010101          ADD      r1,r1,#1              ;63
000384  b209              SXTH     r1,r1                 ;63
000386  5485              STRB     r5,[r0,r2]            ;63
000388  e149              B        |L1.1566|
                  |L1.906|
00038a  460a              MOV      r2,r1                 ;64
00038c  f04f05c9          MOV      r5,#0xc9              ;64
000390  f1010101          ADD      r1,r1,#1              ;64
000394  b209              SXTH     r1,r1                 ;64
000396  5485              STRB     r5,[r0,r2]            ;64
000398  e141              B        |L1.1566|
                  |L1.922|
00039a  460a              MOV      r2,r1                 ;65
00039c  f04f05ca          MOV      r5,#0xca              ;65
0003a0  f1010101          ADD      r1,r1,#1              ;65
0003a4  b209              SXTH     r1,r1                 ;65
0003a6  5485              STRB     r5,[r0,r2]            ;65
0003a8  e139              B        |L1.1566|
                  |L1.938|
0003aa  460a              MOV      r2,r1                 ;66
0003ac  f04f05cb          MOV      r5,#0xcb              ;66
0003b0  f1010101          ADD      r1,r1,#1              ;66
0003b4  b209              SXTH     r1,r1                 ;66
0003b6  5485              STRB     r5,[r0,r2]            ;66
0003b8  e131              B        |L1.1566|
                  |L1.954|
0003ba  460a              MOV      r2,r1                 ;67
0003bc  f04f05cc          MOV      r5,#0xcc              ;67
0003c0  f1010101          ADD      r1,r1,#1              ;67
0003c4  b209              SXTH     r1,r1                 ;67
0003c6  5485              STRB     r5,[r0,r2]            ;67
0003c8  e129              B        |L1.1566|
                  |L1.970|
0003ca  460a              MOV      r2,r1                 ;68
0003cc  f04f05cd          MOV      r5,#0xcd              ;68
0003d0  f1010101          ADD      r1,r1,#1              ;68
0003d4  b209              SXTH     r1,r1                 ;68
0003d6  5485              STRB     r5,[r0,r2]            ;68
0003d8  e121              B        |L1.1566|
                  |L1.986|
0003da  460a              MOV      r2,r1                 ;69
0003dc  f04f05ce          MOV      r5,#0xce              ;69
0003e0  f1010101          ADD      r1,r1,#1              ;69
0003e4  b209              SXTH     r1,r1                 ;69
0003e6  5485              STRB     r5,[r0,r2]            ;69
0003e8  e119              B        |L1.1566|
0003ea  0000              DCW      0x0000
                  |L1.1004|
                          DCD      ||.bss||+0x46
                  |L1.1008|
0003f0  460a              MOV      r2,r1                 ;70
0003f2  f04f05cf          MOV      r5,#0xcf              ;70
0003f6  f1010101          ADD      r1,r1,#1              ;70
0003fa  b209              SXTH     r1,r1                 ;70
0003fc  5485              STRB     r5,[r0,r2]            ;70
0003fe  e10e              B        |L1.1566|
                  |L1.1024|
000400  460a              MOV      r2,r1                 ;71
000402  f04f05df          MOV      r5,#0xdf              ;71
000406  f1010101          ADD      r1,r1,#1              ;71
00040a  b209              SXTH     r1,r1                 ;71
00040c  5485              STRB     r5,[r0,r2]            ;71
00040e  e106              B        |L1.1566|
                  |L1.1040|
000410  460a              MOV      r2,r1                 ;72
000412  f04f05d0          MOV      r5,#0xd0              ;72
000416  f1010101          ADD      r1,r1,#1              ;72
00041a  b209              SXTH     r1,r1                 ;72
00041c  5485              STRB     r5,[r0,r2]            ;72
00041e  e0fe              B        |L1.1566|
                  |L1.1056|
000420  460a              MOV      r2,r1                 ;73
000422  f04f05d1          MOV      r5,#0xd1              ;73
000426  f1010101          ADD      r1,r1,#1              ;73
00042a  b209              SXTH     r1,r1                 ;73
00042c  5485              STRB     r5,[r0,r2]            ;73
00042e  e0f6              B        |L1.1566|
                  |L1.1072|
000430  460a              MOV      r2,r1                 ;74
000432  f04f05d2          MOV      r5,#0xd2              ;74
000436  f1010101          ADD      r1,r1,#1              ;74
00043a  b209              SXTH     r1,r1                 ;74
00043c  5485              STRB     r5,[r0,r2]            ;74
00043e  e0ee              B        |L1.1566|
                  |L1.1088|
000440  460a              MOV      r2,r1                 ;75
000442  f04f05d3          MOV      r5,#0xd3              ;75
000446  f1010101          ADD      r1,r1,#1              ;75
00044a  b209              SXTH     r1,r1                 ;75
00044c  5485              STRB     r5,[r0,r2]            ;75
00044e  e0e6              B        |L1.1566|
                  |L1.1104|
000450  460a              MOV      r2,r1                 ;76
000452  f04f05de          MOV      r5,#0xde              ;76
000456  f1010101          ADD      r1,r1,#1              ;76
00045a  b209              SXTH     r1,r1                 ;76
00045c  5485              STRB     r5,[r0,r2]            ;76
00045e  e0de              B        |L1.1566|
                  |L1.1120|
000460  460a              MOV      r2,r1                 ;77
000462  f04f05c2          MOV      r5,#0xc2              ;77
000466  f1010101          ADD      r1,r1,#1              ;77
00046a  b209              SXTH     r1,r1                 ;77
00046c  5485              STRB     r5,[r0,r2]            ;77
00046e  e0d6              B        |L1.1566|
                  |L1.1136|
000470  460a              MOV      r2,r1                 ;78
000472  f04f05d7          MOV      r5,#0xd7              ;78
000476  f1010101          ADD      r1,r1,#1              ;78
00047a  b209              SXTH     r1,r1                 ;78
00047c  5485              STRB     r5,[r0,r2]            ;78
00047e  e0ce              B        |L1.1566|
                  |L1.1152|
000480  460a              MOV      r2,r1                 ;79
000482  f04f05c7          MOV      r5,#0xc7              ;79
000486  f1010101          ADD      r1,r1,#1              ;79
00048a  b209              SXTH     r1,r1                 ;79
00048c  5485              STRB     r5,[r0,r2]            ;79
00048e  e0c6              B        |L1.1566|
                  |L1.1168|
000490  460a              MOV      r2,r1                 ;80
000492  f04f05e0          MOV      r5,#0xe0              ;80
000496  f1010101          ADD      r1,r1,#1              ;80
00049a  b209              SXTH     r1,r1                 ;80
00049c  5485              STRB     r5,[r0,r2]            ;80
00049e  e0be              B        |L1.1566|
                  |L1.1184|
0004a0  460a              MOV      r2,r1                 ;81
0004a2  f04f05e1          MOV      r5,#0xe1              ;81
0004a6  f1010101          ADD      r1,r1,#1              ;81
0004aa  b209              SXTH     r1,r1                 ;81
0004ac  5485              STRB     r5,[r0,r2]            ;81
0004ae  e0b6              B        |L1.1566|
                  |L1.1200|
0004b0  460a              MOV      r2,r1                 ;82
0004b2  f04f05f6          MOV      r5,#0xf6              ;82
0004b6  f1010101          ADD      r1,r1,#1              ;82
0004ba  b209              SXTH     r1,r1                 ;82
0004bc  5485              STRB     r5,[r0,r2]            ;82
0004be  e0ae              B        |L1.1566|
                  |L1.1216|
0004c0  460a              MOV      r2,r1                 ;83
0004c2  f04f05e4          MOV      r5,#0xe4              ;83
0004c6  f1010101          ADD      r1,r1,#1              ;83
0004ca  b209              SXTH     r1,r1                 ;83
0004cc  5485              STRB     r5,[r0,r2]            ;83
0004ce  e0a6              B        |L1.1566|
                  |L1.1232|
0004d0  460a              MOV      r2,r1                 ;84
0004d2  f04f05e5          MOV      r5,#0xe5              ;84
0004d6  f1010101          ADD      r1,r1,#1              ;84
0004da  b209              SXTH     r1,r1                 ;84
0004dc  5485              STRB     r5,[r0,r2]            ;84
0004de  e09e              B        |L1.1566|
                  |L1.1248|
0004e0  460a              MOV      r2,r1                 ;85
0004e2  f04f05f4          MOV      r5,#0xf4              ;85
0004e6  f1010101          ADD      r1,r1,#1              ;85
0004ea  b209              SXTH     r1,r1                 ;85
0004ec  5485              STRB     r5,[r0,r2]            ;85
0004ee  e096              B        |L1.1566|
                  |L1.1264|
0004f0  460a              MOV      r2,r1                 ;86
0004f2  f04f05e3          MOV      r5,#0xe3              ;86
0004f6  f1010101          ADD      r1,r1,#1              ;86
0004fa  b209              SXTH     r1,r1                 ;86
0004fc  5485              STRB     r5,[r0,r2]            ;86
0004fe  e08e              B        |L1.1566|
                  |L1.1280|
000500  460a              MOV      r2,r1                 ;87
000502  f04f05f5          MOV      r5,#0xf5              ;87
000506  f1010101          ADD      r1,r1,#1              ;87
00050a  b209              SXTH     r1,r1                 ;87
00050c  5485              STRB     r5,[r0,r2]            ;87
00050e  e086              B        |L1.1566|
                  |L1.1296|
000510  460a              MOV      r2,r1                 ;88
000512  f04f05e8          MOV      r5,#0xe8              ;88
000516  f1010101          ADD      r1,r1,#1              ;88
00051a  b209              SXTH     r1,r1                 ;88
00051c  5485              STRB     r5,[r0,r2]            ;88
00051e  e07e              B        |L1.1566|
                  |L1.1312|
000520  460a              MOV      r2,r1                 ;89
000522  f04f05e9          MOV      r5,#0xe9              ;89
000526  f1010101          ADD      r1,r1,#1              ;89
00052a  b209              SXTH     r1,r1                 ;89
00052c  5485              STRB     r5,[r0,r2]            ;89
00052e  e076              B        |L1.1566|
                  |L1.1328|
000530  460a              MOV      r2,r1                 ;90
000532  f04f05ea          MOV      r5,#0xea              ;90
000536  f1010101          ADD      r1,r1,#1              ;90
00053a  b209              SXTH     r1,r1                 ;90
00053c  5485              STRB     r5,[r0,r2]            ;90
00053e  e06e              B        |L1.1566|
                  |L1.1344|
000540  460a              MOV      r2,r1                 ;91
000542  f04f05eb          MOV      r5,#0xeb              ;91
000546  f1010101          ADD      r1,r1,#1              ;91
00054a  b209              SXTH     r1,r1                 ;91
00054c  5485              STRB     r5,[r0,r2]            ;91
00054e  e066              B        |L1.1566|
                  |L1.1360|
000550  460a              MOV      r2,r1                 ;92
000552  f04f05ec          MOV      r5,#0xec              ;92
000556  f1010101          ADD      r1,r1,#1              ;92
00055a  b209              SXTH     r1,r1                 ;92
00055c  5485              STRB     r5,[r0,r2]            ;92
00055e  e05e              B        |L1.1566|
                  |L1.1376|
000560  460a              MOV      r2,r1                 ;93
000562  f04f05ed          MOV      r5,#0xed              ;93
000566  f1010101          ADD      r1,r1,#1              ;93
00056a  b209              SXTH     r1,r1                 ;93
00056c  5485              STRB     r5,[r0,r2]            ;93
00056e  e056              B        |L1.1566|
                  |L1.1392|
000570  460a              MOV      r2,r1                 ;94
000572  f04f05ee          MOV      r5,#0xee              ;94
000576  f1010101          ADD      r1,r1,#1              ;94
00057a  b209              SXTH     r1,r1                 ;94
00057c  5485              STRB     r5,[r0,r2]            ;94
00057e  e04e              B        |L1.1566|
                  |L1.1408|
000580  460a              MOV      r2,r1                 ;95
000582  f04f05ef          MOV      r5,#0xef              ;95
000586  f1010101          ADD      r1,r1,#1              ;95
00058a  b209              SXTH     r1,r1                 ;95
00058c  5485              STRB     r5,[r0,r2]            ;95
00058e  e046              B        |L1.1566|
                  |L1.1424|
000590  460a              MOV      r2,r1                 ;96
000592  f04f05ff          MOV      r5,#0xff              ;96
000596  f1010101          ADD      r1,r1,#1              ;96
00059a  b209              SXTH     r1,r1                 ;96
00059c  5485              STRB     r5,[r0,r2]            ;96
00059e  e03e              B        |L1.1566|
                  |L1.1440|
0005a0  460a              MOV      r2,r1                 ;97
0005a2  f04f05f0          MOV      r5,#0xf0              ;97
0005a6  f1010101          ADD      r1,r1,#1              ;97
0005aa  b209              SXTH     r1,r1                 ;97
0005ac  5485              STRB     r5,[r0,r2]            ;97
0005ae  e036              B        |L1.1566|
                  |L1.1456|
0005b0  460a              MOV      r2,r1                 ;98
0005b2  f04f05f1          MOV      r5,#0xf1              ;98
0005b6  f1010101          ADD      r1,r1,#1              ;98
0005ba  b209              SXTH     r1,r1                 ;98
0005bc  5485              STRB     r5,[r0,r2]            ;98
0005be  e02e              B        |L1.1566|
                  |L1.1472|
0005c0  460a              MOV      r2,r1                 ;99
0005c2  f04f05f2          MOV      r5,#0xf2              ;99
0005c6  f1010101          ADD      r1,r1,#1              ;99
0005ca  b209              SXTH     r1,r1                 ;99
0005cc  5485              STRB     r5,[r0,r2]            ;99
0005ce  e026              B        |L1.1566|
                  |L1.1488|
0005d0  460a              MOV      r2,r1                 ;100
0005d2  f04f05f3          MOV      r5,#0xf3              ;100
0005d6  f1010101          ADD      r1,r1,#1              ;100
0005da  b209              SXTH     r1,r1                 ;100
0005dc  5485              STRB     r5,[r0,r2]            ;100
0005de  e01e              B        |L1.1566|
                  |L1.1504|
0005e0  460a              MOV      r2,r1                 ;101
0005e2  f04f05fe          MOV      r5,#0xfe              ;101
0005e6  f1010101          ADD      r1,r1,#1              ;101
0005ea  b209              SXTH     r1,r1                 ;101
0005ec  5485              STRB     r5,[r0,r2]            ;101
0005ee  e016              B        |L1.1566|
                  |L1.1520|
0005f0  460a              MOV      r2,r1                 ;102
0005f2  f04f05e2          MOV      r5,#0xe2              ;102
0005f6  f1010101          ADD      r1,r1,#1              ;102
0005fa  b209              SXTH     r1,r1                 ;102
0005fc  5485              STRB     r5,[r0,r2]            ;102
0005fe  e00e              B        |L1.1566|
                  |L1.1536|
000600  460a              MOV      r2,r1                 ;103
000602  f04f05f7          MOV      r5,#0xf7              ;103
000606  f1010101          ADD      r1,r1,#1              ;103
00060a  b209              SXTH     r1,r1                 ;103
00060c  5485              STRB     r5,[r0,r2]            ;103
00060e  e006              B        |L1.1566|
                  |L1.1552|
000610  460a              MOV      r2,r1                 ;104
000612  f04f05e7          MOV      r5,#0xe7              ;104
000616  f1010101          ADD      r1,r1,#1              ;104
00061a  b209              SXTH     r1,r1                 ;104
00061c  5485              STRB     r5,[r0,r2]            ;104
                  |L1.1566|
00061e  f1030301          ADD      r3,r3,#1              ;105
000622  b21a              SXTH     r2,r3                 ;105
000624  e4ff              B        |L1.38|
;;;115    
                          ENDP

                  pal_cyr_coder PROC
;;;116    //-----------------------------------------------
;;;117    char* pal_cyr_coder(char* in)
000626  e92d4ff0          PUSH     {r4-r11,lr}
;;;118    {
00062a  4606              MOV      r6,r0
;;;119    char* output;
;;;120    short i=0,ii=0;
00062c  f04f0200          MOV      r2,#0
000630  4611              MOV      r1,r2
;;;121    output = pal_cyr_coder_output;
000632  48fa              LDR      r0,|L1.2588|
;;;122    
;;;123    while(in[i])
;;;124    	{
;;;125    	if(in[i]=='À')
;;;126    		{
;;;127    		output[ii++]='^';
;;;128    		output[ii++]='A';
000634  f04f0741          MOV      r7,#0x41
;;;129    		i++;
;;;130    		}
;;;131    	else if(in[i]=='Á')
;;;132    		{
;;;133    		output[ii++]='^';
;;;134    		output[ii++]='B';
;;;135    		i++;
;;;136    		}
;;;137    	else if(in[i]=='Â')
;;;138    		{
;;;139    		output[ii++]='^';
;;;140    		output[ii++]='W';
;;;141    		i++;
;;;142    		}
;;;143    	else if(in[i]=='Ã')
;;;144    		{
;;;145    		output[ii++]='^';
;;;146    		output[ii++]='G';
;;;147    		i++;
;;;148    		}
;;;149    	else if(in[i]=='Ä')
;;;150    		{
;;;151    		output[ii++]='^';
;;;152    		output[ii++]='D';
000638  f04f0c44          MOV      r12,#0x44
00063c  f04f0842          MOV      r8,#0x42              ;134
;;;153    		i++;
;;;154    		}
;;;155    	else if(in[i]=='Å')
;;;156    		{
;;;157    		output[ii++]='^';
;;;158    		output[ii++]='E';
;;;159    		i++;
;;;160    		}
;;;161    	else if(in[i]=='¨')
;;;162    		{
;;;163    		output[ii++]='^';
;;;164    		output[ii++]='X';
;;;165    		output[ii++]='E';
;;;166    		i++;
;;;167    		}
;;;168    	else if(in[i]=='Æ')
;;;169    		{
;;;170    		output[ii++]='^';
;;;171    		output[ii++]='X';
;;;172    		output[ii++]='C';
;;;173    		i++;
;;;174    		}
;;;175    	else if(in[i]=='Ç')
;;;176    		{
;;;177    		output[ii++]='^';
;;;178    		output[ii++]='Z';
;;;179    		i++;
;;;180    		}
;;;181    	else if(in[i]=='È')
;;;182    		{
;;;183    		output[ii++]='^';
;;;184    		output[ii++]='I';
;;;185    		i++;
;;;186    		}
;;;187    	else if(in[i]=='É')
;;;188    		{
;;;189    		output[ii++]='^';
;;;190    		output[ii++]='J';
;;;191    		i++;
;;;192    		}
;;;193    	else if(in[i]=='Ê')
;;;194    		{
;;;195    		output[ii++]='^';
;;;196    		output[ii++]='K';
;;;197    		i++;
;;;198    		}
;;;199    	else if(in[i]=='Ë')
;;;200    		{
;;;201    		output[ii++]='^';
;;;202    		output[ii++]='L';
;;;203    		i++;
;;;204    		}
;;;205    	else if(in[i]=='Ì')
;;;206    		{
;;;207    		output[ii++]='^';
;;;208    		output[ii++]='M';
;;;209    		i++;
;;;210    		}
;;;211    	else if(in[i]=='Í')
;;;212    		{
;;;213    		output[ii++]='^';
;;;214    		output[ii++]='N';
;;;215    		i++;
;;;216    		}
;;;217    	else if(in[i]=='Î')
;;;218    		{
;;;219    		output[ii++]='^';
;;;220    		output[ii++]='O';
;;;221    		i++;
;;;222    		}
;;;223    	else if(in[i]=='Ï')
;;;224    		{
;;;225    		output[ii++]='^';
;;;226    		output[ii++]='P';
;;;227    		i++;
;;;228    		}
;;;229    	else if(in[i]=='Ð')
;;;230    		{
;;;231    		output[ii++]='^';
;;;232    		output[ii++]='R';
;;;233    		i++;
;;;234    		}
;;;235    	else if(in[i]=='Ñ')
;;;236    		{
;;;237    		output[ii++]='^';
;;;238    		output[ii++]='S';
;;;239    		i++;
;;;240    		}
;;;241    	else if(in[i]=='Ò')
;;;242    		{
;;;243    		output[ii++]='^';
;;;244    		output[ii++]='T';
;;;245    		i++;
;;;246    		}
;;;247    	else if(in[i]=='Ó')
;;;248    		{
;;;249    		output[ii++]='^';
;;;250    		output[ii++]='U';
;;;251    		i++;
;;;252    		}
;;;253    	else if(in[i]=='Ô')
;;;254    		{
;;;255    		output[ii++]='^';
;;;256    		output[ii++]='F';
000640  f04f0946          MOV      r9,#0x46
000644  f04f0a47          MOV      r10,#0x47             ;146
;;;257    		i++;
;;;258    		}
;;;259    	else if(in[i]=='Õ')
;;;260    		{
;;;261    		output[ii++]='^';
;;;262    		output[ii++]='H';
000648  f04f0b48          MOV      r11,#0x48
00064c  f04f035e          MOV      r3,#0x5e              ;127
000650  f04f0458          MOV      r4,#0x58              ;164
000654  e0ac              B        |L1.1968|
                  |L1.1622|
000656  2dc0              CMP      r5,#0xc0              ;125
000658  d07e              BEQ      |L1.1880|
00065a  2dc1              CMP      r5,#0xc1              ;131
00065c  d07d              BEQ      |L1.1882|
00065e  2dc2              CMP      r5,#0xc2              ;137
000660  d07c              BEQ      |L1.1884|
000662  2dc3              CMP      r5,#0xc3              ;143
000664  d07b              BEQ      |L1.1886|
000666  2dc4              CMP      r5,#0xc4              ;149
000668  d07a              BEQ      |L1.1888|
00066a  2dc5              CMP      r5,#0xc5              ;155
00066c  d079              BEQ      |L1.1890|
00066e  2da8              CMP      r5,#0xa8              ;161
000670  d078              BEQ      |L1.1892|
000672  2dc6              CMP      r5,#0xc6              ;168
000674  d077              BEQ      |L1.1894|
000676  2dc7              CMP      r5,#0xc7              ;175
000678  d076              BEQ      |L1.1896|
00067a  2dc8              CMP      r5,#0xc8              ;181
00067c  d075              BEQ      |L1.1898|
00067e  2dc9              CMP      r5,#0xc9              ;187
000680  d074              BEQ      |L1.1900|
000682  2dca              CMP      r5,#0xca              ;193
000684  d073              BEQ      |L1.1902|
000686  2dcb              CMP      r5,#0xcb              ;199
000688  d072              BEQ      |L1.1904|
00068a  2dcc              CMP      r5,#0xcc              ;205
00068c  d071              BEQ      |L1.1906|
00068e  2dcd              CMP      r5,#0xcd              ;211
000690  d070              BEQ      |L1.1908|
000692  2dce              CMP      r5,#0xce              ;217
000694  d06f              BEQ      |L1.1910|
000696  2dcf              CMP      r5,#0xcf              ;223
000698  d06e              BEQ      |L1.1912|
00069a  2dd0              CMP      r5,#0xd0              ;229
00069c  d06d              BEQ      |L1.1914|
00069e  2dd1              CMP      r5,#0xd1              ;235
0006a0  d06c              BEQ      |L1.1916|
0006a2  2dd2              CMP      r5,#0xd2              ;241
0006a4  d06b              BEQ      |L1.1918|
0006a6  2dd3              CMP      r5,#0xd3              ;247
0006a8  d06a              BEQ      |L1.1920|
0006aa  2dd4              CMP      r5,#0xd4              ;253
0006ac  d069              BEQ      |L1.1922|
0006ae  2dd5              CMP      r5,#0xd5              ;259
0006b0  d068              BEQ      |L1.1924|
;;;263    		i++;
;;;264    		}
;;;265    	else if(in[i]=='Ö')
0006b2  2dd6              CMP      r5,#0xd6
0006b4  d067              BEQ      |L1.1926|
;;;266    		{
;;;267    		output[ii++]='^';
;;;268    		output[ii++]='C';
;;;269    		i++;
;;;270    		}
;;;271    	else if(in[i]=='×')
0006b6  2dd7              CMP      r5,#0xd7
0006b8  d066              BEQ      |L1.1928|
;;;272    		{
;;;273    		output[ii++]='^';
;;;274    		output[ii++]='Y';
;;;275    		i++;
;;;276    		}
;;;277    	else if(in[i]=='Ø')
0006ba  2dd8              CMP      r5,#0xd8
0006bc  d07e              BEQ      |L1.1980|
;;;278    		{
;;;279    		output[ii++]='^';
;;;280    		output[ii++]='X';
;;;281    		output[ii++]='A';
;;;282    		i++;
;;;283    		}
;;;284    	else if(in[i]=='Ù')
0006be  2dd9              CMP      r5,#0xd9
0006c0  d07d              BEQ      |L1.1982|
;;;285    		{
;;;286    		output[ii++]='^';
;;;287    		output[ii++]='X';
;;;288    		output[ii++]='D';
;;;289    		i++;
;;;290    		}
;;;291    	else if(in[i]=='Ú')
0006c2  2dda              CMP      r5,#0xda
0006c4  d07c              BEQ      |L1.1984|
;;;292    		{
;;;293    		output[ii++]='^';
;;;294    		output[ii++]='X';
;;;295    		output[ii++]='B';
;;;296    		i++;
;;;297    		}
;;;298    	else if(in[i]=='Û')
0006c6  2ddb              CMP      r5,#0xdb
0006c8  d07b              BEQ      |L1.1986|
;;;299    		{
;;;300    		output[ii++]='^';
;;;301    		output[ii++]='X';
;;;302    		output[ii++]='F';
;;;303    		i++;
;;;304    		}
;;;305    	else if(in[i]=='Ü')
0006ca  2ddc              CMP      r5,#0xdc
0006cc  d07a              BEQ      |L1.1988|
;;;306    		{
;;;307    		output[ii++]='^';
;;;308    		output[ii++]='X';
;;;309    		output[ii++]='G';
;;;310    		i++;
;;;311    		}
;;;312    	else if(in[i]=='Ý')
0006ce  2ddd              CMP      r5,#0xdd
0006d0  d079              BEQ      |L1.1990|
;;;313    		{
;;;314    		output[ii++]='^';
;;;315    		output[ii++]='X';
;;;316    		output[ii++]='H';
;;;317    		i++;
;;;318    		}
;;;319    	else if(in[i]=='Þ')
0006d2  2dde              CMP      r5,#0xde
0006d4  d078              BEQ      |L1.1992|
;;;320    		{
;;;321    		output[ii++]='^';
;;;322    		output[ii++]='V';
;;;323    		i++;
;;;324    		}
;;;325    	else if(in[i]=='ß')
0006d6  2ddf              CMP      r5,#0xdf
0006d8  d077              BEQ      |L1.1994|
;;;326    		{
;;;327    		output[ii++]='^';
;;;328    		output[ii++]='Q';
;;;329    		i++;
;;;330    		}
;;;331    	else if(in[i]=='à')
0006da  2de0              CMP      r5,#0xe0
0006dc  d076              BEQ      |L1.1996|
;;;332    		{
;;;333    		output[ii++]='^';
;;;334    		output[ii++]='a';
;;;335    		i++;
;;;336    		}
;;;337    	else if(in[i]=='á')
0006de  2de1              CMP      r5,#0xe1
0006e0  d075              BEQ      |L1.1998|
;;;338    		{
;;;339    		output[ii++]='^';
;;;340    		output[ii++]='b';
;;;341    		i++;
;;;342    		}
;;;343    	else if(in[i]=='â')
0006e2  2de2              CMP      r5,#0xe2
0006e4  d074              BEQ      |L1.2000|
;;;344    		{
;;;345    		output[ii++]='^';
;;;346    		output[ii++]='w';
;;;347    		i++;
;;;348    		}
;;;349    	else if(in[i]=='ã')
0006e6  2de3              CMP      r5,#0xe3
0006e8  d073              BEQ      |L1.2002|
;;;350    		{
;;;351    		output[ii++]='^';
;;;352    		output[ii++]='g';
;;;353    		i++;
;;;354    		}
;;;355    	else if(in[i]=='ä')
0006ea  2de4              CMP      r5,#0xe4
0006ec  d072              BEQ      |L1.2004|
;;;356    		{
;;;357    		output[ii++]='^';
;;;358    		output[ii++]='d';
;;;359    		i++;
;;;360    		}
;;;361    	else if(in[i]=='å')
0006ee  2de5              CMP      r5,#0xe5
0006f0  d071              BEQ      |L1.2006|
;;;362    		{
;;;363    		output[ii++]='^';
;;;364    		output[ii++]='e';
;;;365    		i++;
;;;366    		}
;;;367    	else if(in[i]=='¸')
0006f2  2db8              CMP      r5,#0xb8
0006f4  d070              BEQ      |L1.2008|
;;;368    		{
;;;369    		output[ii++]='^';
;;;370    		output[ii++]='X';
;;;371    		output[ii++]='e';
;;;372    		i++;
;;;373    		}
;;;374    	else if(in[i]=='æ')
0006f6  2de6              CMP      r5,#0xe6
0006f8  d06f              BEQ      |L1.2010|
;;;375    		{
;;;376    		output[ii++]='^';
;;;377    		output[ii++]='X';
;;;378    		output[ii++]='c';
;;;379    		i++;
;;;380    		}
;;;381    	else if(in[i]=='ç')
0006fa  2de7              CMP      r5,#0xe7
0006fc  d06e              BEQ      |L1.2012|
;;;382    		{
;;;383    		output[ii++]='^';
;;;384    		output[ii++]='z';
;;;385    		i++;
;;;386    		}
;;;387    	else if(in[i]=='è')
0006fe  2de8              CMP      r5,#0xe8
000700  d06d              BEQ      |L1.2014|
;;;388    		{
;;;389    		output[ii++]='^';
;;;390    		output[ii++]='i';
;;;391    		i++;
;;;392    		}
;;;393    	else if(in[i]=='é')
000702  2de9              CMP      r5,#0xe9
000704  d06c              BEQ      |L1.2016|
;;;394    		{
;;;395    		output[ii++]='^';
;;;396    		output[ii++]='j';
;;;397    		i++;
;;;398    		}
;;;399    	else if(in[i]=='ê')
000706  2dea              CMP      r5,#0xea
000708  d06b              BEQ      |L1.2018|
;;;400    		{
;;;401    		output[ii++]='^';
;;;402    		output[ii++]='k';
;;;403    		i++;
;;;404    		}
;;;405    	else if(in[i]=='ë')
00070a  2deb              CMP      r5,#0xeb
00070c  d06a              BEQ      |L1.2020|
;;;406    		{
;;;407    		output[ii++]='^';
;;;408    		output[ii++]='l';
;;;409    		i++;
;;;410    		}
;;;411    	else if(in[i]=='ì')
00070e  2dec              CMP      r5,#0xec
000710  d069              BEQ      |L1.2022|
;;;412    		{
;;;413    		output[ii++]='^';
;;;414    		output[ii++]='m';
;;;415    		i++;
;;;416    		}
;;;417    	else if(in[i]=='í')
000712  2ded              CMP      r5,#0xed
000714  d068              BEQ      |L1.2024|
;;;418    		{
;;;419    		output[ii++]='^';
;;;420    		output[ii++]='n';
;;;421    		i++;
;;;422    		}
;;;423    	else if(in[i]=='î')
000716  2dee              CMP      r5,#0xee
000718  d067              BEQ      |L1.2026|
;;;424    		{
;;;425    		output[ii++]='^';
;;;426    		output[ii++]='o';
;;;427    		i++;
;;;428    		}
;;;429    	else if(in[i]=='ï')
00071a  2def              CMP      r5,#0xef
00071c  d066              BEQ      |L1.2028|
;;;430    		{
;;;431    		output[ii++]='^';
;;;432    		output[ii++]='p';
;;;433    		i++;
;;;434    		}
;;;435    	else if(in[i]=='ð')
00071e  2df0              CMP      r5,#0xf0
000720  d074              BEQ      |L1.2060|
;;;436    		{
;;;437    		output[ii++]='^';
;;;438    		output[ii++]='r';
;;;439    		i++;
;;;440    		}
;;;441    	else if(in[i]=='ñ')
000722  2df1              CMP      r5,#0xf1
000724  d073              BEQ      |L1.2062|
;;;442    		{
;;;443    		output[ii++]='^';
;;;444    		output[ii++]='s';
;;;445    		i++;
;;;446    		}
;;;447    	else if(in[i]=='ò')
000726  2df2              CMP      r5,#0xf2
000728  d072              BEQ      |L1.2064|
;;;448    		{
;;;449    		output[ii++]='^';
;;;450    		output[ii++]='t';
;;;451    		i++;
;;;452    		}
;;;453    	else if(in[i]=='ó')
00072a  2df3              CMP      r5,#0xf3
00072c  d071              BEQ      |L1.2066|
;;;454    		{
;;;455    		output[ii++]='^';
;;;456    		output[ii++]='u';
;;;457    		i++;
;;;458    		}
;;;459    	else if(in[i]=='ô')
00072e  2df4              CMP      r5,#0xf4
000730  d070              BEQ      |L1.2068|
;;;460    		{
;;;461    		output[ii++]='^';
;;;462    		output[ii++]='f';
;;;463    		i++;
;;;464    		}
;;;465    	else if(in[i]=='õ')
000732  2df5              CMP      r5,#0xf5
000734  d06f              BEQ      |L1.2070|
;;;466    		{
;;;467    		output[ii++]='^';
;;;468    		output[ii++]='h';
;;;469    		i++;
;;;470    		}
;;;471    	else if(in[i]=='ö')
000736  2df6              CMP      r5,#0xf6
000738  d06e              BEQ      |L1.2072|
;;;472    		{
;;;473    		output[ii++]='^';
;;;474    		output[ii++]='c';
;;;475    		i++;
;;;476    		}
;;;477    	else if(in[i]=='÷')
00073a  2df7              CMP      r5,#0xf7
00073c  d06d              BEQ      |L1.2074|
;;;478    		{
;;;479    		output[ii++]='^';
;;;480    		output[ii++]='y';
;;;481    		i++;
;;;482    		}
;;;483    	else if(in[i]=='ø')
00073e  2df8              CMP      r5,#0xf8
000740  d06c              BEQ      |L1.2076|
;;;484    		{
;;;485    		output[ii++]='^';
;;;486    		output[ii++]='X';
;;;487    		output[ii++]='a';
;;;488    		i++;
;;;489    		}
;;;490    	else if(in[i]=='ù')
000742  2df9              CMP      r5,#0xf9
000744  d06b              BEQ      |L1.2078|
;;;491    		{
;;;492    		output[ii++]='^';
;;;493    		output[ii++]='X';
;;;494    		output[ii++]='d';
;;;495    		i++;
;;;496    		}
;;;497    	else if(in[i]=='ú')
000746  2dfa              CMP      r5,#0xfa
000748  d06a              BEQ      |L1.2080|
;;;498    		{
;;;499    		output[ii++]='^';
;;;500    		output[ii++]='X';
;;;501    		output[ii++]='b';
;;;502    		i++;
;;;503    		}
;;;504    	else if(in[i]=='û')
00074a  2dfb              CMP      r5,#0xfb
00074c  d069              BEQ      |L1.2082|
;;;505    		{
;;;506    		output[ii++]='^';
;;;507    		output[ii++]='X';
;;;508    		output[ii++]='f';
;;;509    		i++;
;;;510    		}
;;;511    	else if(in[i]=='ü')
00074e  2dfc              CMP      r5,#0xfc
000750  d068              BEQ      |L1.2084|
;;;512    		{
;;;513    		output[ii++]='^';
;;;514    		output[ii++]='X';
;;;515    		output[ii++]='g';
;;;516    		i++;
;;;517    		}
;;;518    	else if(in[i]=='ý')
000752  2dfd              CMP      r5,#0xfd
000754  d067              BEQ      |L1.2086|
;;;519    		{
;;;520    		output[ii++]='^';
;;;521    		output[ii++]='X';
;;;522    		output[ii++]='h';
;;;523    		i++;
;;;524    		}
;;;525    	else if(in[i]=='þ')
000756  e018              B        |L1.1930|
                  |L1.1880|
000758  e04c              B        |L1.2036|
                  |L1.1882|
00075a  e065              B        |L1.2088|
                  |L1.1884|
00075c  e071              B        |L1.2114|
                  |L1.1886|
00075e  e07f              B        |L1.2144|
                  |L1.1888|
000760  e08f              B        |L1.2178|
                  |L1.1890|
000762  e09b              B        |L1.2204|
                  |L1.1892|
000764  e0a9              B        |L1.2234|
                  |L1.1894|
000766  e0bd              B        |L1.2276|
                  |L1.1896|
000768  e0d1              B        |L1.2318|
                  |L1.1898|
00076a  e0df              B        |L1.2348|
                  |L1.1900|
00076c  e0ed              B        |L1.2378|
                  |L1.1902|
00076e  e0fb              B        |L1.2408|
                  |L1.1904|
000770  e109              B        |L1.2438|
                  |L1.1906|
000772  e117              B        |L1.2468|
                  |L1.1908|
000774  e125              B        |L1.2498|
                  |L1.1910|
000776  e133              B        |L1.2528|
                  |L1.1912|
000778  e141              B        |L1.2558|
                  |L1.1914|
00077a  e151              B        |L1.2592|
                  |L1.1916|
00077c  e15f              B        |L1.2622|
                  |L1.1918|
00077e  e16d              B        |L1.2652|
                  |L1.1920|
000780  e17b              B        |L1.2682|
                  |L1.1922|
000782  e189              B        |L1.2712|
                  |L1.1924|
000784  e195              B        |L1.2738|
                  |L1.1926|
000786  e1a1              B        |L1.2764|
                  |L1.1928|
000788  e1af              B        |L1.2794|
                  |L1.1930|
00078a  2dfe              CMP      r5,#0xfe
00078c  d075              BEQ      |L1.2170|
;;;526    		{
;;;527    		output[ii++]='^';
;;;528    		output[ii++]='v';
;;;529    		i++;
;;;530    		}
;;;531    	else if(in[i]=='ÿ')
00078e  2dff              CMP      r5,#0xff
000790  d074              BEQ      |L1.2172|
;;;532    		{
;;;533    		output[ii++]='^';
;;;534    		output[ii++]='q';
;;;535    		i++;
;;;536    		}
;;;537    	else if(in[i]=='°')
000792  2db0              CMP      r5,#0xb0
000794  d073              BEQ      |L1.2174|
;;;538    		{
;;;539    		output[ii++]='^';
;;;540    		output[ii++]='X';
;;;541    		output[ii++]='i';
;;;542    		i++;
;;;543    		}
;;;544    	else if(in[i]=='¹')
000796  2db9              CMP      r5,#0xb9
000798  d072              BEQ      |L1.2176|
;;;545    		{
;;;546    		output[ii++]='^';
;;;547    		output[ii++]='X';
;;;548    		output[ii++]='j';
;;;549    		i++;
;;;550    		}
;;;551    	else
;;;552    		{
;;;553    		output[ii++]=in[i++];
00079a  4615              MOV      r5,r2
00079c  468e              MOV      lr,r1
00079e  f1020201          ADD      r2,r2,#1
0007a2  5d75              LDRB     r5,[r6,r5]
0007a4  f1010101          ADD      r1,r1,#1
0007a8  b212              SXTH     r2,r2
0007aa  b209              SXTH     r1,r1
0007ac  f800500e          STRB     r5,[r0,lr]
                  |L1.1968|
0007b0  5cb5              LDRB     r5,[r6,r2]            ;123
0007b2  2d00              CMP      r5,#0                 ;123
0007b4  f47faf4f          BNE      |L1.1622|
;;;554    		}
;;;555    	}
;;;556    
;;;557    /*while(in[i])
;;;558    	{
;;;559    	output[ii++]=in[i++];
;;;560    	}*/
;;;561    
;;;562    output[ii++]=0;	
0007b8  462a              MOV      r2,r5
0007ba  e018              B        |L1.2030|
                  |L1.1980|
0007bc  e1a4              B        |L1.2824|
                  |L1.1982|
0007be  e1b5              B        |L1.2860|
                  |L1.1984|
0007c0  e1c7              B        |L1.2898|
                  |L1.1986|
0007c2  e1d9              B        |L1.2936|
                  |L1.1988|
0007c4  e1eb              B        |L1.2974|
                  |L1.1990|
0007c6  e1fd              B        |L1.3012|
                  |L1.1992|
0007c8  e20f              B        |L1.3050|
                  |L1.1994|
0007ca  e21d              B        |L1.3080|
                  |L1.1996|
0007cc  e22b              B        |L1.3110|
                  |L1.1998|
0007ce  e239              B        |L1.3140|
                  |L1.2000|
0007d0  e247              B        |L1.3170|
                  |L1.2002|
0007d2  e255              B        |L1.3200|
                  |L1.2004|
0007d4  e263              B        |L1.3230|
                  |L1.2006|
0007d6  e271              B        |L1.3260|
                  |L1.2008|
0007d8  e27f              B        |L1.3290|
                  |L1.2010|
0007da  e293              B        |L1.3332|
                  |L1.2012|
0007dc  e2a7              B        |L1.3374|
                  |L1.2014|
0007de  e2b5              B        |L1.3404|
                  |L1.2016|
0007e0  e2c3              B        |L1.3434|
                  |L1.2018|
0007e2  e2d1              B        |L1.3464|
                  |L1.2020|
0007e4  e2df              B        |L1.3494|
                  |L1.2022|
0007e6  e2ed              B        |L1.3524|
                  |L1.2024|
0007e8  e2fb              B        |L1.3554|
                  |L1.2026|
0007ea  e309              B        |L1.3584|
                  |L1.2028|
0007ec  e317              B        |L1.3614|
                  |L1.2030|
0007ee  5442              STRB     r2,[r0,r1]
;;;563    /*
;;;564    for(i=0;i<4;i++)
;;;565    	{
;;;566    	output[ii++]=in[i++];
;;;567    	}  
;;;568    
;;;569    output[0]='0';
;;;570    output[1]='1';
;;;571    output[2]='2';
;;;572    output[3]='3';
;;;573    output[4]='4';
;;;574    output[5]='5';
;;;575    output[6]='6';
;;;576    output[7]='7';
;;;577    output[8]='8';
;;;578    output[9]='9';
;;;579    output[10]='a';
;;;580    output[11]='b';
;;;581    output[12]='c';
;;;582    output[13]='d';
;;;583    output[14]='e';
;;;584    output[15]='f';
;;;585    output[16]='g';
;;;586    output[17]='h';
;;;587    output[18]='i';
;;;588    output[19]='j';
;;;589    output[20]=0;  */
;;;590    
;;;591    return output;
;;;592    }
0007f0  e8bd8ff0          POP      {r4-r11,pc}
                  |L1.2036|
0007f4  f1010501          ADD      r5,r1,#1              ;127
0007f8  b22d              SXTH     r5,r5                 ;127
0007fa  5443              STRB     r3,[r0,r1]            ;127
0007fc  f1050101          ADD      r1,r5,#1              ;128
000800  b209              SXTH     r1,r1                 ;128
000802  5547              STRB     r7,[r0,r5]            ;128
000804  f1020201          ADD      r2,r2,#1              ;129
000808  b212              SXTH     r2,r2                 ;129
                  |L1.2058|
00080a  e7d1              B        |L1.1968|
                  |L1.2060|
00080c  e316              B        |L1.3644|
                  |L1.2062|
00080e  e324              B        |L1.3674|
                  |L1.2064|
000810  e332              B        |L1.3704|
                  |L1.2066|
000812  e340              B        |L1.3734|
                  |L1.2068|
000814  e34e              B        |L1.3764|
                  |L1.2070|
000816  e35c              B        |L1.3794|
                  |L1.2072|
000818  e36a              B        |L1.3824|
                  |L1.2074|
00081a  e378              B        |L1.3854|
                  |L1.2076|
00081c  e386              B        |L1.3884|
                  |L1.2078|
00081e  e39a              B        |L1.3926|
                  |L1.2080|
000820  e3ae              B        |L1.3968|
                  |L1.2082|
000822  e3c2              B        |L1.4010|
                  |L1.2084|
000824  e3d6              B        |L1.4052|
                  |L1.2086|
000826  e3ea              B        |L1.4094|
                  |L1.2088|
000828  f1010501          ADD      r5,r1,#1              ;133
00082c  b22d              SXTH     r5,r5                 ;133
00082e  5443              STRB     r3,[r0,r1]            ;133
000830  f1050101          ADD      r1,r5,#1              ;134
000834  b209              SXTH     r1,r1                 ;134
000836  f8008005          STRB     r8,[r0,r5]            ;134
00083a  f1020201          ADD      r2,r2,#1              ;135
00083e  b212              SXTH     r2,r2                 ;135
                  |L1.2112|
000840  e7b6              B        |L1.1968|
                  |L1.2114|
000842  f1010501          ADD      r5,r1,#1              ;139
000846  b22d              SXTH     r5,r5                 ;139
000848  5443              STRB     r3,[r0,r1]            ;139
00084a  f04f0e57          MOV      lr,#0x57              ;140
00084e  f1050101          ADD      r1,r5,#1              ;140
000852  b209              SXTH     r1,r1                 ;140
000854  f800e005          STRB     lr,[r0,r5]            ;140
000858  f1020201          ADD      r2,r2,#1              ;141
00085c  b212              SXTH     r2,r2                 ;141
                  |L1.2142|
00085e  e7a7              B        |L1.1968|
                  |L1.2144|
000860  f1010501          ADD      r5,r1,#1              ;145
000864  b22d              SXTH     r5,r5                 ;145
000866  5443              STRB     r3,[r0,r1]            ;145
000868  f1050101          ADD      r1,r5,#1              ;146
00086c  b209              SXTH     r1,r1                 ;146
00086e  f800a005          STRB     r10,[r0,r5]           ;146
000872  f1020201          ADD      r2,r2,#1              ;147
000876  b212              SXTH     r2,r2                 ;147
                  |L1.2168|
000878  e79a              B        |L1.1968|
                  |L1.2170|
00087a  e3d5              B        |L1.4136|
                  |L1.2172|
00087c  e3e3              B        |L1.4166|
                  |L1.2174|
00087e  e3f1              B        |L1.4196|
                  |L1.2176|
000880  e3f1              B        |L1.4198|
                  |L1.2178|
000882  f1010501          ADD      r5,r1,#1              ;151
000886  b22d              SXTH     r5,r5                 ;151
000888  5443              STRB     r3,[r0,r1]            ;151
00088a  f1050101          ADD      r1,r5,#1              ;152
00088e  b209              SXTH     r1,r1                 ;152
000890  f800c005          STRB     r12,[r0,r5]           ;152
000894  f1020201          ADD      r2,r2,#1              ;153
000898  b212              SXTH     r2,r2                 ;153
00089a  e789              B        |L1.1968|
                  |L1.2204|
00089c  f1010501          ADD      r5,r1,#1              ;157
0008a0  b22d              SXTH     r5,r5                 ;157
0008a2  5443              STRB     r3,[r0,r1]            ;157
0008a4  f04f0e45          MOV      lr,#0x45              ;158
0008a8  f1050101          ADD      r1,r5,#1              ;158
0008ac  b209              SXTH     r1,r1                 ;158
0008ae  f800e005          STRB     lr,[r0,r5]            ;158
0008b2  f1020201          ADD      r2,r2,#1              ;159
0008b6  b212              SXTH     r2,r2                 ;159
                  |L1.2232|
0008b8  e77a              B        |L1.1968|
                  |L1.2234|
0008ba  f1010501          ADD      r5,r1,#1              ;163
0008be  fa0ffe85          SXTH     lr,r5                 ;163
0008c2  5443              STRB     r3,[r0,r1]            ;163
0008c4  f10e0101          ADD      r1,lr,#1              ;164
0008c8  b20d              SXTH     r5,r1                 ;164
0008ca  f800400e          STRB     r4,[r0,lr]            ;164
0008ce  f04f0e45          MOV      lr,#0x45              ;165
0008d2  f1050101          ADD      r1,r5,#1              ;165
0008d6  b209              SXTH     r1,r1                 ;165
0008d8  f800e005          STRB     lr,[r0,r5]            ;165
0008dc  f1020201          ADD      r2,r2,#1              ;166
0008e0  b212              SXTH     r2,r2                 ;166
                  |L1.2274|
0008e2  e765              B        |L1.1968|
                  |L1.2276|
0008e4  f1010501          ADD      r5,r1,#1              ;170
0008e8  fa0ffe85          SXTH     lr,r5                 ;170
0008ec  5443              STRB     r3,[r0,r1]            ;170
0008ee  f10e0101          ADD      r1,lr,#1              ;171
0008f2  b20d              SXTH     r5,r1                 ;171
0008f4  f800400e          STRB     r4,[r0,lr]            ;171
0008f8  f04f0e43          MOV      lr,#0x43              ;172
0008fc  f1050101          ADD      r1,r5,#1              ;172
000900  b209              SXTH     r1,r1                 ;172
000902  f800e005          STRB     lr,[r0,r5]            ;172
000906  f1020201          ADD      r2,r2,#1              ;173
00090a  b212              SXTH     r2,r2                 ;173
00090c  e750              B        |L1.1968|
                  |L1.2318|
00090e  f1010501          ADD      r5,r1,#1              ;177
000912  b22d              SXTH     r5,r5                 ;177
000914  5443              STRB     r3,[r0,r1]            ;177
000916  f04f0e5a          MOV      lr,#0x5a              ;178
00091a  f1050101          ADD      r1,r5,#1              ;178
00091e  b209              SXTH     r1,r1                 ;178
000920  f800e005          STRB     lr,[r0,r5]            ;178
000924  f1020201          ADD      r2,r2,#1              ;179
000928  b212              SXTH     r2,r2                 ;179
00092a  e741              B        |L1.1968|
                  |L1.2348|
00092c  f1010501          ADD      r5,r1,#1              ;183
000930  b22d              SXTH     r5,r5                 ;183
000932  5443              STRB     r3,[r0,r1]            ;183
000934  f04f0e49          MOV      lr,#0x49              ;184
000938  f1050101          ADD      r1,r5,#1              ;184
00093c  b209              SXTH     r1,r1                 ;184
00093e  f800e005          STRB     lr,[r0,r5]            ;184
000942  f1020201          ADD      r2,r2,#1              ;185
000946  b212              SXTH     r2,r2                 ;185
000948  e732              B        |L1.1968|
                  |L1.2378|
00094a  f1010501          ADD      r5,r1,#1              ;189
00094e  b22d              SXTH     r5,r5                 ;189
000950  5443              STRB     r3,[r0,r1]            ;189
000952  f04f0e4a          MOV      lr,#0x4a              ;190
000956  f1050101          ADD      r1,r5,#1              ;190
00095a  b209              SXTH     r1,r1                 ;190
00095c  f800e005          STRB     lr,[r0,r5]            ;190
000960  f1020201          ADD      r2,r2,#1              ;191
000964  b212              SXTH     r2,r2                 ;191
000966  e723              B        |L1.1968|
                  |L1.2408|
000968  f1010501          ADD      r5,r1,#1              ;195
00096c  b22d              SXTH     r5,r5                 ;195
00096e  5443              STRB     r3,[r0,r1]            ;195
000970  f04f0e4b          MOV      lr,#0x4b              ;196
000974  f1050101          ADD      r1,r5,#1              ;196
000978  b209              SXTH     r1,r1                 ;196
00097a  f800e005          STRB     lr,[r0,r5]            ;196
00097e  f1020201          ADD      r2,r2,#1              ;197
000982  b212              SXTH     r2,r2                 ;197
000984  e714              B        |L1.1968|
                  |L1.2438|
000986  f1010501          ADD      r5,r1,#1              ;201
00098a  b22d              SXTH     r5,r5                 ;201
00098c  5443              STRB     r3,[r0,r1]            ;201
00098e  f04f0e4c          MOV      lr,#0x4c              ;202
000992  f1050101          ADD      r1,r5,#1              ;202
000996  b209              SXTH     r1,r1                 ;202
000998  f800e005          STRB     lr,[r0,r5]            ;202
00099c  f1020201          ADD      r2,r2,#1              ;203
0009a0  b212              SXTH     r2,r2                 ;203
0009a2  e705              B        |L1.1968|
                  |L1.2468|
0009a4  f1010501          ADD      r5,r1,#1              ;207
0009a8  b22d              SXTH     r5,r5                 ;207
0009aa  5443              STRB     r3,[r0,r1]            ;207
0009ac  f04f0e4d          MOV      lr,#0x4d              ;208
0009b0  f1050101          ADD      r1,r5,#1              ;208
0009b4  b209              SXTH     r1,r1                 ;208
0009b6  f800e005          STRB     lr,[r0,r5]            ;208
0009ba  f1020201          ADD      r2,r2,#1              ;209
0009be  b212              SXTH     r2,r2                 ;209
0009c0  e6f6              B        |L1.1968|
                  |L1.2498|
0009c2  f1010501          ADD      r5,r1,#1              ;213
0009c6  b22d              SXTH     r5,r5                 ;213
0009c8  5443              STRB     r3,[r0,r1]            ;213
0009ca  f04f0e4e          MOV      lr,#0x4e              ;214
0009ce  f1050101          ADD      r1,r5,#1              ;214
0009d2  b209              SXTH     r1,r1                 ;214
0009d4  f800e005          STRB     lr,[r0,r5]            ;214
0009d8  f1020201          ADD      r2,r2,#1              ;215
0009dc  b212              SXTH     r2,r2                 ;215
0009de  e6e7              B        |L1.1968|
                  |L1.2528|
0009e0  f1010501          ADD      r5,r1,#1              ;219
0009e4  b22d              SXTH     r5,r5                 ;219
0009e6  5443              STRB     r3,[r0,r1]            ;219
0009e8  f04f0e4f          MOV      lr,#0x4f              ;220
0009ec  f1050101          ADD      r1,r5,#1              ;220
0009f0  b209              SXTH     r1,r1                 ;220
0009f2  f800e005          STRB     lr,[r0,r5]            ;220
0009f6  f1020201          ADD      r2,r2,#1              ;221
0009fa  b212              SXTH     r2,r2                 ;221
0009fc  e6d8              B        |L1.1968|
                  |L1.2558|
0009fe  f1010501          ADD      r5,r1,#1              ;225
000a02  b22d              SXTH     r5,r5                 ;225
000a04  5443              STRB     r3,[r0,r1]            ;225
000a06  f04f0e50          MOV      lr,#0x50              ;226
000a0a  f1050101          ADD      r1,r5,#1              ;226
000a0e  b209              SXTH     r1,r1                 ;226
000a10  f800e005          STRB     lr,[r0,r5]            ;226
000a14  f1020201          ADD      r2,r2,#1              ;227
000a18  b212              SXTH     r2,r2                 ;227
000a1a  e6c9              B        |L1.1968|
                  |L1.2588|
                          DCD      ||.bss||+0x46
                  |L1.2592|
000a20  f1010501          ADD      r5,r1,#1              ;231
000a24  b22d              SXTH     r5,r5                 ;231
000a26  5443              STRB     r3,[r0,r1]            ;231
000a28  f04f0e52          MOV      lr,#0x52              ;232
000a2c  f1050101          ADD      r1,r5,#1              ;232
000a30  b209              SXTH     r1,r1                 ;232
000a32  f800e005          STRB     lr,[r0,r5]            ;232
000a36  f1020201          ADD      r2,r2,#1              ;233
000a3a  b212              SXTH     r2,r2                 ;233
000a3c  e6b8              B        |L1.1968|
                  |L1.2622|
000a3e  f1010501          ADD      r5,r1,#1              ;237
000a42  b22d              SXTH     r5,r5                 ;237
000a44  5443              STRB     r3,[r0,r1]            ;237
000a46  f04f0e53          MOV      lr,#0x53              ;238
000a4a  f1050101          ADD      r1,r5,#1              ;238
000a4e  b209              SXTH     r1,r1                 ;238
000a50  f800e005          STRB     lr,[r0,r5]            ;238
000a54  f1020201          ADD      r2,r2,#1              ;239
000a58  b212              SXTH     r2,r2                 ;239
000a5a  e6a9              B        |L1.1968|
                  |L1.2652|
000a5c  f1010501          ADD      r5,r1,#1              ;243
000a60  b22d              SXTH     r5,r5                 ;243
000a62  5443              STRB     r3,[r0,r1]            ;243
000a64  f04f0e54          MOV      lr,#0x54              ;244
000a68  f1050101          ADD      r1,r5,#1              ;244
000a6c  b209              SXTH     r1,r1                 ;244
000a6e  f800e005          STRB     lr,[r0,r5]            ;244
000a72  f1020201          ADD      r2,r2,#1              ;245
000a76  b212              SXTH     r2,r2                 ;245
000a78  e69a              B        |L1.1968|
                  |L1.2682|
000a7a  f1010501          ADD      r5,r1,#1              ;249
000a7e  b22d              SXTH     r5,r5                 ;249
000a80  5443              STRB     r3,[r0,r1]            ;249
000a82  f04f0e55          MOV      lr,#0x55              ;250
000a86  f1050101          ADD      r1,r5,#1              ;250
000a8a  b209              SXTH     r1,r1                 ;250
000a8c  f800e005          STRB     lr,[r0,r5]            ;250
000a90  f1020201          ADD      r2,r2,#1              ;251
000a94  b212              SXTH     r2,r2                 ;251
000a96  e68b              B        |L1.1968|
                  |L1.2712|
000a98  f1010501          ADD      r5,r1,#1              ;255
000a9c  b22d              SXTH     r5,r5                 ;255
000a9e  5443              STRB     r3,[r0,r1]            ;255
000aa0  f1050101          ADD      r1,r5,#1              ;256
000aa4  b209              SXTH     r1,r1                 ;256
000aa6  f8009005          STRB     r9,[r0,r5]            ;256
000aaa  f1020201          ADD      r2,r2,#1              ;257
000aae  b212              SXTH     r2,r2                 ;257
000ab0  e67e              B        |L1.1968|
                  |L1.2738|
000ab2  f1010501          ADD      r5,r1,#1              ;261
000ab6  b22d              SXTH     r5,r5                 ;261
000ab8  5443              STRB     r3,[r0,r1]            ;261
000aba  f1050101          ADD      r1,r5,#1              ;262
000abe  b209              SXTH     r1,r1                 ;262
000ac0  f800b005          STRB     r11,[r0,r5]           ;262
000ac4  f1020201          ADD      r2,r2,#1              ;263
000ac8  b212              SXTH     r2,r2                 ;263
000aca  e671              B        |L1.1968|
                  |L1.2764|
000acc  f1010501          ADD      r5,r1,#1              ;267
000ad0  b22d              SXTH     r5,r5                 ;267
000ad2  5443              STRB     r3,[r0,r1]            ;267
000ad4  f04f0e43          MOV      lr,#0x43              ;268
000ad8  f1050101          ADD      r1,r5,#1              ;268
000adc  b209              SXTH     r1,r1                 ;268
000ade  f800e005          STRB     lr,[r0,r5]            ;268
000ae2  f1020201          ADD      r2,r2,#1              ;269
000ae6  b212              SXTH     r2,r2                 ;269
000ae8  e662              B        |L1.1968|
                  |L1.2794|
000aea  f1010501          ADD      r5,r1,#1              ;273
000aee  b22d              SXTH     r5,r5                 ;273
000af0  5443              STRB     r3,[r0,r1]            ;273
000af2  f04f0e59          MOV      lr,#0x59              ;274
000af6  f1050101          ADD      r1,r5,#1              ;274
000afa  b209              SXTH     r1,r1                 ;274
000afc  f800e005          STRB     lr,[r0,r5]            ;274
000b00  f1020201          ADD      r2,r2,#1              ;275
000b04  b212              SXTH     r2,r2                 ;275
000b06  e653              B        |L1.1968|
                  |L1.2824|
000b08  f1010501          ADD      r5,r1,#1              ;279
000b0c  fa0ffe85          SXTH     lr,r5                 ;279
000b10  5443              STRB     r3,[r0,r1]            ;279
000b12  f10e0101          ADD      r1,lr,#1              ;280
000b16  b20d              SXTH     r5,r1                 ;280
000b18  f800400e          STRB     r4,[r0,lr]            ;280
000b1c  f1050101          ADD      r1,r5,#1              ;281
000b20  b209              SXTH     r1,r1                 ;281
000b22  5547              STRB     r7,[r0,r5]            ;281
000b24  f1020201          ADD      r2,r2,#1              ;282
000b28  b212              SXTH     r2,r2                 ;282
000b2a  e641              B        |L1.1968|
                  |L1.2860|
000b2c  f1010501          ADD      r5,r1,#1              ;286
000b30  fa0ffe85          SXTH     lr,r5                 ;286
000b34  5443              STRB     r3,[r0,r1]            ;286
000b36  f10e0101          ADD      r1,lr,#1              ;287
000b3a  b20d              SXTH     r5,r1                 ;287
000b3c  f800400e          STRB     r4,[r0,lr]            ;287
000b40  f1050101          ADD      r1,r5,#1              ;288
000b44  b209              SXTH     r1,r1                 ;288
000b46  f800c005          STRB     r12,[r0,r5]           ;288
000b4a  f1020201          ADD      r2,r2,#1              ;289
000b4e  b212              SXTH     r2,r2                 ;289
000b50  e62e              B        |L1.1968|
                  |L1.2898|
000b52  f1010501          ADD      r5,r1,#1              ;293
000b56  fa0ffe85          SXTH     lr,r5                 ;293
000b5a  5443              STRB     r3,[r0,r1]            ;293
000b5c  f10e0101          ADD      r1,lr,#1              ;294
000b60  b20d              SXTH     r5,r1                 ;294
000b62  f800400e          STRB     r4,[r0,lr]            ;294
000b66  f1050101          ADD      r1,r5,#1              ;295
000b6a  b209              SXTH     r1,r1                 ;295
000b6c  f8008005          STRB     r8,[r0,r5]            ;295
000b70  f1020201          ADD      r2,r2,#1              ;296
000b74  b212              SXTH     r2,r2                 ;296
000b76  e61b              B        |L1.1968|
                  |L1.2936|
000b78  f1010501          ADD      r5,r1,#1              ;300
000b7c  fa0ffe85          SXTH     lr,r5                 ;300
000b80  5443              STRB     r3,[r0,r1]            ;300
000b82  f10e0101          ADD      r1,lr,#1              ;301
000b86  b20d              SXTH     r5,r1                 ;301
000b88  f800400e          STRB     r4,[r0,lr]            ;301
000b8c  f1050101          ADD      r1,r5,#1              ;302
000b90  b209              SXTH     r1,r1                 ;302
000b92  f8009005          STRB     r9,[r0,r5]            ;302
000b96  f1020201          ADD      r2,r2,#1              ;303
000b9a  b212              SXTH     r2,r2                 ;303
000b9c  e608              B        |L1.1968|
                  |L1.2974|
000b9e  f1010501          ADD      r5,r1,#1              ;307
000ba2  fa0ffe85          SXTH     lr,r5                 ;307
000ba6  5443              STRB     r3,[r0,r1]            ;307
000ba8  f10e0101          ADD      r1,lr,#1              ;308
000bac  b20d              SXTH     r5,r1                 ;308
000bae  f800400e          STRB     r4,[r0,lr]            ;308
000bb2  f1050101          ADD      r1,r5,#1              ;309
000bb6  b209              SXTH     r1,r1                 ;309
000bb8  f800a005          STRB     r10,[r0,r5]           ;309
000bbc  f1020201          ADD      r2,r2,#1              ;310
000bc0  b212              SXTH     r2,r2                 ;310
000bc2  e5f5              B        |L1.1968|
                  |L1.3012|
000bc4  f1010501          ADD      r5,r1,#1              ;314
000bc8  fa0ffe85          SXTH     lr,r5                 ;314
000bcc  5443              STRB     r3,[r0,r1]            ;314
000bce  f10e0101          ADD      r1,lr,#1              ;315
000bd2  b20d              SXTH     r5,r1                 ;315
000bd4  f800400e          STRB     r4,[r0,lr]            ;315
000bd8  f1050101          ADD      r1,r5,#1              ;316
000bdc  b209              SXTH     r1,r1                 ;316
000bde  f800b005          STRB     r11,[r0,r5]           ;316
000be2  f1020201          ADD      r2,r2,#1              ;317
000be6  b212              SXTH     r2,r2                 ;317
000be8  e5e2              B        |L1.1968|
                  |L1.3050|
000bea  f1010501          ADD      r5,r1,#1              ;321
000bee  b22d              SXTH     r5,r5                 ;321
000bf0  5443              STRB     r3,[r0,r1]            ;321
000bf2  f04f0e56          MOV      lr,#0x56              ;322
000bf6  f1050101          ADD      r1,r5,#1              ;322
000bfa  b209              SXTH     r1,r1                 ;322
000bfc  f800e005          STRB     lr,[r0,r5]            ;322
000c00  f1020201          ADD      r2,r2,#1              ;323
000c04  b212              SXTH     r2,r2                 ;323
000c06  e5d3              B        |L1.1968|
                  |L1.3080|
000c08  f1010501          ADD      r5,r1,#1              ;327
000c0c  b22d              SXTH     r5,r5                 ;327
000c0e  5443              STRB     r3,[r0,r1]            ;327
000c10  f04f0e51          MOV      lr,#0x51              ;328
000c14  f1050101          ADD      r1,r5,#1              ;328
000c18  b209              SXTH     r1,r1                 ;328
000c1a  f800e005          STRB     lr,[r0,r5]            ;328
000c1e  f1020201          ADD      r2,r2,#1              ;329
000c22  b212              SXTH     r2,r2                 ;329
000c24  e5c4              B        |L1.1968|
                  |L1.3110|
000c26  f1010501          ADD      r5,r1,#1              ;333
000c2a  b22d              SXTH     r5,r5                 ;333
000c2c  5443              STRB     r3,[r0,r1]            ;333
000c2e  f04f0e61          MOV      lr,#0x61              ;334
000c32  f1050101          ADD      r1,r5,#1              ;334
000c36  b209              SXTH     r1,r1                 ;334
000c38  f800e005          STRB     lr,[r0,r5]            ;334
000c3c  f1020201          ADD      r2,r2,#1              ;335
000c40  b212              SXTH     r2,r2                 ;335
000c42  e5b5              B        |L1.1968|
                  |L1.3140|
000c44  f1010501          ADD      r5,r1,#1              ;339
000c48  b22d              SXTH     r5,r5                 ;339
000c4a  5443              STRB     r3,[r0,r1]            ;339
000c4c  f04f0e62          MOV      lr,#0x62              ;340
000c50  f1050101          ADD      r1,r5,#1              ;340
000c54  b209              SXTH     r1,r1                 ;340
000c56  f800e005          STRB     lr,[r0,r5]            ;340
000c5a  f1020201          ADD      r2,r2,#1              ;341
000c5e  b212              SXTH     r2,r2                 ;341
000c60  e5a6              B        |L1.1968|
                  |L1.3170|
000c62  f1010501          ADD      r5,r1,#1              ;345
000c66  b22d              SXTH     r5,r5                 ;345
000c68  5443              STRB     r3,[r0,r1]            ;345
000c6a  f04f0e77          MOV      lr,#0x77              ;346
000c6e  f1050101          ADD      r1,r5,#1              ;346
000c72  b209              SXTH     r1,r1                 ;346
000c74  f800e005          STRB     lr,[r0,r5]            ;346
000c78  f1020201          ADD      r2,r2,#1              ;347
000c7c  b212              SXTH     r2,r2                 ;347
000c7e  e597              B        |L1.1968|
                  |L1.3200|
000c80  f1010501          ADD      r5,r1,#1              ;351
000c84  b22d              SXTH     r5,r5                 ;351
000c86  5443              STRB     r3,[r0,r1]            ;351
000c88  f04f0e67          MOV      lr,#0x67              ;352
000c8c  f1050101          ADD      r1,r5,#1              ;352
000c90  b209              SXTH     r1,r1                 ;352
000c92  f800e005          STRB     lr,[r0,r5]            ;352
000c96  f1020201          ADD      r2,r2,#1              ;353
000c9a  b212              SXTH     r2,r2                 ;353
000c9c  e588              B        |L1.1968|
                  |L1.3230|
000c9e  f1010501          ADD      r5,r1,#1              ;357
000ca2  b22d              SXTH     r5,r5                 ;357
000ca4  5443              STRB     r3,[r0,r1]            ;357
000ca6  f04f0e64          MOV      lr,#0x64              ;358
000caa  f1050101          ADD      r1,r5,#1              ;358
000cae  b209              SXTH     r1,r1                 ;358
000cb0  f800e005          STRB     lr,[r0,r5]            ;358
000cb4  f1020201          ADD      r2,r2,#1              ;359
000cb8  b212              SXTH     r2,r2                 ;359
000cba  e579              B        |L1.1968|
                  |L1.3260|
000cbc  f1010501          ADD      r5,r1,#1              ;363
000cc0  b22d              SXTH     r5,r5                 ;363
000cc2  5443              STRB     r3,[r0,r1]            ;363
000cc4  f04f0e65          MOV      lr,#0x65              ;364
000cc8  f1050101          ADD      r1,r5,#1              ;364
000ccc  b209              SXTH     r1,r1                 ;364
000cce  f800e005          STRB     lr,[r0,r5]            ;364
000cd2  f1020201          ADD      r2,r2,#1              ;365
000cd6  b212              SXTH     r2,r2                 ;365
000cd8  e56a              B        |L1.1968|
                  |L1.3290|
000cda  f1010501          ADD      r5,r1,#1              ;369
000cde  fa0ffe85          SXTH     lr,r5                 ;369
000ce2  5443              STRB     r3,[r0,r1]            ;369
000ce4  f10e0101          ADD      r1,lr,#1              ;370
000ce8  b20d              SXTH     r5,r1                 ;370
000cea  f800400e          STRB     r4,[r0,lr]            ;370
000cee  f04f0e65          MOV      lr,#0x65              ;371
000cf2  f1050101          ADD      r1,r5,#1              ;371
000cf6  b209              SXTH     r1,r1                 ;371
000cf8  f800e005          STRB     lr,[r0,r5]            ;371
000cfc  f1020201          ADD      r2,r2,#1              ;372
000d00  b212              SXTH     r2,r2                 ;372
000d02  e555              B        |L1.1968|
                  |L1.3332|
000d04  f1010501          ADD      r5,r1,#1              ;376
000d08  fa0ffe85          SXTH     lr,r5                 ;376
000d0c  5443              STRB     r3,[r0,r1]            ;376
000d0e  f10e0101          ADD      r1,lr,#1              ;377
000d12  b20d              SXTH     r5,r1                 ;377
000d14  f800400e          STRB     r4,[r0,lr]            ;377
000d18  f04f0e63          MOV      lr,#0x63              ;378
000d1c  f1050101          ADD      r1,r5,#1              ;378
000d20  b209              SXTH     r1,r1                 ;378
000d22  f800e005          STRB     lr,[r0,r5]            ;378
000d26  f1020201          ADD      r2,r2,#1              ;379
000d2a  b212              SXTH     r2,r2                 ;379
000d2c  e540              B        |L1.1968|
                  |L1.3374|
000d2e  f1010501          ADD      r5,r1,#1              ;383
000d32  b22d              SXTH     r5,r5                 ;383
000d34  5443              STRB     r3,[r0,r1]            ;383
000d36  f04f0e7a          MOV      lr,#0x7a              ;384
000d3a  f1050101          ADD      r1,r5,#1              ;384
000d3e  b209              SXTH     r1,r1                 ;384
000d40  f800e005          STRB     lr,[r0,r5]            ;384
000d44  f1020201          ADD      r2,r2,#1              ;385
000d48  b212              SXTH     r2,r2                 ;385
000d4a  e531              B        |L1.1968|
                  |L1.3404|
000d4c  f1010501          ADD      r5,r1,#1              ;389
000d50  b22d              SXTH     r5,r5                 ;389
000d52  5443              STRB     r3,[r0,r1]            ;389
000d54  f04f0e69          MOV      lr,#0x69              ;390
000d58  f1050101          ADD      r1,r5,#1              ;390
000d5c  b209              SXTH     r1,r1                 ;390
000d5e  f800e005          STRB     lr,[r0,r5]            ;390
000d62  f1020201          ADD      r2,r2,#1              ;391
000d66  b212              SXTH     r2,r2                 ;391
000d68  e522              B        |L1.1968|
                  |L1.3434|
000d6a  f1010501          ADD      r5,r1,#1              ;395
000d6e  b22d              SXTH     r5,r5                 ;395
000d70  5443              STRB     r3,[r0,r1]            ;395
000d72  f04f0e6a          MOV      lr,#0x6a              ;396
000d76  f1050101          ADD      r1,r5,#1              ;396
000d7a  b209              SXTH     r1,r1                 ;396
000d7c  f800e005          STRB     lr,[r0,r5]            ;396
000d80  f1020201          ADD      r2,r2,#1              ;397
000d84  b212              SXTH     r2,r2                 ;397
000d86  e513              B        |L1.1968|
                  |L1.3464|
000d88  f1010501          ADD      r5,r1,#1              ;401
000d8c  b22d              SXTH     r5,r5                 ;401
000d8e  5443              STRB     r3,[r0,r1]            ;401
000d90  f04f0e6b          MOV      lr,#0x6b              ;402
000d94  f1050101          ADD      r1,r5,#1              ;402
000d98  b209              SXTH     r1,r1                 ;402
000d9a  f800e005          STRB     lr,[r0,r5]            ;402
000d9e  f1020201          ADD      r2,r2,#1              ;403
000da2  b212              SXTH     r2,r2                 ;403
000da4  e504              B        |L1.1968|
                  |L1.3494|
000da6  f1010501          ADD      r5,r1,#1              ;407
000daa  b22d              SXTH     r5,r5                 ;407
000dac  5443              STRB     r3,[r0,r1]            ;407
000dae  f04f0e6c          MOV      lr,#0x6c              ;408
000db2  f1050101          ADD      r1,r5,#1              ;408
000db6  b209              SXTH     r1,r1                 ;408
000db8  f800e005          STRB     lr,[r0,r5]            ;408
000dbc  f1020201          ADD      r2,r2,#1              ;409
000dc0  b212              SXTH     r2,r2                 ;409
000dc2  e4f5              B        |L1.1968|
                  |L1.3524|
000dc4  f1010501          ADD      r5,r1,#1              ;413
000dc8  b22d              SXTH     r5,r5                 ;413
000dca  5443              STRB     r3,[r0,r1]            ;413
000dcc  f04f0e6d          MOV      lr,#0x6d              ;414
000dd0  f1050101          ADD      r1,r5,#1              ;414
000dd4  b209              SXTH     r1,r1                 ;414
000dd6  f800e005          STRB     lr,[r0,r5]            ;414
000dda  f1020201          ADD      r2,r2,#1              ;415
000dde  b212              SXTH     r2,r2                 ;415
000de0  e4e6              B        |L1.1968|
                  |L1.3554|
000de2  f1010501          ADD      r5,r1,#1              ;419
000de6  b22d              SXTH     r5,r5                 ;419
000de8  5443              STRB     r3,[r0,r1]            ;419
000dea  f04f0e6e          MOV      lr,#0x6e              ;420
000dee  f1050101          ADD      r1,r5,#1              ;420
000df2  b209              SXTH     r1,r1                 ;420
000df4  f800e005          STRB     lr,[r0,r5]            ;420
000df8  f1020201          ADD      r2,r2,#1              ;421
000dfc  b212              SXTH     r2,r2                 ;421
000dfe  e4d7              B        |L1.1968|
                  |L1.3584|
000e00  f1010501          ADD      r5,r1,#1              ;425
000e04  b22d              SXTH     r5,r5                 ;425
000e06  5443              STRB     r3,[r0,r1]            ;425
000e08  f04f0e6f          MOV      lr,#0x6f              ;426
000e0c  f1050101          ADD      r1,r5,#1              ;426
000e10  b209              SXTH     r1,r1                 ;426
000e12  f800e005          STRB     lr,[r0,r5]            ;426
000e16  f1020201          ADD      r2,r2,#1              ;427
000e1a  b212              SXTH     r2,r2                 ;427
000e1c  e4c8              B        |L1.1968|
                  |L1.3614|
000e1e  f1010501          ADD      r5,r1,#1              ;431
000e22  b22d              SXTH     r5,r5                 ;431
000e24  5443              STRB     r3,[r0,r1]            ;431
000e26  f04f0e70          MOV      lr,#0x70              ;432
000e2a  f1050101          ADD      r1,r5,#1              ;432
000e2e  b209              SXTH     r1,r1                 ;432
000e30  f800e005          STRB     lr,[r0,r5]            ;432
000e34  f1020201          ADD      r2,r2,#1              ;433
000e38  b212              SXTH     r2,r2                 ;433
000e3a  e4b9              B        |L1.1968|
                  |L1.3644|
000e3c  f1010501          ADD      r5,r1,#1              ;437
000e40  b22d              SXTH     r5,r5                 ;437
000e42  5443              STRB     r3,[r0,r1]            ;437
000e44  f04f0e72          MOV      lr,#0x72              ;438
000e48  f1050101          ADD      r1,r5,#1              ;438
000e4c  b209              SXTH     r1,r1                 ;438
000e4e  f800e005          STRB     lr,[r0,r5]            ;438
000e52  f1020201          ADD      r2,r2,#1              ;439
000e56  b212              SXTH     r2,r2                 ;439
000e58  e4aa              B        |L1.1968|
                  |L1.3674|
000e5a  f1010501          ADD      r5,r1,#1              ;443
000e5e  b22d              SXTH     r5,r5                 ;443
000e60  5443              STRB     r3,[r0,r1]            ;443
000e62  f04f0e73          MOV      lr,#0x73              ;444
000e66  f1050101          ADD      r1,r5,#1              ;444
000e6a  b209              SXTH     r1,r1                 ;444
000e6c  f800e005          STRB     lr,[r0,r5]            ;444
000e70  f1020201          ADD      r2,r2,#1              ;445
000e74  b212              SXTH     r2,r2                 ;445
000e76  e49b              B        |L1.1968|
                  |L1.3704|
000e78  f1010501          ADD      r5,r1,#1              ;449
000e7c  b22d              SXTH     r5,r5                 ;449
000e7e  5443              STRB     r3,[r0,r1]            ;449
000e80  f04f0e74          MOV      lr,#0x74              ;450
000e84  f1050101          ADD      r1,r5,#1              ;450
000e88  b209              SXTH     r1,r1                 ;450
000e8a  f800e005          STRB     lr,[r0,r5]            ;450
000e8e  f1020201          ADD      r2,r2,#1              ;451
000e92  b212              SXTH     r2,r2                 ;451
000e94  e48c              B        |L1.1968|
                  |L1.3734|
000e96  f1010501          ADD      r5,r1,#1              ;455
000e9a  b22d              SXTH     r5,r5                 ;455
000e9c  5443              STRB     r3,[r0,r1]            ;455
000e9e  f04f0e75          MOV      lr,#0x75              ;456
000ea2  f1050101          ADD      r1,r5,#1              ;456
000ea6  b209              SXTH     r1,r1                 ;456
000ea8  f800e005          STRB     lr,[r0,r5]            ;456
000eac  f1020201          ADD      r2,r2,#1              ;457
000eb0  b212              SXTH     r2,r2                 ;457
000eb2  e47d              B        |L1.1968|
                  |L1.3764|
000eb4  f1010501          ADD      r5,r1,#1              ;461
000eb8  b22d              SXTH     r5,r5                 ;461
000eba  5443              STRB     r3,[r0,r1]            ;461
000ebc  f04f0e66          MOV      lr,#0x66              ;462
000ec0  f1050101          ADD      r1,r5,#1              ;462
000ec4  b209              SXTH     r1,r1                 ;462
000ec6  f800e005          STRB     lr,[r0,r5]            ;462
000eca  f1020201          ADD      r2,r2,#1              ;463
000ece  b212              SXTH     r2,r2                 ;463
000ed0  e46e              B        |L1.1968|
                  |L1.3794|
000ed2  f1010501          ADD      r5,r1,#1              ;467
000ed6  b22d              SXTH     r5,r5                 ;467
000ed8  5443              STRB     r3,[r0,r1]            ;467
000eda  f04f0e68          MOV      lr,#0x68              ;468
000ede  f1050101          ADD      r1,r5,#1              ;468
000ee2  b209              SXTH     r1,r1                 ;468
000ee4  f800e005          STRB     lr,[r0,r5]            ;468
000ee8  f1020201          ADD      r2,r2,#1              ;469
000eec  b212              SXTH     r2,r2                 ;469
000eee  e45f              B        |L1.1968|
                  |L1.3824|
000ef0  f1010501          ADD      r5,r1,#1              ;473
000ef4  b22d              SXTH     r5,r5                 ;473
000ef6  5443              STRB     r3,[r0,r1]            ;473
000ef8  f04f0e63          MOV      lr,#0x63              ;474
000efc  f1050101          ADD      r1,r5,#1              ;474
000f00  b209              SXTH     r1,r1                 ;474
000f02  f800e005          STRB     lr,[r0,r5]            ;474
000f06  f1020201          ADD      r2,r2,#1              ;475
000f0a  b212              SXTH     r2,r2                 ;475
000f0c  e450              B        |L1.1968|
                  |L1.3854|
000f0e  f1010501          ADD      r5,r1,#1              ;479
000f12  b22d              SXTH     r5,r5                 ;479
000f14  5443              STRB     r3,[r0,r1]            ;479
000f16  f04f0e79          MOV      lr,#0x79              ;480
000f1a  f1050101          ADD      r1,r5,#1              ;480
000f1e  b209              SXTH     r1,r1                 ;480
000f20  f800e005          STRB     lr,[r0,r5]            ;480
000f24  f1020201          ADD      r2,r2,#1              ;481
000f28  b212              SXTH     r2,r2                 ;481
000f2a  e441              B        |L1.1968|
                  |L1.3884|
000f2c  f1010501          ADD      r5,r1,#1              ;485
000f30  fa0ffe85          SXTH     lr,r5                 ;485
000f34  5443              STRB     r3,[r0,r1]            ;485
000f36  f10e0101          ADD      r1,lr,#1              ;486
000f3a  b20d              SXTH     r5,r1                 ;486
000f3c  f800400e          STRB     r4,[r0,lr]            ;486
000f40  f04f0e61          MOV      lr,#0x61              ;487
000f44  f1050101          ADD      r1,r5,#1              ;487
000f48  b209              SXTH     r1,r1                 ;487
000f4a  f800e005          STRB     lr,[r0,r5]            ;487
000f4e  f1020201          ADD      r2,r2,#1              ;488
000f52  b212              SXTH     r2,r2                 ;488
000f54  e42c              B        |L1.1968|
                  |L1.3926|
000f56  f1010501          ADD      r5,r1,#1              ;492
000f5a  fa0ffe85          SXTH     lr,r5                 ;492
000f5e  5443              STRB     r3,[r0,r1]            ;492
000f60  f10e0101          ADD      r1,lr,#1              ;493
000f64  b20d              SXTH     r5,r1                 ;493
000f66  f800400e          STRB     r4,[r0,lr]            ;493
000f6a  f04f0e64          MOV      lr,#0x64              ;494
000f6e  f1050101          ADD      r1,r5,#1              ;494
000f72  b209              SXTH     r1,r1                 ;494
000f74  f800e005          STRB     lr,[r0,r5]            ;494
000f78  f1020201          ADD      r2,r2,#1              ;495
000f7c  b212              SXTH     r2,r2                 ;495
000f7e  e417              B        |L1.1968|
                  |L1.3968|
000f80  f1010501          ADD      r5,r1,#1              ;499
000f84  fa0ffe85          SXTH     lr,r5                 ;499
000f88  5443              STRB     r3,[r0,r1]            ;499
000f8a  f10e0101          ADD      r1,lr,#1              ;500
000f8e  b20d              SXTH     r5,r1                 ;500
000f90  f800400e          STRB     r4,[r0,lr]            ;500
000f94  f04f0e62          MOV      lr,#0x62              ;501
000f98  f1050101          ADD      r1,r5,#1              ;501
000f9c  b209              SXTH     r1,r1                 ;501
000f9e  f800e005          STRB     lr,[r0,r5]            ;501
000fa2  f1020201          ADD      r2,r2,#1              ;502
000fa6  b212              SXTH     r2,r2                 ;502
000fa8  e402              B        |L1.1968|
                  |L1.4010|
000faa  f1010501          ADD      r5,r1,#1              ;506
000fae  fa0ffe85          SXTH     lr,r5                 ;506
000fb2  5443              STRB     r3,[r0,r1]            ;506
000fb4  f10e0101          ADD      r1,lr,#1              ;507
000fb8  b20d              SXTH     r5,r1                 ;507
000fba  f800400e          STRB     r4,[r0,lr]            ;507
000fbe  f04f0e66          MOV      lr,#0x66              ;508
000fc2  f1050101          ADD      r1,r5,#1              ;508
000fc6  b209              SXTH     r1,r1                 ;508
000fc8  f800e005          STRB     lr,[r0,r5]            ;508
000fcc  f1020201          ADD      r2,r2,#1              ;509
000fd0  b212              SXTH     r2,r2                 ;509
000fd2  e41a              B        |L1.2058|
                  |L1.4052|
000fd4  f1010501          ADD      r5,r1,#1              ;513
000fd8  fa0ffe85          SXTH     lr,r5                 ;513
000fdc  5443              STRB     r3,[r0,r1]            ;513
000fde  f10e0101          ADD      r1,lr,#1              ;514
000fe2  b20d              SXTH     r5,r1                 ;514
000fe4  f800400e          STRB     r4,[r0,lr]            ;514
000fe8  f04f0e67          MOV      lr,#0x67              ;515
000fec  f1050101          ADD      r1,r5,#1              ;515
000ff0  b209              SXTH     r1,r1                 ;515
000ff2  f800e005          STRB     lr,[r0,r5]            ;515
000ff6  f1020201          ADD      r2,r2,#1              ;516
000ffa  b212              SXTH     r2,r2                 ;516
000ffc  e405              B        |L1.2058|
                  |L1.4094|
000ffe  f1010501          ADD      r5,r1,#1              ;520
001002  fa0ffe85          SXTH     lr,r5                 ;520
001006  5443              STRB     r3,[r0,r1]            ;520
001008  f10e0101          ADD      r1,lr,#1              ;521
00100c  b20d              SXTH     r5,r1                 ;521
00100e  f800400e          STRB     r4,[r0,lr]            ;521
001012  f04f0e68          MOV      lr,#0x68              ;522
001016  f1050101          ADD      r1,r5,#1              ;522
00101a  b209              SXTH     r1,r1                 ;522
00101c  f800e005          STRB     lr,[r0,r5]            ;522
001020  f1020201          ADD      r2,r2,#1              ;523
001024  b212              SXTH     r2,r2                 ;523
001026  e40b              B        |L1.2112|
                  |L1.4136|
001028  f1010501          ADD      r5,r1,#1              ;527
00102c  b22d              SXTH     r5,r5                 ;527
00102e  5443              STRB     r3,[r0,r1]            ;527
001030  f04f0e76          MOV      lr,#0x76              ;528
001034  f1050101          ADD      r1,r5,#1              ;528
001038  b209              SXTH     r1,r1                 ;528
00103a  f800e005          STRB     lr,[r0,r5]            ;528
00103e  f1020201          ADD      r2,r2,#1              ;529
001042  b212              SXTH     r2,r2                 ;529
001044  e40b              B        |L1.2142|
                  |L1.4166|
001046  f1010501          ADD      r5,r1,#1              ;533
00104a  b22d              SXTH     r5,r5                 ;533
00104c  5443              STRB     r3,[r0,r1]            ;533
00104e  f04f0e71          MOV      lr,#0x71              ;534
001052  f1050101          ADD      r1,r5,#1              ;534
001056  b209              SXTH     r1,r1                 ;534
001058  f800e005          STRB     lr,[r0,r5]            ;534
00105c  f1020201          ADD      r2,r2,#1              ;535
001060  b212              SXTH     r2,r2                 ;535
001062  e409              B        |L1.2168|
                  |L1.4196|
001064  e000              B        |L1.4200|
                  |L1.4198|
001066  e014              B        |L1.4242|
                  |L1.4200|
001068  f1010501          ADD      r5,r1,#1              ;539
00106c  fa0ffe85          SXTH     lr,r5                 ;539
001070  5443              STRB     r3,[r0,r1]            ;539
001072  f10e0101          ADD      r1,lr,#1              ;540
001076  b20d              SXTH     r5,r1                 ;540
001078  f800400e          STRB     r4,[r0,lr]            ;540
00107c  f04f0e69          MOV      lr,#0x69              ;541
001080  f1050101          ADD      r1,r5,#1              ;541
001084  b209              SXTH     r1,r1                 ;541
001086  f800e005          STRB     lr,[r0,r5]            ;541
00108a  f1020201          ADD      r2,r2,#1              ;542
00108e  b212              SXTH     r2,r2                 ;542
001090  e412              B        |L1.2232|
                  |L1.4242|
001092  f1010501          ADD      r5,r1,#1              ;546
001096  fa0ffe85          SXTH     lr,r5                 ;546
00109a  5443              STRB     r3,[r0,r1]            ;546
00109c  f10e0101          ADD      r1,lr,#1              ;547
0010a0  b20d              SXTH     r5,r1                 ;547
0010a2  f800400e          STRB     r4,[r0,lr]            ;547
0010a6  f04f0e6a          MOV      lr,#0x6a              ;548
0010aa  f1050101          ADD      r1,r5,#1              ;548
0010ae  b209              SXTH     r1,r1                 ;548
0010b0  f800e005          STRB     lr,[r0,r5]            ;548
0010b4  f1020201          ADD      r2,r2,#1              ;549
0010b8  b212              SXTH     r2,r2                 ;549
0010ba  e412              B        |L1.2274|
;;;593    
                          ENDP

                  http_data PROC
;;;594    //-----------------------------------------------
;;;595    void http_data(void)
0010bc  48b2              LDR      r0,|L1.5000|
;;;596    {
;;;597    http_power_num_of_phases=NUMPHASE;
0010be  49b3              LDR      r1,|L1.5004|
0010c0  8800              LDRH     r0,[r0,#0]  ; NUMPHASE
0010c2  b2c0              UXTB     r0,r0
0010c4  7008              STRB     r0,[r1,#0]
;;;598    if((http_power_num_of_phases!=1)&&(http_power_num_of_phases!=3)) http_power_num_of_phases=0;
0010c6  f04f0200          MOV      r2,#0
0010ca  2801              CMP      r0,#1
0010cc  d002              BEQ      |L1.4308|
0010ce  2803              CMP      r0,#3
0010d0  d000              BEQ      |L1.4308|
0010d2  700a              STRB     r2,[r1,#0]
                  |L1.4308|
;;;599    if(http_power_num_of_phases==1)
;;;600    	{
;;;601    	http_power_voltage_of_phase[0]=net_U;
0010d4  48ae              LDR      r0,|L1.5008|
0010d6  4aad              LDR      r2,|L1.5004|
0010d8  780b              LDRB     r3,[r1,#0]            ;599  ; http_power_num_of_phases
0010da  f9b00000          LDRSH    r0,[r0,#0]
0010de  1d12              ADDS     r2,r2,#4
0010e0  2b01              CMP      r3,#1                 ;599
0010e2  d00d              BEQ      |L1.4352|
;;;602    	}
;;;603    else http_power_voltage_of_phase[0]=net_U;
0010e4  8010              STRH     r0,[r2,#0]
                  |L1.4326|
;;;604    http_power_voltage_of_phase[1]=net_Ub;
0010e6  48ab              LDR      r0,|L1.5012|
0010e8  8800              LDRH     r0,[r0,#0]  ; net_Ub
0010ea  8050              STRH     r0,[r2,#2]
;;;605    http_power_voltage_of_phase[2]=net_Uc;
0010ec  48aa              LDR      r0,|L1.5016|
0010ee  8800              LDRH     r0,[r0,#0]  ; net_Uc
0010f0  8090              STRH     r0,[r2,#4]
;;;606    http_power_frequncy = net_F;
0010f2  48aa              LDR      r0,|L1.5020|
0010f4  8800              LDRH     r0,[r0,#0]  ; net_F
0010f6  8048              STRH     r0,[r1,#2]
;;;607    http_power_status=0;
;;;608    //if(avar_stat&0x0001)http_power_status=1;
;;;609    http_power_status=net_av;
0010f8  48a9              LDR      r0,|L1.5024|
0010fa  7800              LDRB     r0,[r0,#0]  ; net_av
0010fc  7048              STRB     r0,[r1,#1]
;;;610    };
0010fe  4770              BX       lr
                  |L1.4352|
001100  8010              STRH     r0,[r2,#0]            ;601
001102  e7f0              B        |L1.4326|
;;;611    
                          ENDP

                  http_get_log_deep PROC
;;;612    //-----------------------------------------------
;;;613    short http_get_log_deep(void)
001104  b510              PUSH     {r4,lr}
;;;614    {
;;;615    return lc640_read_int(CNT_EVENT_LOG);
001106  f6406002          MOV      r0,#0xe02
00110a  f7fffffe          BL       lc640_read_int
00110e  b200              SXTH     r0,r0
;;;616    };
001110  bd10              POP      {r4,pc}
;;;617    
                          ENDP

                  http_get_log_rec PROC
;;;618    //-----------------------------------------------
;;;619    char* http_get_log_rec(char num)
001112  b570              PUSH     {r4-r6,lr}
;;;620    {
001114  b08a              SUB      sp,sp,#0x28
001116  4604              MOV      r4,r0
;;;621    char i;
;;;622    unsigned int tempii;
;;;623    char buff[40];
;;;624    
;;;625    for (i=0;i<40;i++) buff[i]=0;
001118  f04f0200          MOV      r2,#0
00111c  4616              MOV      r6,r2
00111e  466d              MOV      r5,sp                 ;623
                  |L1.4384|
001120  54ae              STRB     r6,[r5,r2]
001122  f1020201          ADD      r2,r2,#1
001126  b2d2              UXTB     r2,r2
001128  2a28              CMP      r2,#0x28
00112a  d3f9              BCC      |L1.4384|
;;;626    
;;;627    tempii=lc640_read_int(PTR_EVENT_LOG);
00112c  f44f6060          MOV      r0,#0xe00
001130  f7fffffe          BL       lc640_read_int
;;;628    tempii=ptr_carry(tempii,64,-1*((signed)num));
001134  4262              RSBS     r2,r4,#0
001136  2140              MOVS     r1,#0x40
001138  f7fffffe          BL       ptr_carry
;;;629    tempii*=32;
00113c  ea4f1040          LSL      r0,r0,#5
;;;630    tempii+=EVENT_LOG;
001140  f5006080          ADD      r0,r0,#0x400
001144  4604              MOV      r4,r0
;;;631    
;;;632    lc640_read_long_ptr(tempii,buff);
001146  4669              MOV      r1,sp
001148  4620              MOV      r0,r4
00114a  f7fffffe          BL       lc640_read_long_ptr
;;;633    lc640_read_long_ptr(tempii+4,buff+4);
00114e  1d29              ADDS     r1,r5,#4
001150  1d20              ADDS     r0,r4,#4
001152  f7fffffe          BL       lc640_read_long_ptr
;;;634    lc640_read_long_ptr(tempii+8,buff+8);
001156  a902              ADD      r1,sp,#8
001158  f1040008          ADD      r0,r4,#8
00115c  f7fffffe          BL       lc640_read_long_ptr
;;;635    lc640_read_long_ptr(tempii+12,buff+12);
001160  a903              ADD      r1,sp,#0xc
001162  f104000c          ADD      r0,r4,#0xc
001166  f7fffffe          BL       lc640_read_long_ptr
;;;636    lc640_read_long_ptr(tempii+16,buff+16);
00116a  a904              ADD      r1,sp,#0x10
00116c  f1040010          ADD      r0,r4,#0x10
001170  f7fffffe          BL       lc640_read_long_ptr
;;;637    lc640_read_long_ptr(tempii+20,buff+20);
001174  a905              ADD      r1,sp,#0x14
001176  f1040014          ADD      r0,r4,#0x14
00117a  f7fffffe          BL       lc640_read_long_ptr
;;;638    lc640_read_long_ptr(tempii+24,buff+24);
00117e  a906              ADD      r1,sp,#0x18
001180  f1040018          ADD      r0,r4,#0x18
001184  f7fffffe          BL       lc640_read_long_ptr
;;;639    lc640_read_long_ptr(tempii+28,buff+28);
001188  a907              ADD      r1,sp,#0x1c
00118a  f104001c          ADD      r0,r4,#0x1c
00118e  f7fffffe          BL       lc640_read_long_ptr
;;;640    
;;;641    for (i=0;i<32;i++)
001192  f04f0000          MOV      r0,#0
;;;642    	{
;;;643    	http_output_buff[i*2]=hex_alfa[buff[i]/16];
001196  4c83              LDR      r4,|L1.5028|
001198  4b83              LDR      r3,|L1.5032|
                  |L1.4506|
00119a  5c2a              LDRB     r2,[r5,r0]
00119c  eb041112          ADD      r1,r4,r2,LSR #4
0011a0  7809              LDRB     r1,[r1,#0]
0011a2  f8031010          STRB     r1,[r3,r0,LSL #1]
;;;644    	http_output_buff[(i*2)+1]=hex_alfa[buff[i]%16];
0011a6  f002010f          AND      r1,r2,#0xf
0011aa  eb030240          ADD      r2,r3,r0,LSL #1
0011ae  5c61              LDRB     r1,[r4,r1]
0011b0  7051              STRB     r1,[r2,#1]
0011b2  f1000001          ADD      r0,r0,#1              ;641
0011b6  b2c0              UXTB     r0,r0                 ;641
0011b8  2820              CMP      r0,#0x20              ;641
0011ba  d3ee              BCC      |L1.4506|
;;;645    	}
;;;646    http_output_buff[64]=0;
0011bc  f8836040          STRB     r6,[r3,#0x40]
;;;647    
;;;648    return http_output_buff;
;;;649    }
0011c0  b00a              ADD      sp,sp,#0x28
0011c2  4879              LDR      r0,|L1.5032|
0011c4  bd70              POP      {r4-r6,pc}
;;;650    
                          ENDP

                  http_tm_dt_output PROC
;;;651    //-----------------------------------------------
;;;652    char* http_tm_dt_output(char numOfDt)
0011c6  b500              PUSH     {lr}
;;;653    {
0011c8  b099              SUB      sp,sp,#0x64
;;;654    char buffer[100];
;;;655    
;;;656    sprintf(buffer,"%d %d", t_ext[numOfDt], ND_EXT[numOfDt]);
0011ca  4978              LDR      r1,|L1.5036|
0011cc  5c0b              LDRB     r3,[r1,r0]
0011ce  4978              LDR      r1,|L1.5040|
0011d0  f9312010          LDRSH    r2,[r1,r0,LSL #1]
0011d4  a177              ADR      r1,|L1.5044|
0011d6  4668              MOV      r0,sp
0011d8  f7fffffe          BL       __2sprintf
;;;657    
;;;658    return buffer;
0011dc  4668              MOV      r0,sp
                  |L1.4574|
;;;659    }
0011de  b019              ADD      sp,sp,#0x64
0011e0  bd00              POP      {pc}
;;;660    
                          ENDP

                  http_tm_sk_output PROC
;;;661    //-----------------------------------------------
;;;662    char* http_tm_sk_output(char numOfSk)
0011e2  b500              PUSH     {lr}
;;;663    {
0011e4  b099              SUB      sp,sp,#0x64
;;;664    char buffer[100];
;;;665    char temp1=0;
0011e6  f04f0200          MOV      r2,#0
;;;666    char temp2=0;
0011ea  4613              MOV      r3,r2
;;;667    
;;;668    if(sk_stat[numOfSk]==ssON)temp1=1;
0011ec  4973              LDR      r1,|L1.5052|
0011ee  5c09              LDRB     r1,[r1,r0]
0011f0  2901              CMP      r1,#1
0011f2  d100              BNE      |L1.4598|
0011f4  460a              MOV      r2,r1
                  |L1.4598|
;;;669    if(sk_av_stat[numOfSk]==sasON)temp2=1;
0011f6  4972              LDR      r1,|L1.5056|
0011f8  5c08              LDRB     r0,[r1,r0]
0011fa  2801              CMP      r0,#1
0011fc  d100              BNE      |L1.4608|
0011fe  4603              MOV      r3,r0
                  |L1.4608|
;;;670    
;;;671    sprintf(buffer,"%d %d", temp1, temp2);
001200  a16c              ADR      r1,|L1.5044|
001202  4668              MOV      r0,sp
001204  f7fffffe          BL       __2sprintf
;;;672    
;;;673    return buffer;
001208  4668              MOV      r0,sp
;;;674    }
00120a  e7e8              B        |L1.4574|
;;;675    
                          ENDP

                  http_bps_status2number PROC
;;;676    //-----------------------------------------------
;;;677    char http_bps_status2number(char number)
00120c  eb0001c0          ADD      r1,r0,r0,LSL #3
;;;678    {
;;;679    //return number+spirit_wrk_cnt;
;;;680    if((bps[number]._state==bsWRK)&&(!bps[number]._flags_tm)) 		return 1;
001210  eb011100          ADD      r1,r1,r0,LSL #4
001214  486b              LDR      r0,|L1.5060|
001216  eb000181          ADD      r1,r0,r1,LSL #2
00121a  7888              LDRB     r0,[r1,#2]
00121c  2801              CMP      r0,#1
00121e  d102              BNE      |L1.4646|
001220  f8912042          LDRB     r2,[r1,#0x42]
001224  b122              CBZ      r2,|L1.4656|
                  |L1.4646|
;;;681    if((bps[number]._state==bsRDY)) 								return 2;
001226  2802              CMP      r0,#2
001228  d004              BEQ      |L1.4660|
;;;682    if((bps[number]._state==bsWRK)&&(bps[number]._flags_tm&0x08)) 	return 3;
00122a  2801              CMP      r0,#1
00122c  d004              BEQ      |L1.4664|
00122e  e009              B        |L1.4676|
                  |L1.4656|
001230  2001              MOVS     r0,#1                 ;680
;;;683    if((bps[number]._state==bsBL)) 									return 4;
;;;684    if((bps[number]._state==bsAPV)) 								return 5;
;;;685    if((bps[number]._av&(1<<0))) 									return 6;
;;;686    if((bps[number]._av&(1<<2))) 									return 7;
;;;687    if((bps[number]._av&(1<<1))) 									return 8;
;;;688    if((bps[number]._av&(1<<3))) 									return 9;
;;;689    if((bps[number]._state==bsOFF_AV_NET)) 							return 10;
;;;690    }
001232  4770              BX       lr
                  |L1.4660|
001234  2002              MOVS     r0,#2                 ;681
001236  4770              BX       lr
                  |L1.4664|
001238  f8912042          LDRB     r2,[r1,#0x42]         ;682
00123c  0712              LSLS     r2,r2,#28             ;682
00123e  d501              BPL      |L1.4676|
001240  2003              MOVS     r0,#3                 ;682
001242  4770              BX       lr
                  |L1.4676|
001244  2803              CMP      r0,#3                 ;683
001246  d005              BEQ      |L1.4692|
001248  b130              CBZ      r0,|L1.4696|
00124a  7849              LDRB     r1,[r1,#1]            ;685
00124c  07ca              LSLS     r2,r1,#31             ;685
00124e  d005              BEQ      |L1.4700|
001250  2006              MOVS     r0,#6                 ;685
001252  4770              BX       lr
                  |L1.4692|
001254  2004              MOVS     r0,#4                 ;683
001256  4770              BX       lr
                  |L1.4696|
001258  2005              MOVS     r0,#5                 ;684
00125a  4770              BX       lr
                  |L1.4700|
00125c  074a              LSLS     r2,r1,#29             ;686
00125e  d501              BPL      |L1.4708|
001260  2007              MOVS     r0,#7                 ;686
001262  4770              BX       lr
                  |L1.4708|
001264  078a              LSLS     r2,r1,#30             ;687
001266  d501              BPL      |L1.4716|
001268  2008              MOVS     r0,#8                 ;687
00126a  4770              BX       lr
                  |L1.4716|
00126c  0709              LSLS     r1,r1,#28             ;688
00126e  d501              BPL      |L1.4724|
001270  2009              MOVS     r0,#9                 ;688
                  |L1.4722|
001272  4770              BX       lr
                  |L1.4724|
001274  2805              CMP      r0,#5                 ;689
001276  d1fc              BNE      |L1.4722|
001278  200a              MOVS     r0,#0xa               ;689
00127a  4770              BX       lr
;;;691    
                          ENDP

                  http_tm_src_output PROC
;;;692    //-----------------------------------------------
;;;693    char* http_tm_src_output(char numOfSrc)
00127c  b500              PUSH     {lr}
;;;694    {
00127e  b09d              SUB      sp,sp,#0x74
001280  4603              MOV      r3,r0
;;;695    char buffer[100];
;;;696    
;;;697    sprintf(buffer,"%d %d %d %d 0x%02x", bps[numOfSrc]._Uii, bps[numOfSrc]._Ii, bps[numOfSrc]._Ti, http_bps_status2number(numOfSrc), bps[numOfSrc]._flags_tm );
001282  4618              MOV      r0,r3
001284  f7fffffe          BL       http_bps_status2number
001288  4601              MOV      r1,r0
00128a  eb0300c3          ADD      r0,r3,r3,LSL #3
00128e  eb001203          ADD      r2,r0,r3,LSL #4
001292  484c              LDR      r0,|L1.5060|
001294  eb000082          ADD      r0,r0,r2,LSL #2
001298  f8902042          LDRB     r2,[r0,#0x42]
00129c  6a83              LDR      r3,[r0,#0x28]
00129e  e9cd3100          STRD     r3,r1,[sp,#0]
0012a2  9202              STR      r2,[sp,#8]
0012a4  6a43              LDR      r3,[r0,#0x24]
0012a6  69c2              LDR      r2,[r0,#0x1c]
0012a8  a147              ADR      r1,|L1.5064|
0012aa  a804              ADD      r0,sp,#0x10
0012ac  f7fffffe          BL       __2sprintf
;;;698    
;;;699    return buffer;
0012b0  a804              ADD      r0,sp,#0x10
;;;700    }
0012b2  b01d              ADD      sp,sp,#0x74
0012b4  bd00              POP      {pc}
;;;701    
                          ENDP

                  http_ip_output PROC
;;;702    //-----------------------------------------------
;;;703    char* http_ip_output(char ip1, char ip2, char ip3, char ip4)
0012b6  b500              PUSH     {lr}
;;;704    {
0012b8  b09b              SUB      sp,sp,#0x6c
;;;705    char buffer[100];
;;;706    
;;;707    sprintf(buffer,"%d.%d.%d.%d", ip1, ip2, ip3, ip4);
0012ba  e9cd2300          STRD     r2,r3,[sp,#0]
0012be  460b              MOV      r3,r1
0012c0  4602              MOV      r2,r0
0012c2  a146              ADR      r1,|L1.5084|
0012c4  a802              ADD      r0,sp,#8
0012c6  f7fffffe          BL       __2sprintf
;;;708    
;;;709    return buffer;
0012ca  a802              ADD      r0,sp,#8
;;;710    }
0012cc  b01b              ADD      sp,sp,#0x6c
0012ce  bd00              POP      {pc}
;;;711    
                          ENDP

                  http_tm_bat_output PROC
;;;712    //-----------------------------------------------
;;;713    char* http_tm_bat_output(char numOfBat)
0012d0  e92d41f0          PUSH     {r4-r8,lr}
;;;714    {
0012d4  b0d4              SUB      sp,sp,#0x150
0012d6  4605              MOV      r5,r0
;;;715    char buffer[300];
;;;716    char* batstat="abcdef";
;;;717    
;;;718    short batison=0;
0012d8  f04f0800          MOV      r8,#0
;;;719    short batcreal=-1;
0012dc  f04f37ff          MOV      r7,#0xffffffff
;;;720    short batubm=-1;
;;;721    if(BAT_IS_ON[numOfBat]==bisON)batison=1;
0012e0  4841              LDR      r0,|L1.5096|
0012e2  5d40              LDRB     r0,[r0,r5]
0012e4  2855              CMP      r0,#0x55
0012e6  d101              BNE      |L1.4844|
0012e8  f04f0801          MOV      r8,#1
                  |L1.4844|
;;;722    if(BAT_C_REAL[numOfBat]!=0x5555)batcreal=BAT_C_REAL[numOfBat];
0012ec  483f              LDR      r0,|L1.5100|
0012ee  f9306015          LDRSH    r6,[r0,r5,LSL #1]
0012f2  f5a640aa          SUB      r0,r6,#0x5500
0012f6  3855              SUBS     r0,r0,#0x55
0012f8  d107              BNE      |L1.4874|
;;;723    else batcreal=-BAT_C_NOM[numOfBat]*10;
0012fa  483d              LDR      r0,|L1.5104|
0012fc  f06f0109          MVN      r1,#9
001300  f8300015          LDRH     r0,[r0,r5,LSL #1]
001304  fb00f001          MUL      r0,r0,r1
001308  b206              SXTH     r6,r0
                  |L1.4874|
;;;724    if(UBM_AV)batubm=bat[numOfBat]._Ubm;
00130a  483a              LDR      r0,|L1.5108|
00130c  eb050285          ADD      r2,r5,r5,LSL #2
001310  8801              LDRH     r1,[r0,#0]  ; UBM_AV
001312  4839              LDR      r0,|L1.5112|
001314  eb001402          ADD      r4,r0,r2,LSL #4
001318  b109              CBZ      r1,|L1.4894|
00131a  f9b47004          LDRSH    r7,[r4,#4]
                  |L1.4894|
;;;725    
;;;726    if(bat[numOfBat]._Ib>0)	batstat=pal_cyr_coder("çàðÿæàåòñÿ");
00131e  f9b40008          LDRSH    r0,[r4,#8]
001322  2800              CMP      r0,#0
001324  dd03              BLE      |L1.4910|
001326  a035              ADR      r0,|L1.5116|
001328  f7fffffe          BL       pal_cyr_coder
00132c  e002              B        |L1.4916|
                  |L1.4910|
;;;727    else batstat=pal_cyr_coder("ðàçðÿæàåòñÿ");
00132e  a036              ADR      r0,|L1.5128|
001330  f7fffffe          BL       pal_cyr_coder
                  |L1.4916|
;;;728    if(bat[numOfBat]._av&1)batstat=pal_cyr_coder("Àâàðèÿ öåïè áàòàðåè!!!");
001334  f8941041          LDRB     r1,[r4,#0x41]
001338  07c9              LSLS     r1,r1,#31
00133a  d002              BEQ      |L1.4930|
00133c  a035              ADR      r0,|L1.5140|
00133e  f7fffffe          BL       pal_cyr_coder
                  |L1.4930|
;;;729    if(bat[numOfBat]._av&2)batstat=pal_cyr_coder("Àâàðèÿ ñðåäíåé òî÷êè áàòàðåè!!!");
001342  f8941041          LDRB     r1,[r4,#0x41]
001346  0789              LSLS     r1,r1,#30
001348  d502              BPL      |L1.4944|
00134a  a038              ADR      r0,|L1.5164|
00134c  f7fffffe          BL       pal_cyr_coder
                  |L1.4944|
;;;730    //batstat=pal_cyr_coder("Àâàðèÿ ñðåäíåé òî÷êè áàòàðåè!!!");
;;;731    
;;;732    sprintf(buffer,"%d, %d, %d, %d, %d, %d, %d, %d, %d, %s", batison, bat[numOfBat]._Ub, bat[numOfBat]._Ib, bat[numOfBat]._Tb,
001350  493e              LDR      r1,|L1.5196|
001352  8a62              LDRH     r2,[r4,#0x12]
001354  f9311015          LDRSH    r1,[r1,r5,LSL #1]
001358  e9cd1705          STRD     r1,r7,[sp,#0x14]
00135c  9204              STR      r2,[sp,#0x10]
00135e  9007              STR      r0,[sp,#0x1c]
001360  7ba0              LDRB     r0,[r4,#0xe]
001362  f9b4100c          LDRSH    r1,[r4,#0xc]
001366  f9b42008          LDRSH    r2,[r4,#8]
00136a  e9cd2100          STRD     r2,r1,[sp,#0]
00136e  e9cd0602          STRD     r0,r6,[sp,#8]
001372  f9b43002          LDRSH    r3,[r4,#2]
001376  4642              MOV      r2,r8
001378  a135              ADR      r1,|L1.5200|
00137a  a809              ADD      r0,sp,#0x24
00137c  f7fffffe          BL       __2sprintf
;;;733     		bat[numOfBat]._nd, batcreal, bat[numOfBat]._zar,BAT_RESURS[numOfBat],batubm, batstat);
;;;734    
;;;735    return buffer;
001380  a809              ADD      r0,sp,#0x24
;;;736    }
001382  b054              ADD      sp,sp,#0x150
001384  e8bd81f0          POP      {r4-r8,pc}
;;;737    
                          ENDP

                  |L1.5000|
                          DCD      NUMPHASE
                  |L1.5004|
                          DCD      ||area_number.8||
                  |L1.5008|
                          DCD      net_U
                  |L1.5012|
                          DCD      net_Ub
                  |L1.5016|
                          DCD      net_Uc
                  |L1.5020|
                          DCD      net_F
                  |L1.5024|
                          DCD      net_av
                  |L1.5028|
                          DCD      ||.constdata||
                  |L1.5032|
                          DCD      ||.bss||
                  |L1.5036|
                          DCD      ND_EXT
                  |L1.5040|
                          DCD      t_ext
                  |L1.5044|
0013b4  25642025          DCB      "%d %d",0
0013b8  6400    
0013ba  00                DCB      0
0013bb  00                DCB      0
                  |L1.5052|
                          DCD      sk_stat
                  |L1.5056|
                          DCD      sk_av_stat
                  |L1.5060|
                          DCD      bps
                  |L1.5064|
0013c8  25642025          DCB      "%d %d %d %d 0x%02x",0
0013cc  64202564
0013d0  20256420
0013d4  30782530
0013d8  327800  
0013db  00                DCB      0
                  |L1.5084|
0013dc  25642e25          DCB      "%d.%d.%d.%d",0
0013e0  642e2564
0013e4  2e256400
                  |L1.5096|
                          DCD      BAT_IS_ON
                  |L1.5100|
                          DCD      BAT_C_REAL
                  |L1.5104|
                          DCD      BAT_C_NOM
                  |L1.5108|
                          DCD      UBM_AV
                  |L1.5112|
                          DCD      bat
                  |L1.5116|
0013fc  e7e0f0ff          DCB      231,224,240,255,230,224,229,242,241,255,0
001400  e6e0e5f2
001404  f1ff00  
001407  00                DCB      0
                  |L1.5128|
001408  f0e0e7f0          DCB      240,224,231,240,255,230,224,229,242,241,255,0
00140c  ffe6e0e5
001410  f2f1ff00
                  |L1.5140|
001414  c0e2e0f0          DCB      192,226,224,240,232,255," ",246,229,239,232," ",225,224,242
001418  e8ff20f6
00141c  e5efe820
001420  e1e0f2  
001423  e0f0e5e8          DCB      224,240,229,232,"!!!",0
001427  21212100
00142b  00                DCB      0
                  |L1.5164|
00142c  c0e2e0f0          DCB      192,226,224,240,232,255," ",241,240,229,228,237,229,233," "
001430  e8ff20f1
001434  f0e5e4ed
001438  e5e920  
00143b  f2eef7ea          DCB      242,238,247,234,232," ",225,224,242,224,240,229,232,"!!!"
00143f  e820e1e0
001443  f2e0f0e5
001447  e8212121
00144b  00                DCB      0
                  |L1.5196|
                          DCD      BAT_RESURS
                  |L1.5200|
001450  25642c20          DCB      "%d, %d, %d, %d, %d, %d, %d, %d, %d, %s",0
001454  25642c20
001458  25642c20
00145c  25642c20
001460  25642c20
001464  25642c20
001468  25642c20
00146c  25642c20
001470  25642c20
001474  257300  
001477  00                DCB      0

                          AREA ||area_number.2||, CODE, READONLY, ALIGN=1

                          EXPORTAS ||area_number.2||, ||.text||
                  demo_avar_vrite PROC
;;;751    
;;;752    void demo_avar_vrite(void)
000000  4770              BX       lr
;;;753    {
;;;754    
;;;755    }
;;;756    
                          ENDP


                          AREA ||.bss||, DATA, NOINIT, ALIGN=0

                  http_output_buff
                          %        70
                  pal_cyr_coder_output
                          %        200

                          AREA ||.constdata||, DATA, READONLY, ALIGN=0

                  hex_alfa
000000  30313233          DCB      0x30,0x31,0x32,0x33
000004  34353637          DCB      0x34,0x35,0x36,0x37
000008  38394142          DCB      0x38,0x39,0x41,0x42
00000c  43444546          DCB      0x43,0x44,0x45,0x46

                          AREA ||.data||, DATA, ALIGN=0

                  log_item_cnt
000000  00                DCB      0x00

                          AREA ||area_number.8||, DATA, ALIGN=1

                          EXPORTAS ||area_number.8||, ||.data||
                  http_power_num_of_phases
000000  00                DCB      0x00
                  http_power_status
000001  00                DCB      0x00
                  http_power_frequncy
000002  0000              DCB      0x00,0x00
                  http_power_voltage_of_phase
                          DCDU     0x00000000
000008  0000              DCB      0x00,0x00
