; generated by ARM C/C++ Compiler, 4.1 [Build 644]
; commandline ArmCC [--list --debug -c --asm --interleave -o.\EXE\snmp_data_file.o --asm_dir=.\ --list_dir=.\ --depend=.\EXE\snmp_data_file.d --feedback=.\EXE\UKU_220_IPS_TERMOKOMPENSAT.fed --cpu=Cortex-M3 --apcs=interwork -O1 -IC:\Keil\ARM\CMSIS\Include -IC:\Keil\ARM\INC\NXP\LPC17xx -D__MICROLIB -DUKU_220_IPS_TERMOKOMPENSAT -DUKU2071x --omf_browse=.\EXE\snmp_data_file.crf snmp_data_file.c]
                          THUMB

                          AREA ||.text||, CODE, READONLY, ALIGN=2

                  snmp_data PROC
;;;236    //-----------------------------------------------
;;;237    void snmp_data (void) 
000000  e92d5ff0          PUSH     {r4-r12,lr}
;;;238    {
;;;239    char i;
;;;240    
;;;241    snmp_mains_power_voltage=net_U;
000004  48ff              LDR      r0,|L1.1028|
000006  8800              LDRH     r0,[r0,#0]  ; net_U
000008  4fff              LDR      r7,|L1.1032|
00000a  8238              STRH     r0,[r7,#0x10]
;;;242    #ifdef UKU_220_IPS_TERMOKOMPENSAT
;;;243    snmp_mains_power_frequency=net_F3;
00000c  48ff              LDR      r0,|L1.1036|
00000e  8800              LDRH     r0,[r0,#0]  ; net_F3
000010  8278              STRH     r0,[r7,#0x12]
;;;244    #else
;;;245    snmp_mains_power_frequency=net_F;
;;;246    #endif
;;;247    snmp_mains_power_voltage_phaseA=net_Ua;
000012  48ff              LDR      r0,|L1.1040|
000014  8800              LDRH     r0,[r0,#0]  ; net_Ua
000016  82b8              STRH     r0,[r7,#0x14]
;;;248    snmp_mains_power_voltage_phaseB=net_Ub;
000018  48fe              LDR      r0,|L1.1044|
00001a  8800              LDRH     r0,[r0,#0]  ; net_Ub
00001c  82f8              STRH     r0,[r7,#0x16]
;;;249    snmp_mains_power_voltage_phaseC=net_Uc;
00001e  48fe              LDR      r0,|L1.1048|
000020  8800              LDRH     r0,[r0,#0]  ; net_Uc
000022  8338              STRH     r0,[r7,#0x18]
;;;250    
;;;251    /*
;;;252    snmp_mains_power_status=0; 
;;;253    #if(UKU_VERSION==900)
;;;254    snmp_mains_power_status=2;
;;;255    #endif
;;;256    if(St&0x01)snmp_mains_power_status|=0x01;
;;;257    if(St&0x01)snmp_mains_power_alarm=1;
;;;258    
;;;259    
;;;260    
;;;261    
;;;262    
;;;263    
;;;264    for(i=0;i<snmp_numofevents;i++)event2snmp(i);
;;;265    //snmp_bpsnumber[0]=1;
;;;266    //snmp_bpsnumber[1]=2;
;;;267    
;;;268    snmp_sernum=AUSW_MAIN_NUMBER;
;;;269    snmp_sernum_lsb=0x1122;
;;;270    snmp_sernum_msb=0x3344;
;;;271    snmp_device_code=AUSW_MAIN;
;;;272    
;;;273    //memcpy(snmp_location,"lkhg;la",);
;;;274    
;;;275    
;;;276    snmp_numofbat=1;
;;;277    
;;;278    */
;;;279    
;;;280    snmp_load_voltage=load_U;
000024  48fd              LDR      r0,|L1.1052|
000026  8800              LDRH     r0,[r0,#0]  ; load_U
000028  8378              STRH     r0,[r7,#0x1a]
;;;281    snmp_load_current=load_I;
00002a  48fd              LDR      r0,|L1.1056|
00002c  8800              LDRH     r0,[r0,#0]  ; load_I
00002e  83b8              STRH     r0,[r7,#0x1c]
;;;282    snmp_numofbat=NUMBAT;
000030  48fc              LDR      r0,|L1.1060|
000032  8800              LDRH     r0,[r0,#0]  ; NUMBAT
000034  8078              STRH     r0,[r7,#2]
;;;283    snmp_numofbps=NUMIST;
000036  4cfc              LDR      r4,|L1.1064|
000038  8820              LDRH     r0,[r4,#0]  ; NUMIST
00003a  80b8              STRH     r0,[r7,#4]
;;;284    snmp_numofinv=NUMINV;
00003c  48fb              LDR      r0,|L1.1068|
00003e  8800              LDRH     r0,[r0,#0]  ; NUMINV
000040  80f8              STRH     r0,[r7,#6]
;;;285    snmp_numofavt=NUMAVT;
000042  48fb              LDR      r0,|L1.1072|
000044  8800              LDRH     r0,[r0,#0]  ; NUMAVT
000046  8138              STRH     r0,[r7,#8]
;;;286    snmp_numofdt=NUMDT;
000048  48fa              LDR      r0,|L1.1076|
00004a  8800              LDRH     r0,[r0,#0]  ; NUMDT
00004c  8178              STRH     r0,[r7,#0xa]
;;;287    snmp_numofsk=NUMSK;
00004e  48fa              LDR      r0,|L1.1080|
000050  8800              LDRH     r0,[r0,#0]  ; NUMSK
000052  81b8              STRH     r0,[r7,#0xc]
;;;288    snmp_numofevents=lc640_read_int(CNT_EVENT_LOG);
000054  f6406002          MOV      r0,#0xe02
000058  f7fffffe          BL       lc640_read_int
00005c  81f8              STRH     r0,[r7,#0xe]
;;;289    
;;;290    snmp_energy_vvod_phase_a=Uvv_eb2[0];
00005e  48f7              LDR      r0,|L1.1084|
000060  8801              LDRH     r1,[r0,#0]  ; Uvv_eb2
000062  84b9              STRH     r1,[r7,#0x24]
;;;291    snmp_energy_vvod_phase_b=Uvv_eb2[1];
000064  8841              LDRH     r1,[r0,#2]  ; Uvv_eb2
000066  84f9              STRH     r1,[r7,#0x26]
;;;292    snmp_energy_vvod_phase_c=Uvv_eb2[2];
000068  8880              LDRH     r0,[r0,#4]  ; Uvv_eb2
00006a  8538              STRH     r0,[r7,#0x28]
;;;293    snmp_energy_pes_phase_a=Upes_eb2[0];
00006c  48f4              LDR      r0,|L1.1088|
00006e  8801              LDRH     r1,[r0,#0]  ; Upes_eb2
000070  8579              STRH     r1,[r7,#0x2a]
;;;294    snmp_energy_pes_phase_b=Upes_eb2[1];
000072  8841              LDRH     r1,[r0,#2]  ; Upes_eb2
000074  85b9              STRH     r1,[r7,#0x2c]
;;;295    snmp_energy_pes_phase_c=Upes_eb2[2];
000076  8880              LDRH     r0,[r0,#4]  ; Upes_eb2
000078  85f8              STRH     r0,[r7,#0x2e]
;;;296    
;;;297    #ifdef UKU_KONTUR
;;;298    snmp_energy_vvod_phase_a=Uvv0;
;;;299    snmp_energy_pes_phase_a=Uvv[1];
;;;300    #endif
;;;301    
;;;302    snmp_energy_total_energy=power_summary;
00007a  48f2              LDR      r0,|L1.1092|
00007c  f1070180          ADD      r1,r7,#0x80
000080  6800              LDR      r0,[r0,#0]  ; power_summary
000082  6288              STR      r0,[r1,#0x28]  ; snmp_energy_total_energy
;;;303    snmp_energy_current_energy=power_current;
000084  48f0              LDR      r0,|L1.1096|
000086  8800              LDRH     r0,[r0,#0]  ; power_current
000088  8638              STRH     r0,[r7,#0x30]
;;;304    
;;;305    
;;;306    snmp_bat_number[0]=1;
00008a  f1010608          ADD      r6,r1,#8
00008e  f04f0001          MOV      r0,#1
000092  8030              STRH     r0,[r6,#0]
;;;307    snmp_bat_voltage[0]=bat[0]._Ub;
000094  48ed              LDR      r0,|L1.1100|
000096  f1060904          ADD      r9,r6,#4
00009a  8841              LDRH     r1,[r0,#2]  ; bat
00009c  f8a91000          STRH     r1,[r9,#0]
;;;308    snmp_bat_part_voltage[0]=bat[0]._Ubm;
0000a0  f1060a1c          ADD      r10,r6,#0x1c
0000a4  8881              LDRH     r1,[r0,#4]  ; bat
0000a6  f8aa1000          STRH     r1,[r10,#0]
;;;309    snmp_bat_current[0]=bat[0]._Ib;
0000aa  f1060508          ADD      r5,r6,#8
0000ae  8901              LDRH     r1,[r0,#8]  ; bat
0000b0  8029              STRH     r1,[r5,#0]
;;;310    
;;;311    #ifdef UKU_220_IPS_TERMOKOMPENSAT
;;;312    if(((AUSW_MAIN==22063)||(AUSW_MAIN==22023))&&(bps[8]._device==dIBAT_METR))
0000b2  49e7              LDR      r1,|L1.1104|
0000b4  8809              LDRH     r1,[r1,#0]  ; AUSW_MAIN
0000b6  f5a142ac          SUB      r2,r1,#0x5600
0000ba  3a2f              SUBS     r2,r2,#0x2f
0000bc  d001              BEQ      |L1.194|
0000be  3228              ADDS     r2,r2,#0x28
0000c0  d107              BNE      |L1.210|
                  |L1.194|
0000c2  49e4              LDR      r1,|L1.1108|
0000c4  f89112a0          LDRB     r1,[r1,#0x2a0]  ; bps
0000c8  2909              CMP      r1,#9
0000ca  d102              BNE      |L1.210|
;;;313    	{
;;;314    	snmp_bat_current[0]=Ib_ips_termokompensat;
0000cc  49e2              LDR      r1,|L1.1112|
0000ce  8809              LDRH     r1,[r1,#0]  ; Ib_ips_termokompensat
0000d0  8029              STRH     r1,[r5,#0]
                  |L1.210|
;;;315    	}
;;;316    #endif
;;;317    
;;;318    snmp_bat_temperature[0]=bat[0]._Tb;
0000d2  49cd              LDR      r1,|L1.1032|
0000d4  8942              LDRH     r2,[r0,#0xa]  ; bat
0000d6  3194              ADDS     r1,r1,#0x94
0000d8  800a              STRH     r2,[r1,#0]
;;;319    if(BAT_C_REAL[0]==0x5555)snmp_bat_capacity[0]=BAT_C_NOM[0];
0000da  f8dfc380          LDR      r12,|L1.1116|
0000de  4aca              LDR      r2,|L1.1032|
0000e0  f2455b55          MOV      r11,#0x5555
0000e4  f9bc1000          LDRSH    r1,[r12,#0]  ; BAT_C_REAL
0000e8  f8dfe374          LDR      lr,|L1.1120|
0000ec  3298              ADDS     r2,r2,#0x98
0000ee  4559              CMP      r1,r11
0000f0  d103              BNE      |L1.250|
0000f2  f8be1000          LDRH     r1,[lr,#0]  ; BAT_C_NOM
0000f6  8011              STRH     r1,[r2,#0]
0000f8  e000              B        |L1.252|
                  |L1.250|
;;;320    else snmp_bat_capacity[0]=BAT_C_REAL[0];
0000fa  8011              STRH     r1,[r2,#0]
                  |L1.252|
;;;321    snmp_bat_charge[0]=bat[0]._zar;
0000fc  49c2              LDR      r1,|L1.1032|
0000fe  8a03              LDRH     r3,[r0,#0x10]  ; bat
000100  319c              ADDS     r1,r1,#0x9c
000102  800b              STRH     r3,[r1,#0]
;;;322    snmp_bat_status[0]=bat[0]._av;
000104  4bc0              LDR      r3,|L1.1032|
000106  f890103d          LDRB     r1,[r0,#0x3d]  ; bat
00010a  33a0              ADDS     r3,r3,#0xa0
00010c  8019              STRH     r1,[r3,#0]
;;;323    if(BAT_IS_ON[0]!=bisON)snmp_bat_status[0]=0xff;
00010e  49d5              LDR      r1,|L1.1124|
000110  f8918000          LDRB     r8,[r1,#0]  ; BAT_IS_ON
000114  21ff              MOVS     r1,#0xff
000116  f1b80f55          CMP      r8,#0x55
00011a  d000              BEQ      |L1.286|
00011c  8019              STRH     r1,[r3,#0]
                  |L1.286|
;;;324    
;;;325    snmp_bat_number[1]=2;
00011e  f04f0802          MOV      r8,#2
000122  f8a68002          STRH     r8,[r6,#2]
;;;326    snmp_bat_voltage[1]=bat[1]._Ub;
000126  f8306f4e          LDRH     r6,[r0,#0x4e]!  ; bat
00012a  f8a96002          STRH     r6,[r9,#2]
;;;327    snmp_bat_part_voltage[1]=bat[1]._Ubm;
00012e  8846              LDRH     r6,[r0,#2]  ; bat
000130  f8aa6002          STRH     r6,[r10,#2]
;;;328    snmp_bat_current[1]=bat[1]._Ib;
000134  88c6              LDRH     r6,[r0,#6]  ; bat
000136  806e              STRH     r6,[r5,#2]
;;;329    snmp_bat_temperature[1]=bat[1]._Tb;
000138  4db3              LDR      r5,|L1.1032|
00013a  8906              LDRH     r6,[r0,#8]  ; bat
00013c  f1050594          ADD      r5,r5,#0x94
000140  f1a0004e          SUB      r0,r0,#0x4e
000144  806e              STRH     r6,[r5,#2]
;;;330    if(BAT_C_REAL[1]==0x5555)snmp_bat_capacity[1]=BAT_C_NOM[1];
000146  f9bc5002          LDRSH    r5,[r12,#2]  ; BAT_C_REAL
00014a  455d              CMP      r5,r11
00014c  d103              BNE      |L1.342|
00014e  f8be5002          LDRH     r5,[lr,#2]  ; BAT_C_NOM
000152  8055              STRH     r5,[r2,#2]
000154  e000              B        |L1.344|
                  |L1.342|
;;;331    else snmp_bat_capacity[1]=BAT_C_REAL[1];
000156  8055              STRH     r5,[r2,#2]
                  |L1.344|
;;;332    snmp_bat_charge[1]=bat[1]._zar;
000158  4aab              LDR      r2,|L1.1032|
00015a  f8b0505c          LDRH     r5,[r0,#0x5c]  ; bat
00015e  329c              ADDS     r2,r2,#0x9c
000160  8055              STRH     r5,[r2,#2]
;;;333    snmp_bat_status[1]=bat[1]._av;
000162  f8900089          LDRB     r0,[r0,#0x89]  ; bat
000166  8058              STRH     r0,[r3,#2]
;;;334    if(BAT_IS_ON[1]!=bisON)snmp_bat_status[1]=0xff;
000168  48be              LDR      r0,|L1.1124|
00016a  7840              LDRB     r0,[r0,#1]  ; BAT_IS_ON
00016c  2855              CMP      r0,#0x55
00016e  d000              BEQ      |L1.370|
000170  8059              STRH     r1,[r3,#2]
                  |L1.370|
;;;335    
;;;336    
;;;337    
;;;338    snmp_bps_number[0]=1;
000172  f8dfb2f4          LDR      r11,|L1.1128|
000176  f04f0001          MOV      r0,#1
00017a  f8ab0000          STRH     r0,[r11,#0]
;;;339    snmp_bps_voltage[0]=bps[0]._Uii;
00017e  4db5              LDR      r5,|L1.1108|
000180  f10b0610          ADD      r6,r11,#0x10
000184  69ea              LDR      r2,[r5,#0x1c]  ; bps
000186  8032              STRH     r2,[r6,#0]
;;;340    snmp_bps_current[0]=bps[0]._Ii;
000188  f1060c10          ADD      r12,r6,#0x10
00018c  6a6a              LDR      r2,[r5,#0x24]  ; bps
00018e  f8ac2000          STRH     r2,[r12,#0]
;;;341    snmp_bps_temperature[0]=bps[0]._Ti;
000192  f1060a20          ADD      r10,r6,#0x20
000196  6aaa              LDR      r2,[r5,#0x28]  ; bps
000198  f8aa2000          STRH     r2,[r10,#0]
;;;342    snmp_bps_stat[0]=bps[0]._av;
00019c  f1060330          ADD      r3,r6,#0x30
0001a0  786a              LDRB     r2,[r5,#1]  ; bps
0001a2  801a              STRH     r2,[r3,#0]
;;;343    if(!(NUMIST>0))snmp_bps_stat[0]=0xff;												//Байт состояния БПСа.
0001a4  f9b42000          LDRSH    r2,[r4,#0]  ; NUMIST
0001a8  2a00              CMP      r2,#0
0001aa  dc00              BGT      |L1.430|
0001ac  8019              STRH     r1,[r3,#0]
                  |L1.430|
;;;344    
;;;345    /*if(St_[0]&(1<<2))snmp_bps_stat[0]=(1<<3); 							//авария по Umin
;;;346    else if(St_[0]&(1<<3))snmp_bps_stat[0]=(1<<2); 						//авария по Umax
;;;347    else if(bps[0]._av&(1<<0))snmp_bps_stat[0]=(1<<1); 						//авария по Tmax
;;;348    else if(St_[0]&(1<<5))snmp_bps_stat[0]=(1<<5); 						//заблокирован
;;;349    else if((!(St_[0]&0x3c))&&(!St&0x01)&&(!OFFBP1))snmp_bps_stat[0]=1; 		//Работает
;;;350    */
;;;351    
;;;352    snmp_bps_number[1]=2;
0001ae  f8ab8002          STRH     r8,[r11,#2]
;;;353    snmp_bps_voltage[1]=bps[1]._Uii;
0001b2  6f2c              LDR      r4,[r5,#0x70]  ; bps
0001b4  8074              STRH     r4,[r6,#2]
;;;354    snmp_bps_current[1]=bps[1]._Ii;
0001b6  6fac              LDR      r4,[r5,#0x78]  ; bps
0001b8  f8ac4002          STRH     r4,[r12,#2]
;;;355    snmp_bps_temperature[1]=bps[1]._Ti;
0001bc  6fec              LDR      r4,[r5,#0x7c]  ; bps
0001be  f8aa4002          STRH     r4,[r10,#2]
;;;356    snmp_bps_stat[1]=bps[1]._av;
0001c2  f8954055          LDRB     r4,[r5,#0x55]  ; bps
0001c6  805c              STRH     r4,[r3,#2]
;;;357    if(!(NUMIST>1))snmp_bps_stat[1]=0xff;												//Байт состояния БПСа.
0001c8  2a01              CMP      r2,#1
0001ca  dc00              BGT      |L1.462|
0001cc  8059              STRH     r1,[r3,#2]
                  |L1.462|
;;;358    /*if(St_[1]&(1<<2))snmp_bps_stat[1]=(1<<3); 							//авария по Umin
;;;359    else if(St_[1]&(1<<3))snmp_bps_stat[1]=(1<<2); 						//авария по Umax
;;;360    else if(St_[1]&(1<<4))snmp_bps_stat[1]=(1<<1); 						//авария по Tmax
;;;361    else if(St_[1]&(1<<5))snmp_bps_stat[1]=(1<<5); 						//заблокирован
;;;362    else if((!(St_[1]&0x3c))&&(!St&0x01)&&(!OFFBP2))snmp_bps_stat[1]=1; 		//Работает
;;;363    */
;;;364    
;;;365    snmp_bps_number[2]=3;
0001ce  f04f0903          MOV      r9,#3
0001d2  f8ab9004          STRH     r9,[r11,#4]
;;;366    snmp_bps_voltage[2]=bps[2]._Uii;
0001d6  f10505a8          ADD      r5,r5,#0xa8
0001da  69ec              LDR      r4,[r5,#0x1c]  ; bps
0001dc  80b4              STRH     r4,[r6,#4]
;;;367    snmp_bps_current[2]=bps[2]._Ii;
0001de  6a6c              LDR      r4,[r5,#0x24]  ; bps
0001e0  f8ac4004          STRH     r4,[r12,#4]
;;;368    snmp_bps_temperature[2]=bps[2]._Ti;
0001e4  6aac              LDR      r4,[r5,#0x28]  ; bps
0001e6  f8aa4004          STRH     r4,[r10,#4]
;;;369    snmp_bps_stat[2]=bps[2]._av;
0001ea  786c              LDRB     r4,[r5,#1]  ; bps
0001ec  f1a505a8          SUB      r5,r5,#0xa8
0001f0  809c              STRH     r4,[r3,#4]
;;;370    if(!(NUMIST>2))snmp_bps_stat[2]=0xff;
0001f2  2a02              CMP      r2,#2
0001f4  dc00              BGT      |L1.504|
0001f6  8099              STRH     r1,[r3,#4]
                  |L1.504|
;;;371    
;;;372    snmp_bps_number[3]=4;
0001f8  f04f0404          MOV      r4,#4
0001fc  f8ab4006          STRH     r4,[r11,#6]
;;;373    snmp_bps_voltage[3]=bps[3]._Uii;
000200  f10505fc          ADD      r5,r5,#0xfc
000204  69ec              LDR      r4,[r5,#0x1c]  ; bps
000206  80f4              STRH     r4,[r6,#6]
;;;374    snmp_bps_current[3]=bps[3]._Ii;
000208  6a6c              LDR      r4,[r5,#0x24]  ; bps
00020a  f8ac4006          STRH     r4,[r12,#6]
;;;375    snmp_bps_temperature[3]=bps[3]._Ti;
00020e  6aac              LDR      r4,[r5,#0x28]  ; bps
000210  f8aa4006          STRH     r4,[r10,#6]
;;;376    snmp_bps_stat[3]=bps[3]._av;
000214  786c              LDRB     r4,[r5,#1]  ; bps
000216  f1a505fc          SUB      r5,r5,#0xfc
00021a  80dc              STRH     r4,[r3,#6]
;;;377    if(!(NUMIST>3))snmp_bps_stat[3]=0xff;
00021c  2a03              CMP      r2,#3
00021e  dc00              BGT      |L1.546|
000220  80d9              STRH     r1,[r3,#6]
                  |L1.546|
;;;378    
;;;379    snmp_bps_number[4]=5;
000222  f04f0405          MOV      r4,#5
000226  f8ab4008          STRH     r4,[r11,#8]
;;;380    snmp_bps_voltage[4]=bps[4]._Uii;
00022a  f8d5416c          LDR      r4,[r5,#0x16c]  ; bps
00022e  8134              STRH     r4,[r6,#8]
;;;381    snmp_bps_current[4]=bps[4]._Ii;
000230  f8d54174          LDR      r4,[r5,#0x174]  ; bps
000234  f8ac4008          STRH     r4,[r12,#8]
;;;382    snmp_bps_temperature[4]=bps[4]._Ti;
000238  f8d54178          LDR      r4,[r5,#0x178]  ; bps
00023c  f8aa4008          STRH     r4,[r10,#8]
;;;383    snmp_bps_stat[4]=bps[4]._av;
000240  f8954151          LDRB     r4,[r5,#0x151]  ; bps
000244  811c              STRH     r4,[r3,#8]
;;;384    if(!(NUMIST>4))snmp_bps_stat[4]=0xff;
000246  2a04              CMP      r2,#4
000248  dc00              BGT      |L1.588|
00024a  8119              STRH     r1,[r3,#8]
                  |L1.588|
;;;385    
;;;386    snmp_bps_number[5]=6;
00024c  f04f0406          MOV      r4,#6
000250  f8ab400a          STRH     r4,[r11,#0xa]
;;;387    snmp_bps_voltage[5]=bps[5]._Uii;
000254  f8d541c0          LDR      r4,[r5,#0x1c0]  ; bps
000258  8174              STRH     r4,[r6,#0xa]
;;;388    snmp_bps_current[5]=bps[5]._Ii;
00025a  f8d541c8          LDR      r4,[r5,#0x1c8]  ; bps
00025e  f8ac400a          STRH     r4,[r12,#0xa]
;;;389    snmp_bps_temperature[5]=bps[5]._Ti;
000262  f8d541cc          LDR      r4,[r5,#0x1cc]  ; bps
000266  f8aa400a          STRH     r4,[r10,#0xa]
;;;390    snmp_bps_stat[5]=bps[5]._av;
00026a  f89541a5          LDRB     r4,[r5,#0x1a5]  ; bps
00026e  815c              STRH     r4,[r3,#0xa]
;;;391    if(!(NUMIST>5))snmp_bps_stat[5]=0xff;
000270  2a05              CMP      r2,#5
000272  dc00              BGT      |L1.630|
000274  8159              STRH     r1,[r3,#0xa]
                  |L1.630|
;;;392    
;;;393    snmp_bps_number[6]=7;
000276  f04f0407          MOV      r4,#7
00027a  f8ab400c          STRH     r4,[r11,#0xc]
;;;394    snmp_bps_voltage[6]=bps[6]._Uii;
00027e  f8d54214          LDR      r4,[r5,#0x214]  ; bps
000282  81b4              STRH     r4,[r6,#0xc]
;;;395    snmp_bps_current[6]=bps[6]._Ii;
000284  f8d5421c          LDR      r4,[r5,#0x21c]  ; bps
000288  f8ac400c          STRH     r4,[r12,#0xc]
;;;396    snmp_bps_temperature[6]=bps[6]._Ti;
00028c  f8d54220          LDR      r4,[r5,#0x220]  ; bps
000290  f8aa400c          STRH     r4,[r10,#0xc]
;;;397    snmp_bps_stat[6]=bps[6]._av;
000294  f89541f9          LDRB     r4,[r5,#0x1f9]  ; bps
000298  819c              STRH     r4,[r3,#0xc]
;;;398    if(!(NUMIST>6))snmp_bps_stat[6]=0xff;
00029a  2a06              CMP      r2,#6
00029c  dc00              BGT      |L1.672|
00029e  8199              STRH     r1,[r3,#0xc]
                  |L1.672|
;;;399    
;;;400    snmp_bps_number[7]=8;
0002a0  f04f0408          MOV      r4,#8
0002a4  f8ab400e          STRH     r4,[r11,#0xe]
;;;401    snmp_bps_voltage[7]=bps[7]._Uii;
0002a8  f5057513          ADD      r5,r5,#0x24c
0002ac  69ec              LDR      r4,[r5,#0x1c]  ; bps
0002ae  81f4              STRH     r4,[r6,#0xe]
;;;402    snmp_bps_current[7]=bps[7]._Ii;
0002b0  6a6c              LDR      r4,[r5,#0x24]  ; bps
0002b2  f8ac400e          STRH     r4,[r12,#0xe]
;;;403    snmp_bps_temperature[7]=bps[7]._Ti;
0002b6  6aac              LDR      r4,[r5,#0x28]  ; bps
0002b8  f8aa400e          STRH     r4,[r10,#0xe]
;;;404    snmp_bps_stat[7]=bps[7]._av;
0002bc  786c              LDRB     r4,[r5,#1]  ; bps
0002be  81dc              STRH     r4,[r3,#0xe]
;;;405    if(!(NUMIST>7))snmp_bps_stat[7]=0xff;
0002c0  2a07              CMP      r2,#7
0002c2  dc00              BGT      |L1.710|
0002c4  81d9              STRH     r1,[r3,#0xe]
                  |L1.710|
;;;406    
;;;407    
;;;408    
;;;409    snmp_inv_number[0]=1;
0002c6  4a50              LDR      r2,|L1.1032|
0002c8  32c0              ADDS     r2,r2,#0xc0
0002ca  8010              STRH     r0,[r2,#0]
;;;410    snmp_inv_voltage[0]=inv[0]._Uio;
0002cc  4967              LDR      r1,|L1.1132|
0002ce  1d93              ADDS     r3,r2,#6
0002d0  698c              LDR      r4,[r1,#0x18]  ; inv
0002d2  801c              STRH     r4,[r3,#0]
;;;411    snmp_inv_current[0]=inv[0]._Ii;
0002d4  1d9c              ADDS     r4,r3,#6
0002d6  69cd              LDR      r5,[r1,#0x1c]  ; inv
0002d8  8025              STRH     r5,[r4,#0]
;;;412    snmp_inv_temperature[0]=inv[0]._Ti;
0002da  1da5              ADDS     r5,r4,#6
0002dc  6a0e              LDR      r6,[r1,#0x20]  ; inv
0002de  802e              STRH     r6,[r5,#0]
;;;413    snmp_inv_stat[0]=inv[0]._flags_tm;
0002e0  1dae              ADDS     r6,r5,#6
0002e2  f891c046          LDRB     r12,[r1,#0x46]  ; inv
0002e6  f8a6c000          STRH     r12,[r6,#0]
;;;414    
;;;415    snmp_inv_number[1]=2;
0002ea  f8a28002          STRH     r8,[r2,#2]
;;;416    snmp_inv_voltage[1]=inv[1]._Uio;
0002ee  f8d1c078          LDR      r12,[r1,#0x78]  ; inv
0002f2  f8a3c002          STRH     r12,[r3,#2]
;;;417    snmp_inv_current[1]=inv[1]._Ii;
0002f6  f8d1c07c          LDR      r12,[r1,#0x7c]  ; inv
0002fa  f8a4c002          STRH     r12,[r4,#2]
;;;418    snmp_inv_temperature[1]=inv[1]._Ti;
0002fe  f8d1c080          LDR      r12,[r1,#0x80]  ; inv
000302  f8a5c002          STRH     r12,[r5,#2]
;;;419    snmp_inv_stat[1]=inv[1]._flags_tm;
000306  f891c0a6          LDRB     r12,[r1,#0xa6]  ; inv
00030a  f8a6c002          STRH     r12,[r6,#2]
;;;420    
;;;421    snmp_inv_number[2]=3;
00030e  f8a29004          STRH     r9,[r2,#4]
;;;422    snmp_inv_voltage[2]=inv[2]._Uio;
000312  f8d120d8          LDR      r2,[r1,#0xd8]  ; inv
000316  809a              STRH     r2,[r3,#4]
;;;423    snmp_inv_current[2]=inv[2]._Ii;
000318  f8d120dc          LDR      r2,[r1,#0xdc]  ; inv
00031c  80a2              STRH     r2,[r4,#4]
;;;424    snmp_inv_temperature[2]=inv[2]._Ti;
00031e  f8d120e0          LDR      r2,[r1,#0xe0]  ; inv
000322  80aa              STRH     r2,[r5,#4]
;;;425    snmp_inv_stat[2]=inv[2]._flags_tm;
000324  f8911106          LDRB     r1,[r1,#0x106]  ; inv
000328  80b1              STRH     r1,[r6,#4]
;;;426    
;;;427    
;;;428    
;;;429    
;;;430    					  
;;;431    snmp_sk_number[0]=1;
00032a  f1a30c1a          SUB      r12,r3,#0x1a
00032e  f88c0000          STRB     r0,[r12,#0]
;;;432    memcpy(&snmp_sk_name[0][0],"Door",10);
000332  4d4d              LDR      r5,|L1.1128|
000334  a14e              ADR      r1,|L1.1136|
000336  359c              ADDS     r5,r5,#0x9c
000338  680a              LDR      r2,[r1,#0]
00033a  632a              STR      r2,[r5,#0x30]  ; snmp_sk_name
00033c  684a              LDR      r2,[r1,#4]
00033e  636a              STR      r2,[r5,#0x34]  ; snmp_sk_name
000340  8909              LDRH     r1,[r1,#8]
000342  8729              STRH     r1,[r5,#0x38]
;;;433    if(sk_stat[0]==ssON) snmp_sk_aktiv[0]=1;
000344  f8dfe130          LDR      lr,|L1.1144|
;;;434    else snmp_sk_aktiv[0]=0;
000348  2100              MOVS     r1,#0
00034a  f1a4021c          SUB      r2,r4,#0x1c           ;433
00034e  f89e3000          LDRB     r3,[lr,#0]            ;433  ; sk_stat
000352  2b01              CMP      r3,#1                 ;433
000354  d052              BEQ      |L1.1020|
000356  7011              STRB     r1,[r2,#0]
                  |L1.856|
;;;435    if(!SK_SIGN[0])snmp_sk_alarm_aktiv[0]=1;
000358  f8dfa120          LDR      r10,|L1.1148|
00035c  4b2a              LDR      r3,|L1.1032|
00035e  f8ba4000          LDRH     r4,[r10,#0]  ; SK_SIGN
000362  33b4              ADDS     r3,r3,#0xb4
000364  2c00              CMP      r4,#0
000366  d04b              BEQ      |L1.1024|
;;;436    else snmp_sk_alarm_aktiv[0]=0;
000368  7019              STRB     r1,[r3,#0]
                  |L1.874|
;;;437    if(sk_av_stat[0]==sasON)	snmp_sk_alarm[0]=1;
00036a  4c45              LDR      r4,|L1.1152|
00036c  7826              LDRB     r6,[r4,#0]  ; sk_av_stat
00036e  4c26              LDR      r4,|L1.1032|
000370  34b8              ADDS     r4,r4,#0xb8
000372  2e01              CMP      r6,#1
000374  d045              BEQ      |L1.1026|
;;;438    else                     snmp_sk_alarm[0]=0;
000376  7021              STRB     r1,[r4,#0]
                  |L1.888|
;;;439    
;;;440    
;;;441    snmp_sk_number[1]=2;
000378  f88c8001          STRB     r8,[r12,#1]
;;;442    memcpy(&snmp_sk_name[1][0],"Smoke",10);
00037c  a641              ADR      r6,|L1.1156|
00037e  f8d6b000          LDR      r11,[r6,#0]
000382  f8c5b044          STR      r11,[r5,#0x44]  ; snmp_sk_name
000386  f8d6b004          LDR      r11,[r6,#4]
00038a  f8c5b048          STR      r11,[r5,#0x48]  ; snmp_sk_name
00038e  8936              LDRH     r6,[r6,#8]
000390  f8a5604c          STRH     r6,[r5,#0x4c]
;;;443    if(sk_stat[1]==ssON) snmp_sk_aktiv[1]=1;
000394  f89e6001          LDRB     r6,[lr,#1]  ; sk_stat
000398  2e01              CMP      r6,#1
00039a  d07b              BEQ      |L1.1172|
;;;444    else snmp_sk_aktiv[1]=0;
00039c  7051              STRB     r1,[r2,#1]
                  |L1.926|
;;;445    if(!SK_SIGN[1])snmp_sk_alarm_aktiv[1]=1;
00039e  f8ba6002          LDRH     r6,[r10,#2]  ; SK_SIGN
0003a2  b356              CBZ      r6,|L1.1018|
;;;446    else snmp_sk_alarm_aktiv[1]=0;
0003a4  7059              STRB     r1,[r3,#1]
                  |L1.934|
;;;447    if(sk_av_stat[1]==sasON)	snmp_sk_alarm[1]=1;
0003a6  f8dfb0d8          LDR      r11,|L1.1152|
0003aa  f89b6001          LDRB     r6,[r11,#1]  ; sk_av_stat
0003ae  2e01              CMP      r6,#1
0003b0  d071              BEQ      |L1.1174|
;;;448    else                     snmp_sk_alarm[1]=0;
0003b2  7061              STRB     r1,[r4,#1]
                  |L1.948|
;;;449    
;;;450    snmp_sk_number[2]=3;
0003b4  4e14              LDR      r6,|L1.1032|
0003b6  36ac              ADDS     r6,r6,#0xac
0003b8  f8869002          STRB     r9,[r6,#2]
;;;451    memcpy(&snmp_sk_name[2][0],"Shock",10);
0003bc  a633              ADR      r6,|L1.1164|
0003be  f8d6c000          LDR      r12,[r6,#0]
0003c2  f8c5c058          STR      r12,[r5,#0x58]  ; snmp_sk_name
0003c6  f8d6c004          LDR      r12,[r6,#4]
0003ca  f8c5c05c          STR      r12,[r5,#0x5c]  ; snmp_sk_name
0003ce  8936              LDRH     r6,[r6,#8]
0003d0  f8a56060          STRH     r6,[r5,#0x60]
;;;452    if(sk_stat[2]==ssON) snmp_sk_aktiv[2]=1;
0003d4  4e28              LDR      r6,|L1.1144|
0003d6  78b6              LDRB     r6,[r6,#2]  ; sk_stat
0003d8  2e01              CMP      r6,#1
0003da  d07e              BEQ      |L1.1242|
;;;453    else snmp_sk_aktiv[2]=0;
0003dc  7091              STRB     r1,[r2,#2]
                  |L1.990|
;;;454    if(!SK_SIGN[2])snmp_sk_alarm_aktiv[2]=1;
0003de  f8ba6004          LDRH     r6,[r10,#4]  ; SK_SIGN
0003e2  b166              CBZ      r6,|L1.1022|
;;;455    else snmp_sk_alarm_aktiv[2]=0;
0003e4  7099              STRB     r1,[r3,#2]
                  |L1.998|
;;;456    if(sk_av_stat[2]==sasON)	snmp_sk_alarm[2]=1;
0003e6  f89b6002          LDRB     r6,[r11,#2]  ; sk_av_stat
0003ea  2e01              CMP      r6,#1
0003ec  d076              BEQ      |L1.1244|
;;;457    else                     snmp_sk_alarm[2]=0;
0003ee  70a1              STRB     r1,[r4,#2]
                  |L1.1008|
;;;458    
;;;459    snmp_sk_number[3]=4;
0003f0  f04f0604          MOV      r6,#4
0003f4  f8dfc010          LDR      r12,|L1.1032|
0003f8  e04e              B        |L1.1176|
                  |L1.1018|
0003fa  e080              B        |L1.1278|
                  |L1.1020|
0003fc  e077              B        |L1.1262|
                  |L1.1022|
0003fe  e084              B        |L1.1290|
                  |L1.1024|
000400  e077              B        |L1.1266|
                  |L1.1026|
000402  e078              B        |L1.1270|
                  |L1.1028|
                          DCD      net_U
                  |L1.1032|
                          DCD      ||.data||
                  |L1.1036|
                          DCD      net_F3
                  |L1.1040|
                          DCD      net_Ua
                  |L1.1044|
                          DCD      net_Ub
                  |L1.1048|
                          DCD      net_Uc
                  |L1.1052|
                          DCD      load_U
                  |L1.1056|
                          DCD      load_I
                  |L1.1060|
                          DCD      NUMBAT
                  |L1.1064|
                          DCD      NUMIST
                  |L1.1068|
                          DCD      NUMINV
                  |L1.1072|
                          DCD      NUMAVT
                  |L1.1076|
                          DCD      NUMDT
                  |L1.1080|
                          DCD      NUMSK
                  |L1.1084|
                          DCD      Uvv_eb2
                  |L1.1088|
                          DCD      Upes_eb2
                  |L1.1092|
                          DCD      power_summary
                  |L1.1096|
                          DCD      power_current
                  |L1.1100|
                          DCD      bat
                  |L1.1104|
                          DCD      AUSW_MAIN
                  |L1.1108|
                          DCD      bps
                  |L1.1112|
                          DCD      Ib_ips_termokompensat
                  |L1.1116|
                          DCD      BAT_C_REAL
                  |L1.1120|
                          DCD      BAT_C_NOM
                  |L1.1124|
                          DCD      BAT_IS_ON
                  |L1.1128|
                          DCD      ||area_number.20||+0x64
                  |L1.1132|
                          DCD      inv
                  |L1.1136|
000470  446f6f72          DCB      "Door",0
000474  00      
000475  00                DCB      0
000476  00                DCB      0
000477  00                DCB      0
                  |L1.1144|
                          DCD      sk_stat
                  |L1.1148|
                          DCD      SK_SIGN
                  |L1.1152|
                          DCD      sk_av_stat
                  |L1.1156|
000484  536d6f6b          DCB      "Smoke",0
000488  6500    
00048a  00                DCB      0
00048b  00                DCB      0
                  |L1.1164|
00048c  53686f63          DCB      "Shock",0
000490  6b00    
000492  00                DCB      0
000493  00                DCB      0
                  |L1.1172|
000494  e031              B        |L1.1274|
                  |L1.1174|
000496  e034              B        |L1.1282|
                  |L1.1176|
000498  f10c0cac          ADD      r12,r12,#0xac
00049c  f88c6003          STRB     r6,[r12,#3]
;;;460    memcpy(&snmp_sk_name[3][0],"     ",10);
0004a0  f20f4c10          ADR      r12,|L1.2228|
0004a4  f8dce000          LDR      lr,[r12,#0]
0004a8  f8c5e06c          STR      lr,[r5,#0x6c]  ; snmp_sk_name
0004ac  f8dce004          LDR      lr,[r12,#4]
0004b0  f8c5e070          STR      lr,[r5,#0x70]  ; snmp_sk_name
0004b4  f8bcc008          LDRH     r12,[r12,#8]
0004b8  f8a5c074          STRH     r12,[r5,#0x74]
;;;461    if(sk_stat[3]==ssON) snmp_sk_aktiv[3]=1;
0004bc  4dff              LDR      r5,|L1.2236|
0004be  78ed              LDRB     r5,[r5,#3]  ; sk_stat
0004c0  2d01              CMP      r5,#1
0004c2  d026              BEQ      |L1.1298|
;;;462    else snmp_sk_aktiv[3]=0;
0004c4  70d1              STRB     r1,[r2,#3]
                  |L1.1222|
;;;463    if(!SK_SIGN[3])snmp_sk_alarm_aktiv[3]=1;
0004c6  f8ba2006          LDRH     r2,[r10,#6]  ; SK_SIGN
0004ca  b322              CBZ      r2,|L1.1302|
;;;464    else snmp_sk_alarm_aktiv[3]=0;
0004cc  70d9              STRB     r1,[r3,#3]
                  |L1.1230|
;;;465    if(sk_av_stat[3]==sasON)	snmp_sk_alarm[3]=1;
0004ce  f89b2003          LDRB     r2,[r11,#3]  ; sk_av_stat
0004d2  2a01              CMP      r2,#1
0004d4  d021              BEQ      |L1.1306|
;;;466    else                     snmp_sk_alarm[3]=0;
0004d6  70e1              STRB     r1,[r4,#3]
                  |L1.1240|
;;;467    
;;;468    
;;;469    if(makb[0]._cnt>8) snmp_makb_connect_status[0]=1;
0004d8  e001              B        |L1.1246|
                  |L1.1242|
0004da  e014              B        |L1.1286|
                  |L1.1244|
0004dc  e017              B        |L1.1294|
                  |L1.1246|
0004de  4af8              LDR      r2,|L1.2240|
0004e0  4bf8              LDR      r3,|L1.2244|
0004e2  f9b24028          LDRSH    r4,[r2,#0x28]  ; makb
0004e6  2c08              CMP      r4,#8
0004e8  dd19              BLE      |L1.1310|
0004ea  8018              STRH     r0,[r3,#0]
0004ec  e01a              B        |L1.1316|
                  |L1.1262|
0004ee  7010              STRB     r0,[r2,#0]            ;433
0004f0  e732              B        |L1.856|
                  |L1.1266|
0004f2  7018              STRB     r0,[r3,#0]            ;435
0004f4  e739              B        |L1.874|
                  |L1.1270|
0004f6  7020              STRB     r0,[r4,#0]            ;437
0004f8  e73e              B        |L1.888|
                  |L1.1274|
0004fa  7050              STRB     r0,[r2,#1]            ;443
0004fc  e74f              B        |L1.926|
                  |L1.1278|
0004fe  7058              STRB     r0,[r3,#1]            ;445
000500  e751              B        |L1.934|
                  |L1.1282|
000502  7060              STRB     r0,[r4,#1]            ;447
000504  e756              B        |L1.948|
                  |L1.1286|
000506  7090              STRB     r0,[r2,#2]            ;452
000508  e769              B        |L1.990|
                  |L1.1290|
00050a  7098              STRB     r0,[r3,#2]            ;454
00050c  e76b              B        |L1.998|
                  |L1.1294|
00050e  70a0              STRB     r0,[r4,#2]            ;456
000510  e76e              B        |L1.1008|
                  |L1.1298|
000512  70d0              STRB     r0,[r2,#3]            ;461
000514  e7d7              B        |L1.1222|
                  |L1.1302|
000516  70d8              STRB     r0,[r3,#3]            ;463
000518  e7d9              B        |L1.1230|
                  |L1.1306|
00051a  70e0              STRB     r0,[r4,#3]            ;465
00051c  e7dc              B        |L1.1240|
                  |L1.1310|
;;;470    else if(makb[0]._cnt<2) snmp_makb_connect_status[0]=0;
00051e  2c02              CMP      r4,#2
000520  da00              BGE      |L1.1316|
000522  8019              STRH     r1,[r3,#0]
                  |L1.1316|
;;;471    if(makb[1]._cnt>8) snmp_makb_connect_status[1]=1;
000524  f9b24052          LDRSH    r4,[r2,#0x52]  ; makb
000528  2c08              CMP      r4,#8
00052a  dd01              BLE      |L1.1328|
00052c  8058              STRH     r0,[r3,#2]
00052e  e002              B        |L1.1334|
                  |L1.1328|
;;;472    else if(makb[1]._cnt<2) snmp_makb_connect_status[1]=0;
000530  2c02              CMP      r4,#2
000532  da00              BGE      |L1.1334|
000534  8059              STRH     r1,[r3,#2]
                  |L1.1334|
;;;473    if(makb[2]._cnt>8) snmp_makb_connect_status[2]=1;
000536  f9b2407c          LDRSH    r4,[r2,#0x7c]  ; makb
00053a  2c08              CMP      r4,#8
00053c  dd01              BLE      |L1.1346|
00053e  8098              STRH     r0,[r3,#4]
000540  e002              B        |L1.1352|
                  |L1.1346|
;;;474    else if(makb[2]._cnt<2) snmp_makb_connect_status[2]=0;
000542  2c02              CMP      r4,#2
000544  da00              BGE      |L1.1352|
000546  8099              STRH     r1,[r3,#4]
                  |L1.1352|
;;;475    if(makb[3]._cnt>8) snmp_makb_connect_status[3]=1;
000548  f9b240a6          LDRSH    r4,[r2,#0xa6]  ; makb
00054c  2c08              CMP      r4,#8
00054e  dd01              BLE      |L1.1364|
000550  80d8              STRH     r0,[r3,#6]
000552  e002              B        |L1.1370|
                  |L1.1364|
;;;476    else if(makb[3]._cnt<2) snmp_makb_connect_status[3]=0;
000554  2c02              CMP      r4,#2
000556  da00              BGE      |L1.1370|
000558  80d9              STRH     r1,[r3,#6]
                  |L1.1370|
;;;477    
;;;478    snmp_makb_voltage0[0]=makb[0]._Ub[0];
00055a  4cda              LDR      r4,|L1.2244|
00055c  8953              LDRH     r3,[r2,#0xa]  ; makb
00055e  3408              ADDS     r4,r4,#8
000560  8023              STRH     r3,[r4,#0]
;;;479    snmp_makb_voltage1[0]=makb[0]._Ub[1];
000562  3408              ADDS     r4,r4,#8
000564  8993              LDRH     r3,[r2,#0xc]  ; makb
000566  8023              STRH     r3,[r4,#0]
;;;480    snmp_makb_voltage2[0]=makb[0]._Ub[2];
000568  3408              ADDS     r4,r4,#8
00056a  89d3              LDRH     r3,[r2,#0xe]  ; makb
00056c  8023              STRH     r3,[r4,#0]
;;;481    snmp_makb_voltage3[0]=makb[0]._Ub[3];
00056e  3408              ADDS     r4,r4,#8
000570  8a13              LDRH     r3,[r2,#0x10]  ; makb
000572  8023              STRH     r3,[r4,#0]
;;;482    snmp_makb_voltage4[0]=makb[0]._Ub[4];
000574  4bd3              LDR      r3,|L1.2244|
000576  8a54              LDRH     r4,[r2,#0x12]  ; makb
000578  3328              ADDS     r3,r3,#0x28
00057a  801c              STRH     r4,[r3,#0]
;;;483    snmp_makb_voltage0[1]=makb[1]._Ub[0];
00057c  f1a30520          SUB      r5,r3,#0x20
000580  8e94              LDRH     r4,[r2,#0x34]  ; makb
000582  806c              STRH     r4,[r5,#2]
;;;484    snmp_makb_voltage1[1]=makb[1]._Ub[1];
000584  3508              ADDS     r5,r5,#8
000586  8ed4              LDRH     r4,[r2,#0x36]  ; makb
000588  806c              STRH     r4,[r5,#2]
;;;485    snmp_makb_voltage2[1]=makb[1]._Ub[2];
00058a  3508              ADDS     r5,r5,#8
00058c  8f14              LDRH     r4,[r2,#0x38]  ; makb
00058e  806c              STRH     r4,[r5,#2]
;;;486    snmp_makb_voltage3[1]=makb[1]._Ub[3];
000590  3508              ADDS     r5,r5,#8
000592  8f54              LDRH     r4,[r2,#0x3a]  ; makb
000594  806c              STRH     r4,[r5,#2]
;;;487    snmp_makb_voltage4[1]=makb[1]._Ub[4];
000596  8f94              LDRH     r4,[r2,#0x3c]  ; makb
000598  805c              STRH     r4,[r3,#2]
;;;488    snmp_makb_voltage0[2]=makb[2]._Ub[0];
00059a  3d18              SUBS     r5,r5,#0x18
00059c  f8b2405e          LDRH     r4,[r2,#0x5e]  ; makb
0005a0  80ac              STRH     r4,[r5,#4]
;;;489    snmp_makb_voltage1[2]=makb[2]._Ub[1];
0005a2  3508              ADDS     r5,r5,#8
0005a4  f8b24060          LDRH     r4,[r2,#0x60]  ; makb
0005a8  80ac              STRH     r4,[r5,#4]
;;;490    snmp_makb_voltage2[2]=makb[2]._Ub[2];
0005aa  3508              ADDS     r5,r5,#8
0005ac  f8b24062          LDRH     r4,[r2,#0x62]  ; makb
0005b0  80ac              STRH     r4,[r5,#4]
;;;491    snmp_makb_voltage3[2]=makb[2]._Ub[3];
0005b2  3508              ADDS     r5,r5,#8
0005b4  f8b24064          LDRH     r4,[r2,#0x64]  ; makb
0005b8  80ac              STRH     r4,[r5,#4]
;;;492    snmp_makb_voltage4[2]=makb[2]._Ub[4];
0005ba  f8b24066          LDRH     r4,[r2,#0x66]  ; makb
0005be  809c              STRH     r4,[r3,#4]
;;;493    snmp_makb_voltage0[3]=makb[3]._Ub[0];
0005c0  3d18              SUBS     r5,r5,#0x18
0005c2  f8b24088          LDRH     r4,[r2,#0x88]  ; makb
0005c6  80ec              STRH     r4,[r5,#6]
;;;494    snmp_makb_voltage1[3]=makb[3]._Ub[1];
0005c8  3508              ADDS     r5,r5,#8
0005ca  f8b2408a          LDRH     r4,[r2,#0x8a]  ; makb
0005ce  80ec              STRH     r4,[r5,#6]
;;;495    snmp_makb_voltage2[3]=makb[3]._Ub[2];
0005d0  3508              ADDS     r5,r5,#8
0005d2  f8b2408c          LDRH     r4,[r2,#0x8c]  ; makb
0005d6  80ec              STRH     r4,[r5,#6]
;;;496    snmp_makb_voltage3[3]=makb[3]._Ub[3];
0005d8  3508              ADDS     r5,r5,#8
0005da  f8b2408e          LDRH     r4,[r2,#0x8e]  ; makb
0005de  80ec              STRH     r4,[r5,#6]
;;;497    snmp_makb_voltage4[3]=makb[3]._Ub[4];
0005e0  f8b24090          LDRH     r4,[r2,#0x90]  ; makb
0005e4  80dc              STRH     r4,[r3,#6]
;;;498    
;;;499    snmp_makb_temper0[0]=makb[0]._T[0];
0005e6  3308              ADDS     r3,r3,#8
0005e8  8a94              LDRH     r4,[r2,#0x14]  ; makb
0005ea  801c              STRH     r4,[r3,#0]
;;;500    snmp_makb_temper1[0]=makb[0]._T[1];
0005ec  f1030408          ADD      r4,r3,#8
0005f0  8ad5              LDRH     r5,[r2,#0x16]  ; makb
0005f2  8025              STRH     r5,[r4,#0]
;;;501    snmp_makb_temper2[0]=makb[0]._T[2];
0005f4  f1030510          ADD      r5,r3,#0x10
0005f8  f8b2c018          LDRH     r12,[r2,#0x18]  ; makb
0005fc  f8a5c000          STRH     r12,[r5,#0]
;;;502    snmp_makb_temper3[0]=makb[0]._T[3];
000600  f1030c18          ADD      r12,r3,#0x18
000604  f8b2a01a          LDRH     r10,[r2,#0x1a]  ; makb
000608  f8aca000          STRH     r10,[r12,#0]
;;;503    snmp_makb_temper4[0]=makb[0]._T[4];
00060c  f1030a20          ADD      r10,r3,#0x20
000610  f8b2b01c          LDRH     r11,[r2,#0x1c]  ; makb
000614  f8aab000          STRH     r11,[r10,#0]
;;;504    snmp_makb_temper0[1]=makb[1]._T[0];
000618  f8b2b03e          LDRH     r11,[r2,#0x3e]  ; makb
00061c  f8a3b002          STRH     r11,[r3,#2]
;;;505    snmp_makb_temper1[1]=makb[1]._T[1];
000620  f8b2b040          LDRH     r11,[r2,#0x40]  ; makb
000624  f8a4b002          STRH     r11,[r4,#2]
;;;506    snmp_makb_temper2[1]=makb[1]._T[2];
000628  f8b2b042          LDRH     r11,[r2,#0x42]  ; makb
00062c  f8a5b002          STRH     r11,[r5,#2]
;;;507    snmp_makb_temper3[1]=makb[1]._T[3];
000630  f8b2b044          LDRH     r11,[r2,#0x44]  ; makb
000634  f8acb002          STRH     r11,[r12,#2]
;;;508    snmp_makb_temper4[1]=makb[1]._T[4];
000638  f8b2b046          LDRH     r11,[r2,#0x46]  ; makb
00063c  f8aab002          STRH     r11,[r10,#2]
;;;509    snmp_makb_temper0[2]=makb[2]._T[0];
000640  f8b2b068          LDRH     r11,[r2,#0x68]  ; makb
000644  f8a3b004          STRH     r11,[r3,#4]
;;;510    snmp_makb_temper1[2]=makb[2]._T[1];
000648  f8b2b06a          LDRH     r11,[r2,#0x6a]  ; makb
00064c  f8a4b004          STRH     r11,[r4,#4]
;;;511    snmp_makb_temper2[2]=makb[2]._T[2];
000650  f8b2b06c          LDRH     r11,[r2,#0x6c]  ; makb
000654  f8a5b004          STRH     r11,[r5,#4]
;;;512    snmp_makb_temper3[2]=makb[2]._T[3];
000658  f8b2b06e          LDRH     r11,[r2,#0x6e]  ; makb
00065c  f8acb004          STRH     r11,[r12,#4]
;;;513    snmp_makb_temper4[2]=makb[2]._T[4];
000660  f8b2b070          LDRH     r11,[r2,#0x70]  ; makb
000664  f8aab004          STRH     r11,[r10,#4]
;;;514    snmp_makb_temper0[3]=makb[3]._T[0];
000668  f8b2b092          LDRH     r11,[r2,#0x92]  ; makb
00066c  f8a3b006          STRH     r11,[r3,#6]
;;;515    snmp_makb_temper1[3]=makb[3]._T[1];
000670  f8b23094          LDRH     r3,[r2,#0x94]  ; makb
000674  80e3              STRH     r3,[r4,#6]
;;;516    snmp_makb_temper2[3]=makb[3]._T[2];
000676  f8b23096          LDRH     r3,[r2,#0x96]  ; makb
00067a  80eb              STRH     r3,[r5,#6]
;;;517    snmp_makb_temper3[3]=makb[3]._T[3];
00067c  f8b23098          LDRH     r3,[r2,#0x98]  ; makb
000680  f8ac3006          STRH     r3,[r12,#6]
;;;518    snmp_makb_temper4[3]=makb[3]._T[4];
000684  f8b2309a          LDRH     r3,[r2,#0x9a]  ; makb
000688  f8aa3006          STRH     r3,[r10,#6]
;;;519    
;;;520    snmp_makb_temper0_stat[0]=makb[0]._T_nd[0];
00068c  f1050318          ADD      r3,r5,#0x18
000690  8bd4              LDRH     r4,[r2,#0x1e]  ; makb
000692  801c              STRH     r4,[r3,#0]
;;;521    snmp_makb_temper1_stat[0]=makb[0]._T_nd[1];
000694  f1030408          ADD      r4,r3,#8
000698  8c15              LDRH     r5,[r2,#0x20]  ; makb
00069a  8025              STRH     r5,[r4,#0]
;;;522    snmp_makb_temper2_stat[0]=makb[0]._T_nd[2];
00069c  f1030510          ADD      r5,r3,#0x10
0006a0  f8b2c022          LDRH     r12,[r2,#0x22]  ; makb
0006a4  f8a5c000          STRH     r12,[r5,#0]
;;;523    snmp_makb_temper3_stat[0]=makb[0]._T_nd[3];
0006a8  f1030c18          ADD      r12,r3,#0x18
0006ac  f8b2a024          LDRH     r10,[r2,#0x24]  ; makb
0006b0  f8aca000          STRH     r10,[r12,#0]
;;;524    snmp_makb_temper4_stat[0]=makb[0]._T_nd[4];
0006b4  f1030a20          ADD      r10,r3,#0x20
0006b8  f8b2b026          LDRH     r11,[r2,#0x26]  ; makb
0006bc  f8aab000          STRH     r11,[r10,#0]
;;;525    snmp_makb_temper0_stat[1]=makb[1]._T_nd[0];
0006c0  f8b2b048          LDRH     r11,[r2,#0x48]  ; makb
0006c4  f8a3b002          STRH     r11,[r3,#2]
;;;526    snmp_makb_temper1_stat[1]=makb[1]._T_nd[1];
0006c8  f8b2b04a          LDRH     r11,[r2,#0x4a]  ; makb
0006cc  f8a4b002          STRH     r11,[r4,#2]
;;;527    snmp_makb_temper2_stat[1]=makb[1]._T_nd[2];
0006d0  f8b2b04c          LDRH     r11,[r2,#0x4c]  ; makb
0006d4  f8a5b002          STRH     r11,[r5,#2]
;;;528    snmp_makb_temper3_stat[1]=makb[1]._T_nd[3];
0006d8  f8b2b04e          LDRH     r11,[r2,#0x4e]  ; makb
0006dc  f8acb002          STRH     r11,[r12,#2]
;;;529    snmp_makb_temper4_stat[1]=makb[1]._T_nd[4];
0006e0  f8b2b050          LDRH     r11,[r2,#0x50]  ; makb
0006e4  f8aab002          STRH     r11,[r10,#2]
;;;530    snmp_makb_temper0_stat[2]=makb[2]._T_nd[0];
0006e8  f8b2b072          LDRH     r11,[r2,#0x72]  ; makb
0006ec  f8a3b004          STRH     r11,[r3,#4]
;;;531    snmp_makb_temper1_stat[2]=makb[2]._T_nd[1];
0006f0  f8b2b074          LDRH     r11,[r2,#0x74]  ; makb
0006f4  f8a4b004          STRH     r11,[r4,#4]
;;;532    snmp_makb_temper2_stat[2]=makb[2]._T_nd[2];
0006f8  f8b2b076          LDRH     r11,[r2,#0x76]  ; makb
0006fc  f8a5b004          STRH     r11,[r5,#4]
;;;533    snmp_makb_temper3_stat[2]=makb[2]._T_nd[3];
000700  f8b2b078          LDRH     r11,[r2,#0x78]  ; makb
000704  f8acb004          STRH     r11,[r12,#4]
;;;534    snmp_makb_temper4_stat[2]=makb[2]._T_nd[4];
000708  f8b2b07a          LDRH     r11,[r2,#0x7a]  ; makb
00070c  f8aab004          STRH     r11,[r10,#4]
;;;535    snmp_makb_temper0_stat[3]=makb[3]._T_nd[0];
000710  f8b2b09c          LDRH     r11,[r2,#0x9c]  ; makb
000714  f8a3b006          STRH     r11,[r3,#6]
;;;536    snmp_makb_temper1_stat[3]=makb[3]._T_nd[1];
000718  f8b2309e          LDRH     r3,[r2,#0x9e]  ; makb
00071c  80e3              STRH     r3,[r4,#6]
;;;537    snmp_makb_temper2_stat[3]=makb[3]._T_nd[2];
00071e  f8b230a0          LDRH     r3,[r2,#0xa0]  ; makb
000722  80eb              STRH     r3,[r5,#6]
;;;538    snmp_makb_temper3_stat[3]=makb[3]._T_nd[3];
000724  f8b230a2          LDRH     r3,[r2,#0xa2]  ; makb
000728  f8ac3006          STRH     r3,[r12,#6]
;;;539    snmp_makb_temper4_stat[3]=makb[3]._T_nd[4];
00072c  f8b220a4          LDRH     r2,[r2,#0xa4]  ; makb
000730  f8aa2006          STRH     r2,[r10,#6]
;;;540    
;;;541    
;;;542    snmp_klimat_box_temper=t_box;
000734  4a64              LDR      r2,|L1.2248|
000736  8812              LDRH     r2,[r2,#0]  ; t_box
000738  f8a72064          STRH     r2,[r7,#0x64]
;;;543    snmp_klimat_settings_box_alarm=TBOXMAX;
00073c  4a63              LDR      r2,|L1.2252|
00073e  f5a473a2          SUB      r3,r4,#0x144
000742  8812              LDRH     r2,[r2,#0]  ; TBOXMAX
000744  f8a32066          STRH     r2,[r3,#0x66]
;;;544    snmp_klimat_settings_vent_on=TBOXVENTON;
000748  4a61              LDR      r2,|L1.2256|
00074a  8812              LDRH     r2,[r2,#0]  ; TBOXVENTON
00074c  f8a32068          STRH     r2,[r3,#0x68]
;;;545    snmp_klimat_settings_vent_off=TBOXVENTOFF;
000750  4a60              LDR      r2,|L1.2260|
000752  8812              LDRH     r2,[r2,#0]  ; TBOXVENTOFF
000754  f8a3206a          STRH     r2,[r3,#0x6a]
;;;546    snmp_klimat_settings_warm_on=TBOXWARMON;
000758  4a5f              LDR      r2,|L1.2264|
00075a  8812              LDRH     r2,[r2,#0]  ; TBOXWARMON
00075c  f8a3206c          STRH     r2,[r3,#0x6c]
;;;547    snmp_klimat_settings_warm_off=TBOXWARMOFF;
000760  4a5e              LDR      r2,|L1.2268|
000762  8812              LDRH     r2,[r2,#0]  ; TBOXWARMOFF
000764  f8a3206e          STRH     r2,[r3,#0x6e]
;;;548    snmp_klimat_settings_load_on=TLOADENABLE;
000768  4a5d              LDR      r2,|L1.2272|
00076a  8812              LDRH     r2,[r2,#0]  ; TLOADENABLE
00076c  f8a32070          STRH     r2,[r3,#0x70]
;;;549    snmp_klimat_settings_load_off=TLOADDISABLE;
000770  4a5c              LDR      r2,|L1.2276|
000772  8812              LDRH     r2,[r2,#0]  ; TLOADDISABLE
000774  f8a32072          STRH     r2,[r3,#0x72]
;;;550    snmp_klimat_settings_batt_on=TBATENABLE;
000778  4a5b              LDR      r2,|L1.2280|
00077a  8812              LDRH     r2,[r2,#0]  ; TBATENABLE
00077c  f8a32074          STRH     r2,[r3,#0x74]
;;;551    snmp_klimat_settings_batt_off=TBATDISABLE;
000780  4a5a              LDR      r2,|L1.2284|
000782  8812              LDRH     r2,[r2,#0]  ; TBATDISABLE
000784  f8a32076          STRH     r2,[r3,#0x76]
;;;552    
;;;553    snmp_dt_ext=t_ext[0];
000788  f8dfa164          LDR      r10,|L1.2288|
00078c  461a              MOV      r2,r3
00078e  f9ba5000          LDRSH    r5,[r10,#0]  ; t_ext
000792  f8a25078          STRH     r5,[r2,#0x78]
;;;554    snmp_dt_msan=t_ext[1];
000796  f9ba7002          LDRSH    r7,[r10,#2]  ; t_ext
00079a  f8a2707a          STRH     r7,[r2,#0x7a]
;;;555    snmp_dt_epu=t_ext[2];
00079e  f9bac004          LDRSH    r12,[r10,#4]  ; t_ext
0007a2  f8a2c07c          STRH     r12,[r2,#0x7c]
;;;556    
;;;557    /*
;;;558    snmp_bat_voltage=Ubat;
;;;559    snmp_bat_current=Ibat;
;;;560    snmp_bat_temperature=t_b;
;;;561    if(BAT_C_REAL==0x5555)
;;;562    	{
;;;563    	snmp_bat_capacity=BAT_C_NOM*10;												    11
;;;564    	}
;;;565    else
;;;566    	{
;;;567    	snmp_bat_capacity=BAT_C_REAL;
;;;568    	}
;;;569    snmp_bat_charge=zar_percent;
;;;570    snmp_bat_status=0;
;;;571    if(St&0x02)snmp_bat_status|=0x01;
;;;572    if(Ibat>0)snmp_bat_status|=0x02;
;;;573    
;;;574    
;;;575    if(spc_stat==spc_OFF) snmp_spc_stat=0;
;;;576    else if(spc_stat==spc_KE) snmp_spc_stat=1;
;;;577    else if(spc_stat==spc_VZ) snmp_spc_stat=10;
;;;578    
;;;579    
;;;580    snmp_main_bps=MAIN_IST+1;
;;;581    */
;;;582    snmp_zv_en=ZV_ON;
0007a6  4a53              LDR      r2,|L1.2292|
0007a8  8812              LDRH     r2,[r2,#0]  ; ZV_ON
0007aa  86da              STRH     r2,[r3,#0x36]
;;;583    snmp_alarm_auto_disable=AV_OFF_AVT;
0007ac  4a52              LDR      r2,|L1.2296|
0007ae  8812              LDRH     r2,[r2,#0]  ; AV_OFF_AVT
0007b0  871a              STRH     r2,[r3,#0x38]
;;;584    snmp_bat_test_time=TBAT;
0007b2  4a52              LDR      r2,|L1.2300|
0007b4  8812              LDRH     r2,[r2,#0]  ; TBAT
0007b6  875a              STRH     r2,[r3,#0x3a]
;;;585    snmp_u_max=UMAX;
0007b8  4a51              LDR      r2,|L1.2304|
0007ba  8812              LDRH     r2,[r2,#0]  ; UMAX
0007bc  879a              STRH     r2,[r3,#0x3c]
;;;586    snmp_u_min=UB20-DU;
0007be  4a51              LDR      r2,|L1.2308|
0007c0  4b51              LDR      r3,|L1.2312|
0007c2  f5a474a2          SUB      r4,r4,#0x144
0007c6  8812              LDRH     r2,[r2,#0]  ; UB20
0007c8  881b              LDRH     r3,[r3,#0]  ; DU
0007ca  eba20303          SUB      r3,r2,r3
0007ce  87e3              STRH     r3,[r4,#0x3e]
;;;587    snmp_u_0_grad=UB0;
0007d0  4b4e              LDR      r3,|L1.2316|
0007d2  881b              LDRH     r3,[r3,#0]  ; UB0
0007d4  f8a43040          STRH     r3,[r4,#0x40]
;;;588    snmp_u_20_grad=UB20;
0007d8  4623              MOV      r3,r4
0007da  f8a32042          STRH     r2,[r3,#0x42]
;;;589    snmp_u_sign=USIGN;
0007de  4a4c              LDR      r2,|L1.2320|
0007e0  8812              LDRH     r2,[r2,#0]  ; USIGN
0007e2  f8a32044          STRH     r2,[r3,#0x44]
;;;590    snmp_u_min_power=UMN;
0007e6  4a4b              LDR      r2,|L1.2324|
0007e8  8812              LDRH     r2,[r2,#0]  ; UMN
0007ea  f8a32046          STRH     r2,[r3,#0x46]
;;;591    snmp_u_withouth_bat=U0B;
0007ee  4a4a              LDR      r2,|L1.2328|
0007f0  8812              LDRH     r2,[r2,#0]  ; U0B
0007f2  f8a32048          STRH     r2,[r3,#0x48]
;;;592    snmp_control_current=IKB;
0007f6  4a49              LDR      r2,|L1.2332|
0007f8  8812              LDRH     r2,[r2,#0]  ; IKB
0007fa  f8a3204a          STRH     r2,[r3,#0x4a]
;;;593    snmp_max_charge_current=IZMAX;
0007fe  4a48              LDR      r2,|L1.2336|
000800  8812              LDRH     r2,[r2,#0]  ; IZMAX
000802  f8a3204c          STRH     r2,[r3,#0x4c]
;;;594    snmp_max_current=IMAX;
000806  4a47              LDR      r2,|L1.2340|
000808  8812              LDRH     r2,[r2,#0]  ; IMAX
00080a  f8a3204e          STRH     r2,[r3,#0x4e]
;;;595    snmp_min_current=IMIN;
00080e  4a46              LDR      r2,|L1.2344|
000810  8812              LDRH     r2,[r2,#0]  ; IMIN
000812  f8a32050          STRH     r2,[r3,#0x50]
;;;596    //snmp_max_current_koef=KIMAX;
;;;597    snmp_uvz=UVZ;
000816  4a45              LDR      r2,|L1.2348|
000818  8812              LDRH     r2,[r2,#0]  ; UVZ
00081a  f8a32052          STRH     r2,[r3,#0x52]
;;;598    snmp_powerup_psu_timeout=TZAS;
00081e  4a44              LDR      r2,|L1.2352|
000820  8812              LDRH     r2,[r2,#0]  ; TZAS
000822  f8a32054          STRH     r2,[r3,#0x54]
;;;599    snmp_max_temperature=TMAX;
000826  4a43              LDR      r2,|L1.2356|
000828  8812              LDRH     r2,[r2,#0]  ; TMAX
00082a  f8a32056          STRH     r2,[r3,#0x56]
;;;600    snmp_tsign_bat=TBATSIGN; 
00082e  4b42              LDR      r3,|L1.2360|
000830  881b              LDRH     r3,[r3,#0]  ; TBATSIGN
000832  f8a43058          STRH     r3,[r4,#0x58]
;;;601    snmp_tmax_bat=TBATMAX;
000836  4b41              LDR      r3,|L1.2364|
000838  881b              LDRH     r3,[r3,#0]  ; TBATMAX
00083a  f8a4305a          STRH     r3,[r4,#0x5a]
;;;602    snmp_tsign_bps=TSIGN;
00083e  4b40              LDR      r3,|L1.2368|
000840  881b              LDRH     r3,[r3,#0]  ; TSIGN
000842  f8a4305c          STRH     r3,[r4,#0x5c]
;;;603    snmp_tmax_bps=TMAX;
000846  4623              MOV      r3,r4
000848  f8a3205e          STRH     r2,[r3,#0x5e]
;;;604    snmp_bat_part_alarm=UBM_AV; 
00084c  4a3d              LDR      r2,|L1.2372|
00084e  8812              LDRH     r2,[r2,#0]  ; UBM_AV
000850  f8a32060          STRH     r2,[r3,#0x60]
;;;605    snmp_power_cnt_adress=POWER_CNT_ADRESS;
000854  4a3c              LDR      r2,|L1.2376|
000856  8812              LDRH     r2,[r2,#0]  ; POWER_CNT_ADRESS
000858  f8a32062          STRH     r2,[r3,#0x62]
;;;606    
;;;607    for(i=0;i<12;i++)
00085c  f04f0200          MOV      r2,#0
;;;608    	{
;;;609    	snmp_avt_number[i]=i+1;
000860  4b3a              LDR      r3,|L1.2380|
;;;610    	if(avt_stat[i]==avtOFF)snmp_avt_stat[i]=0;
000862  f8dfe0ec          LDR      lr,|L1.2384|
000866  f103040c          ADD      r4,r3,#0xc
                  |L1.2154|
00086a  f1020101          ADD      r1,r2,#1              ;609
00086e  5499              STRB     r1,[r3,r2]            ;609
000870  f81eb002          LDRB     r11,[lr,r2]
000874  f1bb0f00          CMP      r11,#0
000878  d01b              BEQ      |L1.2226|
;;;611    	else snmp_avt_stat[i]=1;
00087a  54a0              STRB     r0,[r4,r2]
                  |L1.2172|
00087c  b2ca              UXTB     r2,r1                 ;607
00087e  2a0c              CMP      r2,#0xc               ;607
000880  d3f3              BCC      |L1.2154|
;;;612    	}
;;;613    
;;;614    snmp_dt_number[0]=1;
000882  4910              LDR      r1,|L1.2244|
000884  3966              SUBS     r1,r1,#0x66
000886  7008              STRB     r0,[r1,#0]
;;;615    snmp_dt_number[1]=2;
000888  f8818001          STRB     r8,[r1,#1]
;;;616    snmp_dt_number[2]=3;
00088c  f8819002          STRB     r9,[r1,#2]
;;;617    snmp_dt_number[3]=4;
;;;618    snmp_dt_temper[0]=t_ext[0];
000890  3160              ADDS     r1,r1,#0x60
000892  800d              STRH     r5,[r1,#0]
;;;619    snmp_dt_temper[1]=t_ext[1];
000894  804f              STRH     r7,[r1,#2]
;;;620    snmp_dt_temper[2]=t_ext[2];
000896  f8a1c004          STRH     r12,[r1,#4]
;;;621    snmp_dt_temper[3]=t_ext[3];
00089a  f8ba2006          LDRH     r2,[r10,#6]  ; t_ext
00089e  80ca              STRH     r2,[r1,#6]
;;;622    snmp_dt_error[0]=ND_EXT[0];
0008a0  4c2c              LDR      r4,|L1.2388|
0008a2  4b08              LDR      r3,|L1.2244|
0008a4  3b63              SUBS     r3,r3,#0x63
0008a6  6821              LDR      r1,[r4,#0]  ; ND_EXT
0008a8  7019              STRB     r1,[r3,#0]
;;;623    if(NUMDT<1)snmp_dt_error[0]=0xff;
0008aa  492b              LDR      r1,|L1.2392|
0008ac  f9b11000          LDRSH    r1,[r1,#0]  ; NUMDT
0008b0  e054              B        |L1.2396|
                  |L1.2226|
0008b2  e0d5              B        |L1.2656|
                  |L1.2228|
0008b4  20202020          DCB      "     ",0
0008b8  2000    
0008ba  00                DCB      0
0008bb  00                DCB      0
                  |L1.2236|
                          DCD      sk_stat
                  |L1.2240|
                          DCD      makb
                  |L1.2244|
                          DCD      ||.data||+0xe4
                  |L1.2248|
                          DCD      t_box
                  |L1.2252|
                          DCD      TBOXMAX
                  |L1.2256|
                          DCD      TBOXVENTON
                  |L1.2260|
                          DCD      TBOXVENTOFF
                  |L1.2264|
                          DCD      TBOXWARMON
                  |L1.2268|
                          DCD      TBOXWARMOFF
                  |L1.2272|
                          DCD      TLOADENABLE
                  |L1.2276|
                          DCD      TLOADDISABLE
                  |L1.2280|
                          DCD      TBATENABLE
                  |L1.2284|
                          DCD      TBATDISABLE
                  |L1.2288|
                          DCD      t_ext
                  |L1.2292|
                          DCD      ZV_ON
                  |L1.2296|
                          DCD      AV_OFF_AVT
                  |L1.2300|
                          DCD      TBAT
                  |L1.2304|
                          DCD      UMAX
                  |L1.2308|
                          DCD      UB20
                  |L1.2312|
                          DCD      ||DU||
                  |L1.2316|
                          DCD      UB0
                  |L1.2320|
                          DCD      USIGN
                  |L1.2324|
                          DCD      UMN
                  |L1.2328|
                          DCD      U0B
                  |L1.2332|
                          DCD      IKB
                  |L1.2336|
                          DCD      IZMAX
                  |L1.2340|
                          DCD      IMAX
                  |L1.2344|
                          DCD      IMIN
                  |L1.2348|
                          DCD      UVZ
                  |L1.2352|
                          DCD      TZAS
                  |L1.2356|
                          DCD      TMAX
                  |L1.2360|
                          DCD      TBATSIGN
                  |L1.2364|
                          DCD      TBATMAX
                  |L1.2368|
                          DCD      TSIGN
                  |L1.2372|
                          DCD      UBM_AV
                  |L1.2376|
                          DCD      POWER_CNT_ADRESS
                  |L1.2380|
                          DCD      ||area_number.20||+0x118
                  |L1.2384|
                          DCD      avt_stat
                  |L1.2388|
                          DCD      ND_EXT
                  |L1.2392|
                          DCD      NUMDT
                  |L1.2396|
00095c  f04f32ff          MOV      r2,#0xffffffff
000960  2901              CMP      r1,#1
000962  da00              BGE      |L1.2406|
000964  701a              STRB     r2,[r3,#0]
                  |L1.2406|
;;;624    snmp_dt_error[1]=ND_EXT[1];
000966  6865              LDR      r5,[r4,#4]  ; ND_EXT
000968  705d              STRB     r5,[r3,#1]
;;;625    if(NUMDT<2)snmp_dt_error[0]=0xff;
00096a  2902              CMP      r1,#2
00096c  da00              BGE      |L1.2416|
00096e  701a              STRB     r2,[r3,#0]
                  |L1.2416|
;;;626    snmp_dt_error[2]=ND_EXT[2];
000970  68a5              LDR      r5,[r4,#8]  ; ND_EXT
000972  709d              STRB     r5,[r3,#2]
;;;627    if(NUMDT<3)snmp_dt_error[0]=0xff;
000974  2903              CMP      r1,#3
000976  da00              BGE      |L1.2426|
000978  701a              STRB     r2,[r3,#0]
                  |L1.2426|
;;;628    snmp_dt_error[3]=ND_EXT[3];
00097a  68e4              LDR      r4,[r4,#0xc]  ; ND_EXT
00097c  70dc              STRB     r4,[r3,#3]
;;;629    if(NUMDT<4)snmp_dt_error[0]=0xff;
00097e  2904              CMP      r1,#4
000980  da00              BGE      |L1.2436|
000982  701a              STRB     r2,[r3,#0]
                  |L1.2436|
;;;630    
;;;631    /*
;;;632    //Литиевые батареи
;;;633    snmp_lakb_number[0]=1;								//Номер ЛАКБ
;;;634    snmp_lakb_number[1]=2;								//Номер ЛАКБ
;;;635    snmp_lakb_voltage[0]=lakb[0]._tot_bat_volt;				//Напряжение ЛАКБ
;;;636    snmp_lakb_voltage[1]=lakb[1]._tot_bat_volt;				//Напряжение ЛАКБ
;;;637    snmp_lakb_max_cell_voltage[0]=lakb[0]._max_cell_volt;		//Максимальное напряжение ячейки ЛАКБ
;;;638    snmp_lakb_max_cell_voltage[1]=lakb[1]._max_cell_volt;		//Максимальное напряжение ячейки ЛАКБ
;;;639    snmp_lakb_min_cell_voltage[0]=lakb[0]._min_cell_volt;		//Минимальное напряжение ячейки ЛАКБ
;;;640    snmp_lakb_min_cell_voltage[1]=lakb[1]._min_cell_volt;		//Минимальное напряжение ячейки ЛАКБ
;;;641    snmp_lakb_max_cell_temperature[0]=lakb[0]._max_cell_temp;	//Максимальная температура ячейки ЛАКБ
;;;642    snmp_lakb_max_cell_temperature[1]=lakb[1]._max_cell_temp;	//Максимальная температура ячейки ЛАКБ
;;;643    snmp_lakb_min_cell_temperature[0]=lakb[0]._min_cell_temp;	//Минимальная температура ячейки ЛАКБ
;;;644    snmp_lakb_min_cell_temperature[1]=lakb[1]._min_cell_temp;	//Минимальная температура ячейки ЛАКБ
;;;645    snmp_lakb_ch_curr[0]=lakb[0]._ch_curr;					//Ток заряда ЛАКБ
;;;646    snmp_lakb_ch_curr[1]=lakb[1]._ch_curr;					//Ток заряда ЛАКБ
;;;647    snmp_lakb_dsch_curr[0]=lakb[0]._dsch_curr;				//Ток разряда ЛАКБ
;;;648    snmp_lakb_dsch_curr[1]=lakb[1]._dsch_curr;				//Ток разряда ЛАКБ
;;;649    snmp_lakb_rat_cap[0]=lakb[0]._rat_cap;					//Номинальная емкость ЛАКБ
;;;650    snmp_lakb_rat_cap[1]=lakb[1]._rat_cap;					//Номинальная емкость ЛАКБ
;;;651    snmp_lakb_soh[0]=lakb[0]._s_o_h;						//Остаточная емкость ЛАКБ
;;;652    snmp_lakb_soh[1]=lakb[1]._s_o_h;						//Остаточная емкость ЛАКБ
;;;653    snmp_lakb_soc[0]=lakb[0]._s_o_c;						//Заряд ЛАКБ
;;;654    snmp_lakb_soc[1]=lakb[1]._s_o_c;						//Заряд ЛАКБ
;;;655    snmp_lakb_cclv[0]=lakb[0]._c_c_l_v;  					//Максимальный ток заряда ЛАКБ
;;;656    snmp_lakb_cclv[1]=lakb[1]._c_c_l_v;  					//Максимальный ток заряда ЛАКБ
;;;657    snmp_lakb_rbt[0]=lakb[0]._r_b_t;						//Оцениваемое время работы ЛАКБ
;;;658    snmp_lakb_rbt[1]=lakb[1]._r_b_t;						//Оцениваемое время работы ЛАКБ
;;;659    snmp_lakb_flags1[0]=lakb[0]._flags1;					//Первый флаг состояния ЛАКБ
;;;660    snmp_lakb_flags1[1]=lakb[1]._flags1;					//Первый флаг состояния ЛАКБ
;;;661    snmp_lakb_flags2[0]=lakb[0]._flags2;					//Второй флаг состояния ЛАКБ
;;;662    snmp_lakb_flags2[1]=lakb[1]._flags2;					//Второй флаг состояния ЛАКБ */
;;;663    
;;;664    //Литиевые батареи
;;;665    snmp_lakb_number[0]=1;								//Номер ЛАКБ
000984  49ff              LDR      r1,|L1.3460|
000986  8008              STRH     r0,[r1,#0]
;;;666    snmp_lakb_number[1]=2;								//Номер ЛАКБ
000988  f8a18002          STRH     r8,[r1,#2]
;;;667    snmp_lakb_number[2]=3;								//Номер ЛАКБ
00098c  f8a19004          STRH     r9,[r1,#4]
;;;668    snmp_lakb_number[3]=4;								//Номер ЛАКБ
000990  80ce              STRH     r6,[r1,#6]
;;;669    snmp_lakb_number[4]=5;								//Номер ЛАКБ
000992  f04f0005          MOV      r0,#5
000996  8108              STRH     r0,[r1,#8]
;;;670    snmp_lakb_number[5]=6;								//Номер ЛАКБ
000998  f04f0006          MOV      r0,#6
00099c  8148              STRH     r0,[r1,#0xa]
;;;671    snmp_lakb_number[6]=7;								//Номер ЛАКБ
00099e  f04f0007          MOV      r0,#7
0009a2  8188              STRH     r0,[r1,#0xc]
;;;672    
;;;673    for (i=0;i<7;i++)
0009a4  f04f0000          MOV      r0,#0
;;;674    	{
;;;675    	snmp_lakb_voltage[i]=lakb[i]._tot_bat_volt;				//Напряжение ЛАКБ
0009a8  4df7              LDR      r5,|L1.3464|
0009aa  f101030e          ADD      r3,r1,#0xe
;;;676    	snmp_lakb_max_cell_voltage[i]=lakb[i]._max_cell_volt;		//Максимальное напряжение ячейки ЛАКБ
0009ae  f101061c          ADD      r6,r1,#0x1c
;;;677    	snmp_lakb_min_cell_voltage[i]=lakb[i]._min_cell_volt;		//Минимальное напряжение ячейки ЛАКБ
0009b2  f101072a          ADD      r7,r1,#0x2a
;;;678    	snmp_lakb_max_cell_temperature[i]=lakb[i]._max_cell_temp;	//Максимальная температура ячейки ЛАКБ
0009b6  f1010c38          ADD      r12,r1,#0x38
;;;679    	//snmp_lakb_max_cell_temperature[1]=lakb[1]._max_cell_temp;	//Максимальная температура ячейки ЛАКБ
;;;680    	snmp_lakb_min_cell_temperature[i]=lakb[i]._min_cell_temp;	//Минимальная температура ячейки ЛАКБ
0009ba  f1010846          ADD      r8,r1,#0x46
;;;681    	//snmp_lakb_min_cell_temperature[1]=lakb[1]._min_cell_temp;	//Минимальная температура ячейки ЛАКБ
;;;682    	snmp_lakb_ch_curr[i]=lakb[i]._ch_curr;					//Ток заряда ЛАКБ
0009be  f1010954          ADD      r9,r1,#0x54
;;;683    	//snmp_lakb_ch_curr[1]=lakb[1]._ch_curr;					//Ток заряда ЛАКБ
;;;684    	snmp_lakb_dsch_curr[i]=lakb[i]._dsch_curr;				//Ток разряда ЛАКБ
0009c2  f1010a62          ADD      r10,r1,#0x62
;;;685    	//snmp_lakb_dsch_curr[1]=lakb[1]._dsch_curr;				//Ток разряда ЛАКБ
;;;686    	snmp_lakb_rat_cap[i]=lakb[i]._rat_cap;					//Номинальная емкость ЛАКБ
0009c6  f1010b70          ADD      r11,r1,#0x70
;;;687    	//snmp_lakb_rat_cap[1]=lakb[1]._rat_cap;					//Номинальная емкость ЛАКБ
;;;688    	snmp_lakb_soh[i]=lakb[i]._s_o_h;						//Остаточная емкость ЛАКБ
0009ca  f1010e7e          ADD      lr,r1,#0x7e
                  |L1.2510|
0009ce  ebc002c0          RSB      r2,r0,r0,LSL #3       ;675
0009d2  eb0501c2          ADD      r1,r5,r2,LSL #3       ;675
0009d6  890c              LDRH     r4,[r1,#8]            ;675
0009d8  f8234010          STRH     r4,[r3,r0,LSL #1]     ;675
0009dc  f8352032          LDRH     r2,[r5,r2,LSL #3]     ;676
0009e0  f8262010          STRH     r2,[r6,r0,LSL #1]     ;676
0009e4  884a              LDRH     r2,[r1,#2]            ;677
0009e6  f8272010          STRH     r2,[r7,r0,LSL #1]     ;677
0009ea  888a              LDRH     r2,[r1,#4]            ;678
0009ec  f82c2010          STRH     r2,[r12,r0,LSL #1]    ;678
0009f0  88ca              LDRH     r2,[r1,#6]            ;680
0009f2  f8282010          STRH     r2,[r8,r0,LSL #1]     ;680
0009f6  894a              LDRH     r2,[r1,#0xa]          ;682
0009f8  f8292010          STRH     r2,[r9,r0,LSL #1]     ;682
0009fc  898a              LDRH     r2,[r1,#0xc]          ;684
0009fe  f82a2010          STRH     r2,[r10,r0,LSL #1]    ;684
000a02  89ca              LDRH     r2,[r1,#0xe]          ;686
000a04  f82b2010          STRH     r2,[r11,r0,LSL #1]    ;686
000a08  8a0a              LDRH     r2,[r1,#0x10]
000a0a  f82e2010          STRH     r2,[lr,r0,LSL #1]
;;;689    	//snmp_lakb_soh[1]=lakb[1]._s_o_h;						//Остаточная емкость ЛАКБ
;;;690    	snmp_lakb_soc[i]=lakb[i]._s_o_c;						//Заряд ЛАКБ
000a0e  4add              LDR      r2,|L1.3460|
000a10  8a4c              LDRH     r4,[r1,#0x12]
000a12  f102028c          ADD      r2,r2,#0x8c
000a16  f8224010          STRH     r4,[r2,r0,LSL #1]
;;;691    	//snmp_lakb_soc[1]=lakb[1]._s_o_c;						//Заряд ЛАКБ
;;;692    	snmp_lakb_cclv[i]=lakb[i]._c_c_l_v;  					//Максимальный ток заряда ЛАКБ
000a1a  f102020e          ADD      r2,r2,#0xe
000a1e  8a8c              LDRH     r4,[r1,#0x14]
000a20  f8224010          STRH     r4,[r2,r0,LSL #1]
;;;693    	//snmp_lakb_cclv[1]=lakb[1]._c_c_l_v;  					//Максимальный ток заряда ЛАКБ
;;;694    	snmp_lakb_rbt[i]=lakb[i]._r_b_t;						//Оцениваемое время работы ЛАКБ
000a24  f102020e          ADD      r2,r2,#0xe
000a28  8acc              LDRH     r4,[r1,#0x16]
000a2a  f8224010          STRH     r4,[r2,r0,LSL #1]
;;;695    	//snmp_lakb_rbt[1]=lakb[1]._r_b_t;						//Оцениваемое время работы ЛАКБ
;;;696    	snmp_lakb_flags1[i]=lakb[i]._flags1;					//Первый флаг состояния ЛАКБ
000a2e  f102020e          ADD      r2,r2,#0xe
000a32  8b4c              LDRH     r4,[r1,#0x1a]
000a34  f8224010          STRH     r4,[r2,r0,LSL #1]
;;;697    	//snmp_lakb_flags1[1]=lakb[1]._flags1;					//Первый флаг состояния ЛАКБ
;;;698    	snmp_lakb_flags2[i]=lakb[i]._flags2;					//Второй флаг состояния ЛАКБ
000a38  8b8a              LDRH     r2,[r1,#0x1c]
000a3a  49d2              LDR      r1,|L1.3460|
000a3c  f10101c4          ADD      r1,r1,#0xc4
000a40  f8212010          STRH     r2,[r1,r0,LSL #1]
000a44  f1000001          ADD      r0,r0,#1              ;673
000a48  b2c0              UXTB     r0,r0                 ;673
000a4a  2807              CMP      r0,#7                 ;673
000a4c  d3bf              BCC      |L1.2510|
;;;699    	//snmp_lakb_flags2[1]=lakb[1]._flags2;					//Второй флаг состояния ЛАКБ
;;;700    	}
;;;701    
;;;702    for (i=0;i<7;i++)
000a4e  f04f0000          MOV      r0,#0
                  |L1.2642|
000a52  f1000001          ADD      r0,r0,#1
000a56  b2c0              UXTB     r0,r0
000a58  2807              CMP      r0,#7
000a5a  d3fa              BCC      |L1.2642|
;;;703    {
;;;704    /*
;;;705    snmp_lakb_damp1[i][0]=ABCDEF[(lakb_damp[i][0])>>4];			//Дамп
;;;706    snmp_lakb_damp1[i][1]=ABCDEF[(lakb_damp[i][0])&0x0f];			//Дамп
;;;707    snmp_lakb_damp1[i][2]=' ';
;;;708    snmp_lakb_damp1[i][3]=ABCDEF[(lakb_damp[i][1])>>4];			//Дамп
;;;709    snmp_lakb_damp1[i][4]=ABCDEF[(lakb_damp[i][1])&0x0f];			//Дамп
;;;710    snmp_lakb_damp1[i][5]=' ';
;;;711    snmp_lakb_damp1[i][6]=ABCDEF[(lakb_damp[i][2])>>4];			//Дамп
;;;712    snmp_lakb_damp1[i][7]=ABCDEF[(lakb_damp[i][2])&0x0f];			//Дамп
;;;713    snmp_lakb_damp1[i][8]=' ';
;;;714    snmp_lakb_damp1[i][9]=ABCDEF[(lakb_damp[i][3])>>4];			//Дамп
;;;715    snmp_lakb_damp1[i][10]=ABCDEF[(lakb_damp[i][3])&0x0f];			//Дамп
;;;716    snmp_lakb_damp1[i][11]=' ';
;;;717    snmp_lakb_damp1[i][12]=ABCDEF[(lakb_damp[i][4])>>4];			//Дамп
;;;718    snmp_lakb_damp1[i][13]=ABCDEF[(lakb_damp[i][4])&0x0f];			//Дамп
;;;719    snmp_lakb_damp1[i][14]=' '; 
;;;720    snmp_lakb_damp1[i][15]=ABCDEF[(lakb_damp[i][5])>>4];			//Дамп
;;;721    snmp_lakb_damp1[i][16]=ABCDEF[(lakb_damp[i][5])&0x0f];			//Дамп
;;;722    snmp_lakb_damp1[i][17]=' ';
;;;723    snmp_lakb_damp1[i][18]=ABCDEF[(lakb_damp[i][6])>>4];			//Дамп
;;;724    snmp_lakb_damp1[i][19]=ABCDEF[(lakb_damp[i][6])&0x0f];			//Дамп
;;;725    snmp_lakb_damp1[i][20]=' ';
;;;726    snmp_lakb_damp1[i][21]=ABCDEF[(lakb_damp[i][7])>>4];			//Дамп
;;;727    snmp_lakb_damp1[i][22]=ABCDEF[(lakb_damp[i][7])&0x0f];			//Дамп
;;;728    snmp_lakb_damp1[i][23]=' ';
;;;729    snmp_lakb_damp1[i][24]=ABCDEF[(lakb_damp[i][8])>>4];			//Дамп
;;;730    snmp_lakb_damp1[i][25]=ABCDEF[(lakb_damp[i][8])&0x0f];			//Дамп
;;;731    snmp_lakb_damp1[i][26]=' ';
;;;732    snmp_lakb_damp1[i][27]=ABCDEF[(lakb_damp[i][9])>>4];			//Дамп
;;;733    snmp_lakb_damp1[i][28]=ABCDEF[(lakb_damp[i][9])&0x0f];			//Дамп
;;;734    snmp_lakb_damp1[i][29]=0; 
;;;735    
;;;736    snmp_lakb_damp1[i][30]=ABCDEF[(lakb_damp[i][10])>>4];			//Дамп
;;;737    snmp_lakb_damp1[i][31]=ABCDEF[(lakb_damp[i][10])&0x0f];			//Дамп
;;;738    snmp_lakb_damp1[i][32]=' ';
;;;739    snmp_lakb_damp1[i][33]=ABCDEF[(lakb_damp[i][11])>>4];			//Дамп
;;;740    snmp_lakb_damp1[i][34]=ABCDEF[(lakb_damp[i][11])&0x0f];			//Дамп
;;;741    snmp_lakb_damp1[i][35]=' ';
;;;742    snmp_lakb_damp1[i][36]=ABCDEF[(lakb_damp[i][12])>>4];			//Дамп
;;;743    snmp_lakb_damp1[i][37]=ABCDEF[(lakb_damp[i][12])&0x0f];			//Дамп
;;;744    snmp_lakb_damp1[i][38]=' ';
;;;745    snmp_lakb_damp1[i][39]=ABCDEF[(lakb_damp[i][13])>>4];			//Дамп
;;;746    snmp_lakb_damp1[i][40]=ABCDEF[(lakb_damp[i][13])&0x0f];			//Дамп
;;;747    snmp_lakb_damp1[i][41]=' ';
;;;748    snmp_lakb_damp1[i][42]=ABCDEF[(lakb_damp[i][14])>>4];			//Дамп
;;;749    snmp_lakb_damp1[i][43]=ABCDEF[(lakb_damp[i][14])&0x0f];			//Дамп
;;;750    snmp_lakb_damp1[i][44]=' '; 
;;;751    snmp_lakb_damp1[i][45]=ABCDEF[(lakb_damp[i][15])>>4];			//Дамп
;;;752    snmp_lakb_damp1[i][46]=ABCDEF[(lakb_damp[i][15])&0x0f];			//Дамп
;;;753    snmp_lakb_damp1[i][47]=' ';
;;;754    snmp_lakb_damp1[i][48]=ABCDEF[(lakb_damp[i][16])>>4];			//Дамп
;;;755    snmp_lakb_damp1[i][49]=ABCDEF[(lakb_damp[i][16])&0x0f];			//Дамп
;;;756    snmp_lakb_damp1[i][50]=' ';
;;;757    snmp_lakb_damp1[i][51]=ABCDEF[(lakb_damp[i][17])>>4];			//Дамп
;;;758    snmp_lakb_damp1[i][52]=ABCDEF[(lakb_damp[i][17])&0x0f];			//Дамп
;;;759    snmp_lakb_damp1[i][53]=' ';
;;;760    snmp_lakb_damp1[i][54]=ABCDEF[(lakb_damp[i][18])>>4];			//Дамп
;;;761    snmp_lakb_damp1[i][55]=ABCDEF[(lakb_damp[i][18])&0x0f];			//Дамп
;;;762    snmp_lakb_damp1[i][56]=' ';
;;;763    snmp_lakb_damp1[i][57]=ABCDEF[(lakb_damp[i][19])>>4];			//Дамп
;;;764    snmp_lakb_damp1[i][58]=ABCDEF[(lakb_damp[i][19])&0x0f];			//Дамп
;;;765    snmp_lakb_damp1[i][59]=0; 
;;;766    
;;;767    
;;;768    snmp_lakb_damp1[i][60]=ABCDEF[(lakb_damp[i][20])>>4];			//Дамп
;;;769    snmp_lakb_damp1[i][61]=ABCDEF[(lakb_damp[i][20])&0x0f];			//Дамп
;;;770    snmp_lakb_damp1[i][62]=' ';
;;;771    snmp_lakb_damp1[i][63]=ABCDEF[(lakb_damp[i][21])>>4];			//Дамп
;;;772    snmp_lakb_damp1[i][64]=ABCDEF[(lakb_damp[i][21])&0x0f];			//Дамп
;;;773    snmp_lakb_damp1[i][65]=' ';
;;;774    snmp_lakb_damp1[i][66]=ABCDEF[(lakb_damp[i][22])>>4];			//Дамп
;;;775    snmp_lakb_damp1[i][67]=ABCDEF[(lakb_damp[i][22])&0x0f];			//Дамп
;;;776    snmp_lakb_damp1[i][68]=' ';
;;;777    snmp_lakb_damp1[i][69]=ABCDEF[(lakb_damp[i][23])>>4];			//Дамп
;;;778    snmp_lakb_damp1[i][70]=ABCDEF[(lakb_damp[i][23])&0x0f];			//Дамп
;;;779    snmp_lakb_damp1[i][71]=' ';
;;;780    snmp_lakb_damp1[i][72]=ABCDEF[(lakb_damp[i][24])>>4];			//Дамп
;;;781    snmp_lakb_damp1[i][73]=ABCDEF[(lakb_damp[i][24])&0x0f];			//Дамп
;;;782    snmp_lakb_damp1[i][74]=' '; 
;;;783    snmp_lakb_damp1[i][75]=ABCDEF[(lakb_damp[i][25])>>4];			//Дамп
;;;784    snmp_lakb_damp1[i][76]=ABCDEF[(lakb_damp[i][25])&0x0f];			//Дамп
;;;785    snmp_lakb_damp1[i][77]=' ';
;;;786    snmp_lakb_damp1[i][78]=ABCDEF[(lakb_damp[i][26])>>4];			//Дамп
;;;787    snmp_lakb_damp1[i][79]=ABCDEF[(lakb_damp[i][26])&0x0f];			//Дамп
;;;788    snmp_lakb_damp1[i][80]=' ';
;;;789    snmp_lakb_damp1[i][81]=ABCDEF[(lakb_damp[i][27])>>4];			//Дамп
;;;790    snmp_lakb_damp1[i][82]=ABCDEF[(lakb_damp[i][27])&0x0f];			//Дамп
;;;791    snmp_lakb_damp1[i][83]=' ';
;;;792    snmp_lakb_damp1[i][84]=ABCDEF[(lakb_damp[i][28])>>4];			//Дамп
;;;793    snmp_lakb_damp1[i][85]=ABCDEF[(lakb_damp[i][28])&0x0f];			//Дамп
;;;794    snmp_lakb_damp1[i][86]=' ';
;;;795    snmp_lakb_damp1[i][87]=ABCDEF[(lakb_damp[i][29])>>4];			//Дамп
;;;796    snmp_lakb_damp1[i][88]=ABCDEF[(lakb_damp[i][29])&0x0f];			//Дамп
;;;797    snmp_lakb_damp1[i][89]=0;
;;;798    
;;;799    
;;;800    snmp_lakb_damp1[i][90]=ABCDEF[(lakb_damp[i][30])>>4];			//Дамп
;;;801    snmp_lakb_damp1[i][91]=ABCDEF[(lakb_damp[i][30])&0x0f];			//Дамп
;;;802    snmp_lakb_damp1[i][92]=' ';
;;;803    snmp_lakb_damp1[i][93]=ABCDEF[(lakb_damp[i][31])>>4];			//Дамп
;;;804    snmp_lakb_damp1[i][94]=ABCDEF[(lakb_damp[i][31])&0x0f];			//Дамп
;;;805    snmp_lakb_damp1[i][95]=' ';
;;;806    snmp_lakb_damp1[i][96]=ABCDEF[(lakb_damp[i][32])>>4];			//Дамп
;;;807    snmp_lakb_damp1[i][97]=ABCDEF[(lakb_damp[i][32])&0x0f];			//Дамп
;;;808    snmp_lakb_damp1[i][98]=' ';
;;;809    snmp_lakb_damp1[i][99]=ABCDEF[(lakb_damp[i][33])>>4];			//Дамп
;;;810    snmp_lakb_damp1[i][100]=ABCDEF[(lakb_damp[i][33])&0x0f];			//Дамп
;;;811    snmp_lakb_damp1[i][101]=' ';
;;;812    snmp_lakb_damp1[i][102]=ABCDEF[(lakb_damp[i][34])>>4];			//Дамп
;;;813    snmp_lakb_damp1[i][103]=ABCDEF[(lakb_damp[i][34])&0x0f];			//Дамп
;;;814    snmp_lakb_damp1[i][104]=' '; 
;;;815    snmp_lakb_damp1[i][105]=ABCDEF[(lakb_damp[i][35])>>4];			//Дамп
;;;816    snmp_lakb_damp1[i][106]=ABCDEF[(lakb_damp[i][35])&0x0f];			//Дамп
;;;817    snmp_lakb_damp1[i][107]=' ';
;;;818    snmp_lakb_damp1[i][108]=ABCDEF[(lakb_damp[i][36])>>4];			//Дамп
;;;819    snmp_lakb_damp1[i][109]=ABCDEF[(lakb_damp[i][36])&0x0f];			//Дамп
;;;820    snmp_lakb_damp1[i][110]=' ';
;;;821    snmp_lakb_damp1[i][111]=ABCDEF[(lakb_damp[i][37])>>4];			//Дамп
;;;822    snmp_lakb_damp1[i][112]=ABCDEF[(lakb_damp[i][37])&0x0f];			//Дамп
;;;823    snmp_lakb_damp1[i][113]=' ';
;;;824    snmp_lakb_damp1[i][114]=ABCDEF[(lakb_damp[i][38])>>4];			//Дамп
;;;825    snmp_lakb_damp1[i][115]=ABCDEF[(lakb_damp[i][38])&0x0f];			//Дамп
;;;826    snmp_lakb_damp1[i][116]=' ';
;;;827    snmp_lakb_damp1[i][117]=ABCDEF[(lakb_damp[i][39])>>4];			//Дамп
;;;828    snmp_lakb_damp1[i][118]=ABCDEF[(lakb_damp[i][39])&0x0f];			//Дамп
;;;829    snmp_lakb_damp1[i][119]=0; 
;;;830     
;;;831    
;;;832    snmp_lakb_damp1[i][120]=ABCDEF[(lakb_damp[i][40])>>4];			//Дамп
;;;833    snmp_lakb_damp1[i][121]=ABCDEF[(lakb_damp[i][40])&0x0f];			//Дамп
;;;834    snmp_lakb_damp1[i][122]=' ';
;;;835    snmp_lakb_damp1[i][123]=ABCDEF[(lakb_damp[i][41])>>4];			//Дамп
;;;836    snmp_lakb_damp1[i][124]=ABCDEF[(lakb_damp[i][41])&0x0f];			//Дамп
;;;837    snmp_lakb_damp1[i][125]=' ';
;;;838    snmp_lakb_damp1[i][126]=ABCDEF[(lakb_damp[i][42])>>4];			//Дамп
;;;839    snmp_lakb_damp1[i][127]=ABCDEF[(lakb_damp[i][42])&0x0f];			//Дамп
;;;840    snmp_lakb_damp1[i][128]=' ';
;;;841    snmp_lakb_damp1[i][129]=ABCDEF[(lakb_damp[i][43])>>4];			//Дамп
;;;842    snmp_lakb_damp1[i][130]=ABCDEF[(lakb_damp[i][43])&0x0f];			//Дамп
;;;843    snmp_lakb_damp1[i][131]=' ';
;;;844    snmp_lakb_damp1[i][132]=ABCDEF[(lakb_damp[i][44])>>4];			//Дамп
;;;845    snmp_lakb_damp1[i][133]=ABCDEF[(lakb_damp[i][44])&0x0f];			//Дамп
;;;846    snmp_lakb_damp1[i][134]=' '; 
;;;847    snmp_lakb_damp1[i][135]=ABCDEF[(lakb_damp[i][45])>>4];			//Дамп
;;;848    snmp_lakb_damp1[i][136]=ABCDEF[(lakb_damp[i][45])&0x0f];			//Дамп
;;;849    snmp_lakb_damp1[i][137]=' ';
;;;850    snmp_lakb_damp1[i][138]=ABCDEF[(lakb_damp[i][46])>>4];			//Дамп
;;;851    snmp_lakb_damp1[i][139]=ABCDEF[(lakb_damp[i][46])&0x0f];			//Дамп
;;;852    snmp_lakb_damp1[i][140]=' ';
;;;853    snmp_lakb_damp1[i][141]=ABCDEF[(lakb_damp[i][47])>>4];			//Дамп
;;;854    snmp_lakb_damp1[i][142]=ABCDEF[(lakb_damp[i][47])&0x0f];			//Дамп
;;;855    snmp_lakb_damp1[i][143]=' ';
;;;856    snmp_lakb_damp1[i][144]=ABCDEF[(lakb_damp[i][48])>>4];			//Дамп
;;;857    snmp_lakb_damp1[i][145]=ABCDEF[(lakb_damp[i][48])&0x0f];			//Дамп
;;;858    snmp_lakb_damp1[i][146]=' ';
;;;859    snmp_lakb_damp1[i][147]=ABCDEF[(lakb_damp[i][49])>>4];			//Дамп
;;;860    snmp_lakb_damp1[i][148]=ABCDEF[(lakb_damp[i][49])&0x0f];			//Дамп
;;;861    snmp_lakb_damp1[i][149]=0;  */
;;;862    
;;;863    }
;;;864    
;;;865    }
000a5c  e8bd9ff0          POP      {r4-r12,pc}
                  |L1.2656|
000a60  f04f0b00          MOV      r11,#0                ;610
000a64  f804b002          STRB     r11,[r4,r2]           ;610
000a68  e708              B        |L1.2172|
;;;866    
                          ENDP

                  snmp_location_write PROC
;;;877    //-----------------------------------------------
;;;878    void snmp_location_write (int mode) 
000a6a  b570              PUSH     {r4-r6,lr}
;;;879    {
;;;880    char i;
;;;881    if(mode==MIB_WRITE)
000a6c  2801              CMP      r0,#1
000a6e  d10c              BNE      |L1.2698|
;;;882    	{
;;;883    	for(i=0;i<64;i++)
000a70  f04f0400          MOV      r4,#0
;;;884    		{
;;;885    		lc640_write(EE_LOCATION+i,snmp_location[i]);
000a74  4dc5              LDR      r5,|L1.3468|
                  |L1.2678|
000a76  f5047065          ADD      r0,r4,#0x394
000a7a  5d29              LDRB     r1,[r5,r4]
000a7c  f7fffffe          BL       lc640_write
000a80  f1040401          ADD      r4,r4,#1              ;883
000a84  b2e4              UXTB     r4,r4                 ;883
000a86  2c40              CMP      r4,#0x40              ;883
000a88  d3f5              BCC      |L1.2678|
                  |L1.2698|
;;;886    		}
;;;887    	}
;;;888    }
000a8a  bd70              POP      {r4-r6,pc}
;;;889    
                          ENDP

                  snmp_alarm_aktiv_write1 PROC
;;;890    //-----------------------------------------------
;;;891    void snmp_alarm_aktiv_write1(void)
000a8c  48c0              LDR      r0,|L1.3472|
;;;892    {
;;;893    if(!snmp_sk_alarm_aktiv[0])   lc640_write_int(ADR_SK_SIGN[0],0xffff);
000a8e  7801              LDRB     r1,[r0,#0]  ; snmp_sk_alarm_aktiv
000a90  48c0              LDR      r0,|L1.3476|
000a92  b121              CBZ      r1,|L1.2718|
;;;894    else lc640_write_int(ADR_SK_SIGN[0],0);
000a94  f9b00000          LDRSH    r0,[r0,#0]  ; ADR_SK_SIGN
000a98  2100              MOVS     r1,#0
000a9a  f7ffbffe          B.W      lc640_write_int
                  |L1.2718|
000a9e  f9b00000          LDRSH    r0,[r0,#0]            ;893  ; ADR_SK_SIGN
000aa2  f04f31ff          MOV      r1,#0xffffffff        ;893
000aa6  f7ffbffe          B.W      lc640_write_int
;;;895    }
;;;896    
                          ENDP

                  snmp_alarm_aktiv_write2 PROC
;;;897    //-----------------------------------------------
;;;898    void snmp_alarm_aktiv_write2(void)
000aaa  48b9              LDR      r0,|L1.3472|
;;;899    {
;;;900    if(!snmp_sk_alarm_aktiv[1])   lc640_write_int(ADR_SK_SIGN[1],0xffff);
000aac  7841              LDRB     r1,[r0,#1]  ; snmp_sk_alarm_aktiv
000aae  48b9              LDR      r0,|L1.3476|
000ab0  b121              CBZ      r1,|L1.2748|
;;;901    else lc640_write_int(ADR_SK_SIGN[1],0);
000ab2  f9b00002          LDRSH    r0,[r0,#2]  ; ADR_SK_SIGN
000ab6  2100              MOVS     r1,#0
000ab8  f7ffbffe          B.W      lc640_write_int
                  |L1.2748|
000abc  f9b00002          LDRSH    r0,[r0,#2]            ;900  ; ADR_SK_SIGN
000ac0  f04f31ff          MOV      r1,#0xffffffff        ;900
000ac4  f7ffbffe          B.W      lc640_write_int
;;;902    }
;;;903    //-----------------------------------------------
                          ENDP

                  snmp_alarm_aktiv_write3 PROC
;;;904    void snmp_alarm_aktiv_write3(void)
000ac8  48b1              LDR      r0,|L1.3472|
;;;905    {
;;;906    if(!snmp_sk_alarm_aktiv[2])   lc640_write_int(ADR_SK_SIGN[2],0xffff);
000aca  7881              LDRB     r1,[r0,#2]  ; snmp_sk_alarm_aktiv
000acc  48b1              LDR      r0,|L1.3476|
000ace  b121              CBZ      r1,|L1.2778|
;;;907    else lc640_write_int(ADR_SK_SIGN[2],0);
000ad0  f9b00004          LDRSH    r0,[r0,#4]  ; ADR_SK_SIGN
000ad4  2100              MOVS     r1,#0
000ad6  f7ffbffe          B.W      lc640_write_int
                  |L1.2778|
000ada  f9b00004          LDRSH    r0,[r0,#4]            ;906  ; ADR_SK_SIGN
000ade  f04f31ff          MOV      r1,#0xffffffff        ;906
000ae2  f7ffbffe          B.W      lc640_write_int
;;;908    }
;;;909    //-----------------------------------------------
                          ENDP

                  snmp_alarm_aktiv_write4 PROC
;;;910    void snmp_alarm_aktiv_write4(void)
000ae6  48aa              LDR      r0,|L1.3472|
;;;911    {
;;;912    if(!snmp_sk_alarm_aktiv[3])   lc640_write_int(ADR_SK_SIGN[3],0xffff);
000ae8  78c1              LDRB     r1,[r0,#3]  ; snmp_sk_alarm_aktiv
000aea  48aa              LDR      r0,|L1.3476|
000aec  b121              CBZ      r1,|L1.2808|
;;;913    else lc640_write_int(ADR_SK_SIGN[3],0);
000aee  f9b00006          LDRSH    r0,[r0,#6]  ; ADR_SK_SIGN
000af2  2100              MOVS     r1,#0
000af4  f7ffbffe          B.W      lc640_write_int
                  |L1.2808|
000af8  f9b00006          LDRSH    r0,[r0,#6]            ;912  ; ADR_SK_SIGN
000afc  f04f31ff          MOV      r1,#0xffffffff        ;912
000b00  f7ffbffe          B.W      lc640_write_int
;;;914    }
;;;915    //-----------------------------------------------
                          ENDP

                  snmp_zv_on_write PROC
;;;924    //-----------------------------------------------
;;;925    void snmp_zv_on_write (int mode)
000b04  2801              CMP      r0,#1
;;;926    {
;;;927    if(mode==MIB_WRITE)
000b06  d106              BNE      |L1.2838|
;;;928    	{
;;;929    	lc640_write_int(EE_ZV_ON,snmp_zv_en);
000b08  48a1              LDR      r0,|L1.3472|
000b0a  38b4              SUBS     r0,r0,#0xb4
000b0c  f9b01036          LDRSH    r1,[r0,#0x36]  ; snmp_zv_en
000b10  2086              MOVS     r0,#0x86
000b12  f7ffbffe          B.W      lc640_write_int
                  |L1.2838|
;;;930    	}
;;;931    }
000b16  4770              BX       lr
;;;932    
                          ENDP

                  snmp_alarm_auto_disable_write PROC
;;;933    //-----------------------------------------------
;;;934    void snmp_alarm_auto_disable_write (int mode)
000b18  2801              CMP      r0,#1
;;;935    {
;;;936    if(mode==MIB_WRITE)
000b1a  d106              BNE      |L1.2858|
;;;937    	{
;;;938         lc640_write_int(EE_AV_OFF_AVT,snmp_alarm_auto_disable);
000b1c  489c              LDR      r0,|L1.3472|
000b1e  38b4              SUBS     r0,r0,#0xb4
000b20  f9b01038          LDRSH    r1,[r0,#0x38]  ; snmp_alarm_auto_disable
000b24  2080              MOVS     r0,#0x80
000b26  f7ffbffe          B.W      lc640_write_int
                  |L1.2858|
;;;939    	}
;;;940    }
000b2a  4770              BX       lr
;;;941    
                          ENDP

                  snmp_bat_test_time_write PROC
;;;942    //-----------------------------------------------
;;;943    void snmp_bat_test_time_write (int mode)
000b2c  2801              CMP      r0,#1
;;;944    {
;;;945    if(mode==MIB_WRITE)
000b2e  d106              BNE      |L1.2878|
;;;946    	{
;;;947    	lc640_write_int(EE_TBAT,snmp_bat_test_time);
000b30  4897              LDR      r0,|L1.3472|
000b32  38b4              SUBS     r0,r0,#0xb4
000b34  f9b0103a          LDRSH    r1,[r0,#0x3a]  ; snmp_bat_test_time
000b38  20c2              MOVS     r0,#0xc2
000b3a  f7ffbffe          B.W      lc640_write_int
                  |L1.2878|
;;;948    	}
;;;949    }
000b3e  4770              BX       lr
;;;950    
                          ENDP

                  snmp_u_max_write PROC
;;;951    //-----------------------------------------------
;;;952    void snmp_u_max_write (int mode)
000b40  2801              CMP      r0,#1
;;;953    {
;;;954    if(mode==MIB_WRITE)
000b42  d106              BNE      |L1.2898|
;;;955    	{
;;;956         lc640_write_int(EE_UMAX,snmp_u_max);
000b44  4892              LDR      r0,|L1.3472|
000b46  38b4              SUBS     r0,r0,#0xb4
000b48  f9b0103c          LDRSH    r1,[r0,#0x3c]  ; snmp_u_max
000b4c  2078              MOVS     r0,#0x78
000b4e  f7ffbffe          B.W      lc640_write_int
                  |L1.2898|
;;;957    	}
;;;958    }
000b52  4770              BX       lr
;;;959    
                          ENDP

                  snmp_u_min_write PROC
;;;961    //-----------------------------------------------
;;;962    void snmp_u_min_write (int mode)
000b54  2801              CMP      r0,#1
;;;963    {
;;;964    if(mode==MIB_WRITE)
000b56  d109              BNE      |L1.2924|
;;;965    	{
;;;966         lc640_write_int(EE_DU,UB20-snmp_u_min);
000b58  498d              LDR      r1,|L1.3472|
000b5a  488f              LDR      r0,|L1.3480|
000b5c  39b4              SUBS     r1,r1,#0xb4
000b5e  8800              LDRH     r0,[r0,#0]  ; UB20
000b60  8fc9              LDRH     r1,[r1,#0x3e]  ; snmp_u_min
000b62  1a40              SUBS     r0,r0,r1
000b64  b201              SXTH     r1,r0
000b66  20c8              MOVS     r0,#0xc8
000b68  f7ffbffe          B.W      lc640_write_int
                  |L1.2924|
;;;967    	}
;;;968    }
000b6c  4770              BX       lr
;;;969    
                          ENDP

                  snmp_u_0_grad_write PROC
;;;971    //-----------------------------------------------
;;;972    void snmp_u_0_grad_write (int mode)
000b6e  2801              CMP      r0,#1
;;;973    {
;;;974    if(mode==MIB_WRITE)
000b70  d106              BNE      |L1.2944|
;;;975    	{
;;;976    	lc640_write_int(EE_UB0,snmp_u_0_grad);
000b72  4887              LDR      r0,|L1.3472|
000b74  38b4              SUBS     r0,r0,#0xb4
000b76  f9b01040          LDRSH    r1,[r0,#0x40]  ; snmp_u_0_grad
000b7a  207a              MOVS     r0,#0x7a
000b7c  f7ffbffe          B.W      lc640_write_int
                  |L1.2944|
;;;977    	}
;;;978    }
000b80  4770              BX       lr
;;;979    //-----------------------------------------------
                          ENDP

                  snmp_u_20_grad_write PROC
;;;980    void snmp_u_20_grad_write (int mode)
000b82  2801              CMP      r0,#1
;;;981    {
;;;982    if(mode==MIB_WRITE)
000b84  d106              BNE      |L1.2964|
;;;983    	{
;;;984    	lc640_write_int(EE_UB20,snmp_u_20_grad);
000b86  4882              LDR      r0,|L1.3472|
000b88  38b4              SUBS     r0,r0,#0xb4
000b8a  f9b01042          LDRSH    r1,[r0,#0x42]  ; snmp_u_20_grad
000b8e  207c              MOVS     r0,#0x7c
000b90  f7ffbffe          B.W      lc640_write_int
                  |L1.2964|
;;;985    	}
;;;986    }
000b94  4770              BX       lr
;;;987    
                          ENDP

                  snmp_u_sign_write PROC
;;;988    //-----------------------------------------------
;;;989    void snmp_u_sign_write (int mode)
000b96  4770              BX       lr
;;;990    {
;;;991    if(mode==MIB_WRITE)
;;;992    	{
;;;993     //    lc640_write_int(EE_USIGN,snmp_u_sign);
;;;994    	}
;;;995    }
;;;996    //-----------------------------------------------
                          ENDP

                  snmp_u_min_power_write PROC
;;;997    void snmp_u_min_power_write (int mode)
000b98  4770              BX       lr
;;;998    {
;;;999    if(mode==MIB_WRITE)
;;;1000   	{
;;;1001   //     lc640_write_int(EE_UMN,snmp_u_min_power);
;;;1002   	}
;;;1003   }
;;;1004   //-----------------------------------------------
                          ENDP

                  snmp_u_withouth_bat_write PROC
;;;1005   void snmp_u_withouth_bat_write (int mode)
000b9a  2801              CMP      r0,#1
;;;1006   {
;;;1007   if(mode==MIB_WRITE)
000b9c  d106              BNE      |L1.2988|
;;;1008   	{
;;;1009   	lc640_write_int(EE_U0B,snmp_u_withouth_bat);
000b9e  487c              LDR      r0,|L1.3472|
000ba0  38b4              SUBS     r0,r0,#0xb4
000ba2  f9b01048          LDRSH    r1,[r0,#0x48]  ; snmp_u_withouth_bat
000ba6  2094              MOVS     r0,#0x94
000ba8  f7ffbffe          B.W      lc640_write_int
                  |L1.2988|
;;;1010   	}
;;;1011   }
000bac  4770              BX       lr
;;;1012   
                          ENDP

                  snmp_control_current_write PROC
;;;1013   //-----------------------------------------------
;;;1014   void snmp_control_current_write (int mode)
000bae  2801              CMP      r0,#1
;;;1015   {
;;;1016   if(mode==MIB_WRITE)
000bb0  d106              BNE      |L1.3008|
;;;1017   	{
;;;1018   	lc640_write_int(EE_IKB,snmp_control_current);
000bb2  4877              LDR      r0,|L1.3472|
000bb4  38b4              SUBS     r0,r0,#0xb4
000bb6  f9b0104a          LDRSH    r1,[r0,#0x4a]  ; snmp_control_current
000bba  2088              MOVS     r0,#0x88
000bbc  f7ffbffe          B.W      lc640_write_int
                  |L1.3008|
;;;1019   	}
;;;1020   }
000bc0  4770              BX       lr
;;;1021   
                          ENDP

                  snmp_max_charge_current_write PROC
;;;1022   //-----------------------------------------------
;;;1023   void snmp_max_charge_current_write (int mode)
000bc2  2801              CMP      r0,#1
;;;1024   {
;;;1025   if(mode==MIB_WRITE)
000bc4  d106              BNE      |L1.3028|
;;;1026   	{
;;;1027   	lc640_write_int(EE_IZMAX,snmp_max_charge_current);
000bc6  4872              LDR      r0,|L1.3472|
000bc8  38b4              SUBS     r0,r0,#0xb4
000bca  f9b0104c          LDRSH    r1,[r0,#0x4c]  ; snmp_max_charge_current
000bce  2092              MOVS     r0,#0x92
000bd0  f7ffbffe          B.W      lc640_write_int
                  |L1.3028|
;;;1028   	}
;;;1029   }
000bd4  4770              BX       lr
;;;1030   
                          ENDP

                  snmp_max_current_write PROC
;;;1031   //-----------------------------------------------
;;;1032   void snmp_max_current_write (int mode)
000bd6  2801              CMP      r0,#1
;;;1033   {
;;;1034   if(mode==MIB_WRITE)
000bd8  d106              BNE      |L1.3048|
;;;1035   	{
;;;1036        lc640_write_int(EE_IMAX,snmp_max_current);
000bda  486d              LDR      r0,|L1.3472|
000bdc  38b4              SUBS     r0,r0,#0xb4
000bde  f9b0104e          LDRSH    r1,[r0,#0x4e]  ; snmp_max_current
000be2  208c              MOVS     r0,#0x8c
000be4  f7ffbffe          B.W      lc640_write_int
                  |L1.3048|
;;;1037   	}
;;;1038   }
000be8  4770              BX       lr
;;;1039   
                          ENDP

                  snmp_min_current_write PROC
;;;1040   //-----------------------------------------------
;;;1041   void snmp_min_current_write (int mode)
000bea  2801              CMP      r0,#1
;;;1042   {
;;;1043   if(mode==MIB_WRITE)
000bec  d106              BNE      |L1.3068|
;;;1044   	{
;;;1045        lc640_write_int(EE_IMIN,snmp_min_current);
000bee  4868              LDR      r0,|L1.3472|
000bf0  38b4              SUBS     r0,r0,#0xb4
000bf2  f9b01050          LDRSH    r1,[r0,#0x50]  ; snmp_min_current
000bf6  208e              MOVS     r0,#0x8e
000bf8  f7ffbffe          B.W      lc640_write_int
                  |L1.3068|
;;;1046   	}
;;;1047   }
000bfc  4770              BX       lr
;;;1048   
                          ENDP

                  snmp_powerup_psu_timeout_write PROC
;;;1067   //-----------------------------------------------
;;;1068   void snmp_powerup_psu_timeout_write (int mode)
000bfe  2801              CMP      r0,#1
;;;1069   {
;;;1070   if(mode==MIB_WRITE)
000c00  d106              BNE      |L1.3088|
;;;1071   	{
;;;1072        lc640_write_int(EE_TZAS,snmp_powerup_psu_timeout);
000c02  4863              LDR      r0,|L1.3472|
000c04  38b4              SUBS     r0,r0,#0xb4
000c06  f9b01054          LDRSH    r1,[r0,#0x54]  ; snmp_powerup_psu_timeout
000c0a  2096              MOVS     r0,#0x96
000c0c  f7ffbffe          B.W      lc640_write_int
                  |L1.3088|
;;;1073   	}
;;;1074   }
000c10  4770              BX       lr
;;;1075   
                          ENDP

                  snmp_tsign_bat_write PROC
;;;1085   //-----------------------------------------------
;;;1086   void snmp_tsign_bat_write(int mode)
000c12  2801              CMP      r0,#1
;;;1087   {
;;;1088   if(mode==MIB_WRITE)
000c14  d106              BNE      |L1.3108|
;;;1089   	{
;;;1090    	lc640_write_int(EE_TBATSIGN,snmp_tsign_bat);
000c16  485e              LDR      r0,|L1.3472|
000c18  38b4              SUBS     r0,r0,#0xb4
000c1a  f9b01058          LDRSH    r1,[r0,#0x58]  ; snmp_tsign_bat
000c1e  20ce              MOVS     r0,#0xce
000c20  f7ffbffe          B.W      lc640_write_int
                  |L1.3108|
;;;1091   	}
;;;1092   }
000c24  4770              BX       lr
;;;1093   //-----------------------------------------------
                          ENDP

                  snmp_tmax_bat_write PROC
;;;1094   void snmp_tmax_bat_write(int mode)
000c26  2801              CMP      r0,#1
;;;1095   {
;;;1096   if(mode==MIB_WRITE)
000c28  d106              BNE      |L1.3128|
;;;1097   	{
;;;1098    	lc640_write_int(EE_TBATMAX,snmp_tmax_bat);
000c2a  4859              LDR      r0,|L1.3472|
000c2c  38b4              SUBS     r0,r0,#0xb4
000c2e  f9b0105a          LDRSH    r1,[r0,#0x5a]  ; snmp_tmax_bat
000c32  20cc              MOVS     r0,#0xcc
000c34  f7ffbffe          B.W      lc640_write_int
                  |L1.3128|
;;;1099   	}
;;;1100   }
000c38  4770              BX       lr
;;;1101   //-----------------------------------------------
                          ENDP

                  snmp_tsign_bps_write PROC
;;;1102   void snmp_tsign_bps_write(int mode)
000c3a  2801              CMP      r0,#1
;;;1103   {
;;;1104   if(mode==MIB_WRITE)
000c3c  d106              BNE      |L1.3148|
;;;1105   	{
;;;1106   	lc640_write_int(EE_TSIGN,snmp_tsign_bps);
000c3e  4854              LDR      r0,|L1.3472|
000c40  38b4              SUBS     r0,r0,#0xb4
000c42  f9b0105c          LDRSH    r1,[r0,#0x5c]  ; snmp_tsign_bps
000c46  20c6              MOVS     r0,#0xc6
000c48  f7ffbffe          B.W      lc640_write_int
                  |L1.3148|
;;;1107   	}
;;;1108   }
000c4c  4770              BX       lr
;;;1109   //-----------------------------------------------
                          ENDP

                  snmp_tmax_bps_write PROC
;;;1110   void snmp_tmax_bps_write(int mode)
000c4e  2801              CMP      r0,#1
;;;1111   {
;;;1112   if(mode==MIB_WRITE)
000c50  d106              BNE      |L1.3168|
;;;1113   	{
;;;1114   	lc640_write_int(EE_TMAX,snmp_tmax_bps);
000c52  484f              LDR      r0,|L1.3472|
000c54  38b4              SUBS     r0,r0,#0xb4
000c56  f9b0105e          LDRSH    r1,[r0,#0x5e]  ; snmp_tmax_bps
000c5a  207e              MOVS     r0,#0x7e
000c5c  f7ffbffe          B.W      lc640_write_int
                  |L1.3168|
;;;1115   	}
;;;1116   }
000c60  4770              BX       lr
;;;1117   
                          ENDP

                  snmp_uvz_write PROC
;;;1118   //-----------------------------------------------
;;;1119   void snmp_uvz_write(int mode)
000c62  2801              CMP      r0,#1
;;;1120   {
;;;1121   if(mode==MIB_WRITE)
000c64  d106              BNE      |L1.3188|
;;;1122   	{
;;;1123   	lc640_write_int(EE_UVZ,snmp_uvz);
000c66  484a              LDR      r0,|L1.3472|
000c68  38b4              SUBS     r0,r0,#0xb4
000c6a  f9b01052          LDRSH    r1,[r0,#0x52]  ; snmp_uvz
000c6e  20de              MOVS     r0,#0xde
000c70  f7ffbffe          B.W      lc640_write_int
                  |L1.3188|
;;;1124   	}
;;;1125   }
000c74  4770              BX       lr
;;;1126   //-----------------------------------------------
                          ENDP

                  snmp_bat_part_alarm_write PROC
;;;1127   void snmp_bat_part_alarm_write(int mode)
000c76  2801              CMP      r0,#1
;;;1128   {
;;;1129   if(mode==MIB_WRITE)
000c78  d107              BNE      |L1.3210|
;;;1130   	{
;;;1131   	lc640_write_int(EE_UBM_AV,snmp_bat_part_alarm);
000c7a  4845              LDR      r0,|L1.3472|
000c7c  38b4              SUBS     r0,r0,#0xb4
000c7e  f9b01060          LDRSH    r1,[r0,#0x60]  ; snmp_bat_part_alarm
000c82  f44f7019          MOV      r0,#0x264
000c86  f7ffbffe          B.W      lc640_write_int
                  |L1.3210|
;;;1132   	}
;;;1133   }
000c8a  4770              BX       lr
;;;1134   //-----------------------------------------------
                          ENDP

                  snmp_power_cnt_adress_write PROC
;;;1135   void snmp_power_cnt_adress_write(int mode)
000c8c  2801              CMP      r0,#1
;;;1136   {
;;;1137   if(mode==MIB_WRITE)
000c8e  d107              BNE      |L1.3232|
;;;1138   	{
;;;1139   	lc640_write_int(EE_POWER_CNT_ADRESS,snmp_power_cnt_adress);
000c90  483f              LDR      r0,|L1.3472|
000c92  38b4              SUBS     r0,r0,#0xb4
000c94  f9b01062          LDRSH    r1,[r0,#0x62]  ; snmp_power_cnt_adress
000c98  f2402062          MOV      r0,#0x262
000c9c  f7ffbffe          B.W      lc640_write_int
                  |L1.3232|
;;;1140   	}
;;;1141   }
000ca0  4770              BX       lr
;;;1142   
                          ENDP

                  snmp_command_execute PROC
;;;1143   //-----------------------------------------------
;;;1144   void snmp_command_execute (int mode)
000ca2  b510              PUSH     {r4,lr}
;;;1145   {
;;;1146   if(mode==MIB_WRITE)
000ca4  2801              CMP      r0,#1
000ca6  d113              BNE      |L1.3280|
;;;1147   	{
;;;1148   	
;;;1149   	//snmp_command=0x5555;
;;;1150   
;;;1151   	switch (snmp_command)
000ca8  4839              LDR      r0,|L1.3472|
;;;1152   		{
;;;1153   		case SNMP_BPS_DISABLE:
;;;1154   			{
;;;1155   			snmp_command=COMMAND_OK;
000caa  f2455255          MOV      r2,#0x5555
000cae  38b4              SUBS     r0,r0,#0xb4           ;1151
000cb0  4601              MOV      r1,r0                 ;1151
000cb2  f9b04032          LDRSH    r4,[r0,#0x32]         ;1151  ; snmp_command
;;;1156   
;;;1157   		/*	switch (snmp_command_parametr)
;;;1158   				{
;;;1159   			
;;;1160   				case 1: 
;;;1161   				{
;;;1162   				St_[0]|=0x20;
;;;1163   				St_[1]&=0xdf;
;;;1164   				St&=0xfb;
;;;1165   				cnt_src[1]=10;
;;;1166   				snmp_plazma++;
;;;1167   				snmp_plazma++;
;;;1168   				break;
;;;1169   				}
;;;1170   			
;;;1171   				case 2:
;;;1172   				{
;;;1173   				St_[1]|=0x20;
;;;1174   				St_[0]&=0xdf;
;;;1175   				St&=0xfb;
;;;1176   				cnt_src[0]=10;	
;;;1177   				snmp_plazma++;
;;;1178   				break;
;;;1179   				}*/	
;;;1180   			
;;;1181   				//break;
;;;1182   			//	}
;;;1183   			if(snmp_command_parametr==1) 
;;;1184   				{
;;;1185   			//	St_[0]|=0x20;
;;;1186   			//	St_[1]&=0xdf;
;;;1187   			//	St&=0xfb;
;;;1188   		//		cnt_src[1]=10;
;;;1189   		//		snmp_plazma++;
;;;1190   		//		snmp_plazma++;
;;;1191   				}
;;;1192   			
;;;1193   			else if(snmp_command_parametr==2)
;;;1194   				{
;;;1195   			//	St_[1]|=0x20;
;;;1196   			//	St_[0]&=0xdf;
;;;1197   			//	St&=0xfb;
;;;1198   		//		cnt_src[0]=10;	
;;;1199   		//		snmp_plazma++;
;;;1200   				}	
;;;1201   			
;;;1202   			break;
;;;1203   			}
;;;1204   
;;;1205   		case SNMP_BPS_UNDISABLE:
;;;1206   			{
;;;1207   			snmp_command=COMMAND_OK;
;;;1208   		//	St_[0]&=0xdf;
;;;1209   		//	St_[1]&=0xdf;
;;;1210   			break;
;;;1211   			}
;;;1212   
;;;1213   		case SNMP_SPEC_VZ:
;;;1214   			{
;;;1215   			if((snmp_command_parametr>=1)&&(snmp_command_parametr<=24))
;;;1216   				{
;;;1217   			//	if(!(St&0x03)&&(NUMBAT))
;;;1218   					{
;;;1219   					snmp_command=COMMAND_OK;
;;;1220   		//			spc_stat=spc_VZ;
;;;1221   		//			cnt_vz_sec_=3600UL*snmp_command_parametr;
;;;1222   					}
;;;1223   			//	else
;;;1224    					{
;;;1225   					snmp_command=COMAND_FAIL;	
000cb6  43d3              MVNS     r3,r2
000cb8  1ee4              SUBS     r4,r4,#3              ;1151
000cba  f9b11034          LDRSH    r1,[r1,#0x34]         ;1183
000cbe  2c06              CMP      r4,#6                 ;1151
000cc0  d216              BCS      |L1.3312|
000cc2  e8dff004          TBB      [pc,r4]               ;1151
000cc6  0811              DCB      0x08,0x11
000cc8  03151306          DCB      0x03,0x15,0x13,0x06
000ccc  8642              STRH     r2,[r0,#0x32]         ;1155
000cce  2901              CMP      r1,#1                 ;1183
                  |L1.3280|
;;;1226    					}
;;;1227   				}
;;;1228   			else 
;;;1229   				{
;;;1230   				snmp_command=WRONG_PARAMETER;
;;;1231   				}
;;;1232   			break;
;;;1233   			}
;;;1234   
;;;1235   		case SNMP_SPEC_KE:
;;;1236   			{
;;;1237   	  	//	if(!(St&0x02)&&(NUMBAT))
;;;1238   				{
;;;1239   				//spc_stat=spc_KE;
;;;1240   			//zar_cnt_ee_ke=0;
;;;1241   			//	zar_cnt=0L;
;;;1242   				snmp_command=COMMAND_OK;
;;;1243   				}
;;;1244   		//	else
;;;1245   				{
;;;1246   				snmp_command=COMAND_FAIL;	
;;;1247   				}
;;;1248   			break;
;;;1249   			}
;;;1250   
;;;1251   		case SNMP_SPEC_DISABLE:
;;;1252   			{
;;;1253   		//	spc_stat=spc_OFF;
;;;1254   			snmp_command=COMMAND_OK;
;;;1255   			break;
;;;1256   			}
;;;1257   
;;;1258   
;;;1259   		default:
;;;1260   			{
;;;1261   			snmp_command=COMMAND_INVALID;
;;;1262   			break;
;;;1263   			}
;;;1264   		}
;;;1265   /*		else if((UIB2[1]==0x52)&&(UIB2[4]==5)&&(UIB2[5]==5)&&(UIB2[6])&&(UIB2[6]<=NUMIST)&&(UIB2[6]==UIB2[7])) 	//Выключение источника 
;;;1266   		{
;;;1267   	
;;;1268   		if((UIB2[6]==1)&&(UIB2[7]==1)) 
;;;1269   			{
;;;1270   			St_[0]|=0x20;
;;;1271   			St_[1]&=0xdf;
;;;1272   			St&=0xfb;
;;;1273   			cnt_src[1]=10;
;;;1274   			}
;;;1275   			
;;;1276   		else if((UIB2[6]==2)&&(UIB2[7]==2))
;;;1277   			{
;;;1278   			St_[1]|=0x20;
;;;1279   			St_[0]&=0xdf;
;;;1280   			St&=0xfb;
;;;1281   			cnt_src[0]=10;
;;;1282   			}	
;;;1283   		
;;;1284        	memo_out2[0]=0x33;
;;;1285        	memo_out2[1]=0x62;
;;;1286        	memo_out2[2]=4;
;;;1287        	memo_out2[3]=0x03;
;;;1288        	
;;;1289        	memo_out2[4]=5;
;;;1290        	memo_out2[5]=5;
;;;1291        	memo_out2[6]=UIB2[6];
;;;1292        	memo_out2[7]=UIB2[6];
;;;1293            	memo_out2[8]=crc_87(memo_out2,8);
;;;1294   		memo_out2[9]=crc_95(memo_out2,8);
;;;1295        	uart_out_adr2(memo_out2,10); 		
;;;1296   		} */
;;;1297   
;;;1298   
;;;1299   
;;;1300   	}
;;;1301   }
000cd0  bd10              POP      {r4,pc}
000cd2  8642              STRH     r2,[r0,#0x32]         ;1207
000cd4  bd10              POP      {r4,pc}
000cd6  1e49              SUBS     r1,r1,#1              ;1215
000cd8  2917              CMP      r1,#0x17              ;1215
000cda  d801              BHI      |L1.3296|
000cdc  8643              STRH     r3,[r0,#0x32]         ;1225
000cde  bd10              POP      {r4,pc}
                  |L1.3296|
000ce0  f64e61ef          MOV      r1,#0xeeef            ;1230
000ce4  8641              STRH     r1,[r0,#0x32]         ;1230
000ce6  bd10              POP      {r4,pc}
000ce8  8643              STRH     r3,[r0,#0x32]         ;1246
000cea  bd10              POP      {r4,pc}
000cec  8642              STRH     r2,[r0,#0x32]         ;1254
000cee  bd10              POP      {r4,pc}
                  |L1.3312|
000cf0  f64e61ee          MOV      r1,#0xeeee            ;1261
000cf4  8641              STRH     r1,[r0,#0x32]         ;1261
000cf6  bd10              POP      {r4,pc}
;;;1302   
                          ENDP

                  snmp_trap_send PROC
;;;1861   //-----------------------------------------------
;;;1862   void snmp_trap_send(char* str, signed short in0, signed short in1, signed short in2)
000cf8  e92d41f0          PUSH     {r4-r8,lr}
;;;1863   {
;;;1864   for(snmp_trap_send_i=0;snmp_trap_send_i<100;snmp_trap_send_i++)
000cfc  4f24              LDR      r7,|L1.3472|
000cfe  f04f0500          MOV      r5,#0
000d02  f1a707b4          SUB      r7,r7,#0xb4
000d06  703d              STRB     r5,[r7,#0]
;;;1865   	{
;;;1866   	snmp_spc_trap_message[snmp_trap_send_i]=0;
000d08  4e20              LDR      r6,|L1.3468|
000d0a  f10606b4          ADD      r6,r6,#0xb4
                  |L1.3342|
000d0e  783c              LDRB     r4,[r7,#0]  ; snmp_trap_send_i
000d10  5535              STRB     r5,[r6,r4]
000d12  f1040401          ADD      r4,r4,#1              ;1864
000d16  b2e4              UXTB     r4,r4                 ;1864
000d18  703c              STRB     r4,[r7,#0]            ;1864
000d1a  2c64              CMP      r4,#0x64              ;1864
000d1c  d3f7              BCC      |L1.3342|
;;;1867   	}
;;;1868   
;;;1869   
;;;1870   obj[0] = 0;
000d1e  f8dfc064          LDR      r12,|L1.3460|
000d22  f10c0cd2          ADD      r12,r12,#0xd2
000d26  f8ac5000          STRH     r5,[r12,#0]
;;;1871   snmp_trap_send_ii=1;
000d2a  f04f0801          MOV      r8,#1
000d2e  f8878001          STRB     r8,[r7,#1]
;;;1872   if(str!=0)
000d32  b1a8              CBZ      r0,|L1.3424|
;;;1873   	{
;;;1874   	obj[0]++;
000d34  f8ac8000          STRH     r8,[r12,#0]
;;;1875   	for(snmp_trap_send_i=0;snmp_trap_send_i<100&&(str[snmp_trap_send_i]);snmp_trap_send_i++)
000d38  703d              STRB     r5,[r7,#0]
000d3a  e003              B        |L1.3396|
                  |L1.3388|
;;;1876   		{
;;;1877   		snmp_spc_trap_message[snmp_trap_send_i]=str[snmp_trap_send_i];
000d3c  5535              STRB     r5,[r6,r4]
000d3e  f1040401          ADD      r4,r4,#1              ;1875
000d42  703c              STRB     r4,[r7,#0]            ;1875
                  |L1.3396|
000d44  783c              LDRB     r4,[r7,#0]            ;1875  ; snmp_trap_send_i
000d46  2c64              CMP      r4,#0x64              ;1875
000d48  d202              BCS      |L1.3408|
000d4a  5d05              LDRB     r5,[r0,r4]            ;1875
000d4c  2d00              CMP      r5,#0                 ;1875
000d4e  d1f5              BNE      |L1.3388|
                  |L1.3408|
;;;1878   		}
;;;1879   	obj[snmp_trap_send_ii] = 7;
000d50  f04f0007          MOV      r0,#7
000d54  f82c0018          STRH     r0,[r12,r8,LSL #1]
;;;1880   	snmp_trap_send_ii++;
000d58  f1080801          ADD      r8,r8,#1
000d5c  f8878001          STRB     r8,[r7,#1]
                  |L1.3424|
;;;1881   	}
;;;1882   if(in0!=0xffff)
000d60  f64f74ff          MOV      r4,#0xffff
000d64  42a1              CMP      r1,r4
000d66  d01c              BEQ      |L1.3490|
;;;1883   	{
;;;1884   	obj[0]++;
000d68  f8bc0000          LDRH     r0,[r12,#0]  ; obj
000d6c  f1000001          ADD      r0,r0,#1
000d70  f8ac0000          STRH     r0,[r12,#0]
;;;1885   	snmp_spc_trap_value_0=in0;
000d74  83f9              STRH     r1,[r7,#0x1e]
;;;1886   	obj[snmp_trap_send_ii] = 8;
000d76  7878              LDRB     r0,[r7,#1]  ; snmp_trap_send_ii
000d78  f04f0108          MOV      r1,#8
000d7c  f82c1010          STRH     r1,[r12,r0,LSL #1]
;;;1887   	snmp_trap_send_ii++;
000d80  e00c              B        |L1.3484|
000d82  0000              DCW      0x0000
                  |L1.3460|
                          DCD      ||area_number.20||+0x180
                  |L1.3464|
                          DCD      lakb
                  |L1.3468|
                          DCD      ||area_number.20||
                  |L1.3472|
                          DCD      ||.data||+0xb4
                  |L1.3476|
                          DCD      ADR_SK_SIGN
                  |L1.3480|
                          DCD      UB20
                  |L1.3484|
000d9c  f1000001          ADD      r0,r0,#1
000da0  7078              STRB     r0,[r7,#1]
                  |L1.3490|
;;;1888   	}
;;;1889   if(in1!=0xffff)
000da2  42a2              CMP      r2,r4
000da4  d00e              BEQ      |L1.3524|
;;;1890   	{
;;;1891   	obj[0]++;
000da6  f8bc0000          LDRH     r0,[r12,#0]  ; obj
000daa  f1000001          ADD      r0,r0,#1
000dae  f8ac0000          STRH     r0,[r12,#0]
;;;1892   	snmp_spc_trap_value_1=in1;
000db2  843a              STRH     r2,[r7,#0x20]
;;;1893   	obj[snmp_trap_send_ii] = 9;
000db4  7878              LDRB     r0,[r7,#1]  ; snmp_trap_send_ii
000db6  f04f0109          MOV      r1,#9
000dba  f82c1010          STRH     r1,[r12,r0,LSL #1]
;;;1894   	snmp_trap_send_ii++;
000dbe  f1000001          ADD      r0,r0,#1
000dc2  7078              STRB     r0,[r7,#1]
                  |L1.3524|
;;;1895   	}
;;;1896   if(in2!=0xffff)
000dc4  42a3              CMP      r3,r4
000dc6  d00e              BEQ      |L1.3558|
;;;1897   	{
;;;1898   	obj[0]++;
000dc8  f8bc0000          LDRH     r0,[r12,#0]  ; obj
000dcc  f1000001          ADD      r0,r0,#1
000dd0  f8ac0000          STRH     r0,[r12,#0]
;;;1899   	snmp_spc_trap_value_2=in2;
000dd4  847b              STRH     r3,[r7,#0x22]
;;;1900   	obj[snmp_trap_send_ii] = 10;
000dd6  7878              LDRB     r0,[r7,#1]  ; snmp_trap_send_ii
000dd8  f04f010a          MOV      r1,#0xa
000ddc  f82c1010          STRH     r1,[r12,r0,LSL #1]
;;;1901   	snmp_trap_send_ii++;
000de0  f1000001          ADD      r0,r0,#1
000de4  7078              STRB     r0,[r7,#1]
                  |L1.3558|
;;;1902   	}
;;;1903   
;;;1904   
;;;1905   if((ETH_TRAP1_IP_1!=255)&&(ETH_TRAP1_IP_2!=255)&&(ETH_TRAP1_IP_3!=255)&&(ETH_TRAP1_IP_4!=255))
000de6  484d              LDR      r0,|L1.3868|
;;;1906   	{
;;;1907   	temp_ip[0]= ETH_TRAP1_IP_1;
000de8  4c4d              LDR      r4,|L1.3872|
000dea  f9b00000          LDRSH    r0,[r0,#0]            ;1905  ; ETH_TRAP1_IP_1
000dee  28ff              CMP      r0,#0xff              ;1905
000df0  d018              BEQ      |L1.3620|
000df2  494c              LDR      r1,|L1.3876|
000df4  f9b11000          LDRSH    r1,[r1,#0]            ;1905  ; ETH_TRAP1_IP_2
000df8  29ff              CMP      r1,#0xff              ;1905
000dfa  d013              BEQ      |L1.3620|
000dfc  4a4a              LDR      r2,|L1.3880|
000dfe  f9b22000          LDRSH    r2,[r2,#0]            ;1905  ; ETH_TRAP1_IP_3
000e02  2aff              CMP      r2,#0xff              ;1905
000e04  d00e              BEQ      |L1.3620|
000e06  4b49              LDR      r3,|L1.3884|
000e08  f9b33000          LDRSH    r3,[r3,#0]            ;1905  ; ETH_TRAP1_IP_4
000e0c  2bff              CMP      r3,#0xff              ;1905
000e0e  d009              BEQ      |L1.3620|
000e10  7020              STRB     r0,[r4,#0]
;;;1908   	temp_ip[1]= ETH_TRAP1_IP_2;
000e12  7061              STRB     r1,[r4,#1]
;;;1909   	temp_ip[2]= ETH_TRAP1_IP_3;
000e14  70a2              STRB     r2,[r4,#2]
;;;1910   	temp_ip[3]= ETH_TRAP1_IP_4;
000e16  70e3              STRB     r3,[r4,#3]
;;;1911   	snmp_trap (temp_ip, 6, 3, obj);
000e18  4b45              LDR      r3,|L1.3888|
000e1a  2203              MOVS     r2,#3
000e1c  2106              MOVS     r1,#6
000e1e  4620              MOV      r0,r4
000e20  f7fffffe          BL       snmp_trap
                  |L1.3620|
;;;1912   	}
;;;1913   if((ETH_TRAP2_IP_1!=255)&&(ETH_TRAP2_IP_2!=255)&&(ETH_TRAP2_IP_3!=255)&&(ETH_TRAP2_IP_4!=255))
000e24  4843              LDR      r0,|L1.3892|
000e26  f9b01000          LDRSH    r1,[r0,#0]  ; ETH_TRAP2_IP_1
000e2a  29ff              CMP      r1,#0xff
000e2c  d018              BEQ      |L1.3680|
000e2e  4842              LDR      r0,|L1.3896|
000e30  f9b02000          LDRSH    r2,[r0,#0]  ; ETH_TRAP2_IP_2
000e34  2aff              CMP      r2,#0xff
000e36  d013              BEQ      |L1.3680|
000e38  4840              LDR      r0,|L1.3900|
000e3a  f9b00000          LDRSH    r0,[r0,#0]  ; ETH_TRAP2_IP_3
000e3e  28ff              CMP      r0,#0xff
000e40  d00e              BEQ      |L1.3680|
000e42  4b3f              LDR      r3,|L1.3904|
000e44  f9b33000          LDRSH    r3,[r3,#0]  ; ETH_TRAP2_IP_4
000e48  2bff              CMP      r3,#0xff
000e4a  d009              BEQ      |L1.3680|
;;;1914   	{
;;;1915   	temp_ip[0]= ETH_TRAP2_IP_1;
000e4c  7021              STRB     r1,[r4,#0]
;;;1916   	temp_ip[1]= ETH_TRAP2_IP_2;
000e4e  7062              STRB     r2,[r4,#1]
;;;1917   	temp_ip[2]= ETH_TRAP2_IP_3;
000e50  70a0              STRB     r0,[r4,#2]
;;;1918   	temp_ip[3]= ETH_TRAP2_IP_4;
000e52  70e3              STRB     r3,[r4,#3]
;;;1919   	snmp_trap (temp_ip, 6, 3, obj);
000e54  4b36              LDR      r3,|L1.3888|
000e56  2203              MOVS     r2,#3
000e58  2106              MOVS     r1,#6
000e5a  4831              LDR      r0,|L1.3872|
000e5c  f7fffffe          BL       snmp_trap
                  |L1.3680|
;;;1920   	}
;;;1921   
;;;1922   if((ETH_TRAP3_IP_1!=255)&&(ETH_TRAP3_IP_2!=255)&&(ETH_TRAP3_IP_3!=255)&&(ETH_TRAP3_IP_4!=255))
000e60  4838              LDR      r0,|L1.3908|
000e62  f9b01000          LDRSH    r1,[r0,#0]  ; ETH_TRAP3_IP_1
000e66  29ff              CMP      r1,#0xff
000e68  d018              BEQ      |L1.3740|
000e6a  4837              LDR      r0,|L1.3912|
000e6c  f9b02000          LDRSH    r2,[r0,#0]  ; ETH_TRAP3_IP_2
000e70  2aff              CMP      r2,#0xff
000e72  d013              BEQ      |L1.3740|
000e74  4835              LDR      r0,|L1.3916|
000e76  f9b03000          LDRSH    r3,[r0,#0]  ; ETH_TRAP3_IP_3
000e7a  2bff              CMP      r3,#0xff
000e7c  d00e              BEQ      |L1.3740|
000e7e  4834              LDR      r0,|L1.3920|
000e80  f9b00000          LDRSH    r0,[r0,#0]  ; ETH_TRAP3_IP_4
000e84  28ff              CMP      r0,#0xff
000e86  d009              BEQ      |L1.3740|
;;;1923   	{
;;;1924   	temp_ip[0]= ETH_TRAP3_IP_1;
000e88  7021              STRB     r1,[r4,#0]
;;;1925   	temp_ip[1]= ETH_TRAP3_IP_2;
000e8a  7062              STRB     r2,[r4,#1]
;;;1926   	temp_ip[2]= ETH_TRAP3_IP_3;
000e8c  70a3              STRB     r3,[r4,#2]
;;;1927   	temp_ip[3]= ETH_TRAP3_IP_4;
000e8e  70e0              STRB     r0,[r4,#3]
;;;1928   	snmp_trap (temp_ip, 6, 3, obj);
000e90  4b27              LDR      r3,|L1.3888|
000e92  2203              MOVS     r2,#3
000e94  2106              MOVS     r1,#6
000e96  4822              LDR      r0,|L1.3872|
000e98  f7fffffe          BL       snmp_trap
                  |L1.3740|
;;;1929   	}
;;;1930   
;;;1931   if((ETH_TRAP4_IP_1!=255)&&(ETH_TRAP4_IP_2!=255)&&(ETH_TRAP4_IP_3!=255)&&(ETH_TRAP4_IP_4!=255))
000e9c  482d              LDR      r0,|L1.3924|
000e9e  f9b03000          LDRSH    r3,[r0,#0]  ; ETH_TRAP4_IP_1
000ea2  2bff              CMP      r3,#0xff
000ea4  d018              BEQ      |L1.3800|
000ea6  482c              LDR      r0,|L1.3928|
000ea8  f9b00000          LDRSH    r0,[r0,#0]  ; ETH_TRAP4_IP_2
000eac  28ff              CMP      r0,#0xff
000eae  d013              BEQ      |L1.3800|
000eb0  492a              LDR      r1,|L1.3932|
000eb2  f9b11000          LDRSH    r1,[r1,#0]  ; ETH_TRAP4_IP_3
000eb6  29ff              CMP      r1,#0xff
000eb8  d00e              BEQ      |L1.3800|
000eba  4a29              LDR      r2,|L1.3936|
000ebc  f9b22000          LDRSH    r2,[r2,#0]  ; ETH_TRAP4_IP_4
000ec0  2aff              CMP      r2,#0xff
000ec2  d009              BEQ      |L1.3800|
;;;1932   	{
;;;1933   	temp_ip[0]= ETH_TRAP4_IP_1;
000ec4  7023              STRB     r3,[r4,#0]
;;;1934   	temp_ip[1]= ETH_TRAP4_IP_2;
000ec6  7060              STRB     r0,[r4,#1]
;;;1935   	temp_ip[2]= ETH_TRAP4_IP_3;
000ec8  70a1              STRB     r1,[r4,#2]
;;;1936   	temp_ip[3]= ETH_TRAP4_IP_4;
000eca  70e2              STRB     r2,[r4,#3]
;;;1937   	snmp_trap (temp_ip, 6, 3, obj);
000ecc  4b18              LDR      r3,|L1.3888|
000ece  2203              MOVS     r2,#3
000ed0  2106              MOVS     r1,#6
000ed2  4813              LDR      r0,|L1.3872|
000ed4  f7fffffe          BL       snmp_trap
                  |L1.3800|
;;;1938   	}
;;;1939   
;;;1940   if((ETH_TRAP5_IP_1!=255)&&(ETH_TRAP5_IP_2!=255)&&(ETH_TRAP5_IP_3!=255)&&(ETH_TRAP5_IP_4!=255))
000ed8  4822              LDR      r0,|L1.3940|
000eda  f9b02000          LDRSH    r2,[r0,#0]  ; ETH_TRAP5_IP_1
000ede  2aff              CMP      r2,#0xff
000ee0  d01a              BEQ      |L1.3864|
000ee2  4821              LDR      r0,|L1.3944|
000ee4  f9b01000          LDRSH    r1,[r0,#0]  ; ETH_TRAP5_IP_2
000ee8  29ff              CMP      r1,#0xff
000eea  d015              BEQ      |L1.3864|
000eec  481f              LDR      r0,|L1.3948|
000eee  f9b00000          LDRSH    r0,[r0,#0]  ; ETH_TRAP5_IP_3
000ef2  28ff              CMP      r0,#0xff
000ef4  d010              BEQ      |L1.3864|
000ef6  4b1e              LDR      r3,|L1.3952|
000ef8  f9b33000          LDRSH    r3,[r3,#0]  ; ETH_TRAP5_IP_4
000efc  2bff              CMP      r3,#0xff
000efe  d00b              BEQ      |L1.3864|
;;;1941   	{
;;;1942   	temp_ip[0]= ETH_TRAP5_IP_1;
000f00  7022              STRB     r2,[r4,#0]
;;;1943   	temp_ip[1]= ETH_TRAP5_IP_2;
000f02  7061              STRB     r1,[r4,#1]
;;;1944   	temp_ip[2]= ETH_TRAP5_IP_3;
000f04  70a0              STRB     r0,[r4,#2]
;;;1945   	temp_ip[3]= ETH_TRAP5_IP_4;
000f06  70e3              STRB     r3,[r4,#3]
;;;1946   	snmp_trap (temp_ip, 6, 3, obj);
000f08  e8bd41f0          POP      {r4-r8,lr}
000f0c  2203              MOVS     r2,#3
000f0e  4b08              LDR      r3,|L1.3888|
000f10  2106              MOVS     r1,#6
000f12  4803              LDR      r0,|L1.3872|
000f14  f7ffbffe          B.W      snmp_trap
                  |L1.3864|
;;;1947   	}			
;;;1948   }
000f18  e8bd81f0          POP      {r4-r8,pc}
;;;1949   
                          ENDP

                  |L1.3868|
                          DCD      ETH_TRAP1_IP_1
                  |L1.3872|
                          DCD      ||.data||+0xbc
                  |L1.3876|
                          DCD      ETH_TRAP1_IP_2
                  |L1.3880|
                          DCD      ETH_TRAP1_IP_3
                  |L1.3884|
                          DCD      ETH_TRAP1_IP_4
                  |L1.3888|
                          DCD      ||area_number.20||+0x252
                  |L1.3892|
                          DCD      ETH_TRAP2_IP_1
                  |L1.3896|
                          DCD      ETH_TRAP2_IP_2
                  |L1.3900|
                          DCD      ETH_TRAP2_IP_3
                  |L1.3904|
                          DCD      ETH_TRAP2_IP_4
                  |L1.3908|
                          DCD      ETH_TRAP3_IP_1
                  |L1.3912|
                          DCD      ETH_TRAP3_IP_2
                  |L1.3916|
                          DCD      ETH_TRAP3_IP_3
                  |L1.3920|
                          DCD      ETH_TRAP3_IP_4
                  |L1.3924|
                          DCD      ETH_TRAP4_IP_1
                  |L1.3928|
                          DCD      ETH_TRAP4_IP_2
                  |L1.3932|
                          DCD      ETH_TRAP4_IP_3
                  |L1.3936|
                          DCD      ETH_TRAP4_IP_4
                  |L1.3940|
                          DCD      ETH_TRAP5_IP_1
                  |L1.3944|
                          DCD      ETH_TRAP5_IP_2
                  |L1.3948|
                          DCD      ETH_TRAP5_IP_3
                  |L1.3952|
                          DCD      ETH_TRAP5_IP_4

                          AREA ||area_number.2||, CODE, READONLY, ALIGN=2

                          EXPORTAS ||area_number.2||, ||.text||
                  snmp_sernum_write PROC
;;;1950   //-----------------------------------------------
;;;1951   void snmp_klimat_settings_box_alarm_write(int mode)
000000  b510              PUSH     {r4,lr}
;;;1952   {
;;;1953   if(mode==MIB_WRITE)
000002  2801              CMP      r0,#1
;;;1954   	{
;;;1955        lc640_write_int(EE_TBOXMAX,snmp_klimat_settings_box_alarm);
000004  d10c              BNE      |L2.32|
000006  4c07              LDR      r4,|L2.36|
000008  f44f709f          MOV      r0,#0x13e
00000c  6861              LDR      r1,[r4,#4]  ; snmp_sernum
00000e  f7fffffe          BL       lc640_write_long
;;;1956   	}
;;;1957   }
000012  6861              LDR      r1,[r4,#4]  ; snmp_sernum
000014  e8bd4010          POP      {r4,lr}
000018  f44f70a2          MOV      r0,#0x144
00001c  f7ffbffe          B.W      lc640_write_long
                  |L2.32|
000020  bd10              POP      {r4,pc}
;;;1958   //-----------------------------------------------
                          ENDP

000022  0000              DCW      0x0000
                  |L2.36|
                          DCD      ||.data||+0x80

                          AREA ||area_number.3||, CODE, READONLY, ALIGN=1

                          EXPORTAS ||area_number.3||, ||.text||
                  snmp_main_bps_write PROC
;;;1950   //-----------------------------------------------
;;;1951   void snmp_klimat_settings_box_alarm_write(int mode)
000000  4770              BX       lr
;;;1952   {
;;;1953   if(mode==MIB_WRITE)
;;;1954   	{
;;;1955        lc640_write_int(EE_TBOXMAX,snmp_klimat_settings_box_alarm);
;;;1956   	}
;;;1957   }
;;;1958   //-----------------------------------------------
                          ENDP


                          AREA ||area_number.4||, CODE, READONLY, ALIGN=1

                          EXPORTAS ||area_number.4||, ||.text||
                  snmp_max_current_koef_write PROC
;;;1950   //-----------------------------------------------
;;;1951   void snmp_klimat_settings_box_alarm_write(int mode)
000000  4770              BX       lr
;;;1952   {
;;;1953   if(mode==MIB_WRITE)
;;;1954   	{
;;;1955        lc640_write_int(EE_TBOXMAX,snmp_klimat_settings_box_alarm);
;;;1956   	}
;;;1957   }
;;;1958   //-----------------------------------------------
                          ENDP


                          AREA ||area_number.5||, CODE, READONLY, ALIGN=1

                          EXPORTAS ||area_number.5||, ||.text||
                  snmp_up_charge_koef_write PROC
;;;1950   //-----------------------------------------------
;;;1951   void snmp_klimat_settings_box_alarm_write(int mode)
000000  4770              BX       lr
;;;1952   {
;;;1953   if(mode==MIB_WRITE)
;;;1954   	{
;;;1955        lc640_write_int(EE_TBOXMAX,snmp_klimat_settings_box_alarm);
;;;1956   	}
;;;1957   }
;;;1958   //-----------------------------------------------
                          ENDP


                          AREA ||area_number.6||, CODE, READONLY, ALIGN=1

                          EXPORTAS ||area_number.6||, ||.text||
                  snmp_max_temperature_write PROC
;;;1950   //-----------------------------------------------
;;;1951   void snmp_klimat_settings_box_alarm_write(int mode)
000000  4770              BX       lr
;;;1952   {
;;;1953   if(mode==MIB_WRITE)
;;;1954   	{
;;;1955        lc640_write_int(EE_TBOXMAX,snmp_klimat_settings_box_alarm);
;;;1956   	}
;;;1957   }
;;;1958   //-----------------------------------------------
                          ENDP


                          AREA ||area_number.7||, CODE, READONLY, ALIGN=2

                          EXPORTAS ||area_number.7||, ||.text||
                  datatime2str PROC
;;;1950   //-----------------------------------------------
;;;1951   void snmp_klimat_settings_box_alarm_write(int mode)
000000  e92d4ff0          PUSH     {r4-r11,lr}
;;;1952   {
;;;1953   if(mode==MIB_WRITE)
;;;1954   	{
;;;1955        lc640_write_int(EE_TBOXMAX,snmp_klimat_settings_box_alarm);
000004  b085              SUB      sp,sp,#0x14
000006  4606              MOV      r6,r0
000008  e9dd870e          LDRD     r8,r7,[sp,#0x38]
00000c  468b              MOV      r11,r1
00000e  4692              MOV      r10,r2
;;;1956   	}
;;;1957   }
000010  4699              MOV      r9,r3
000012  f04f0214          MOV      r2,#0x14
000016  a127              ADR      r1,|L7.180|
000018  4668              MOV      r0,sp
00001a  f7fffffe          BL       __aeabi_memcpy4
00001e  f04f040a          MOV      r4,#0xa
000022  fbb6f5f4          UDIV     r5,r6,r4
000026  fb046015          MLS      r0,r4,r5,r6
00002a  f1000030          ADD      r0,r0,#0x30
00002e  f88d0001          STRB     r0,[sp,#1]
000032  f1050530          ADD      r5,r5,#0x30
000036  f88d5000          STRB     r5,[sp,#0]
00003a  4825              LDR      r0,|L7.208|
00003c  eb00008b          ADD      r0,r0,r11,LSL #2
000040  8801              LDRH     r1,[r0,#0]
000042  f8ad1003          STRH     r1,[sp,#3]
000046  7880              LDRB     r0,[r0,#2]
000048  f88d0005          STRB     r0,[sp,#5]
00004c  fbbaf0f4          UDIV     r0,r10,r4
000050  fb04a110          MLS      r1,r4,r0,r10
000054  f1010130          ADD      r1,r1,#0x30
000058  f88d1008          STRB     r1,[sp,#8]
00005c  f1000030          ADD      r0,r0,#0x30
000060  f88d0007          STRB     r0,[sp,#7]
000064  fbb9f0f4          UDIV     r0,r9,r4
000068  fb049110          MLS      r1,r4,r0,r9
00006c  f1010130          ADD      r1,r1,#0x30
000070  f88d100c          STRB     r1,[sp,#0xc]
000074  f1000030          ADD      r0,r0,#0x30
000078  f88d000b          STRB     r0,[sp,#0xb]
00007c  fbb8f0f4          UDIV     r0,r8,r4
000080  fb048110          MLS      r1,r4,r0,r8
000084  f1010130          ADD      r1,r1,#0x30
000088  f88d100f          STRB     r1,[sp,#0xf]
00008c  f1000030          ADD      r0,r0,#0x30
000090  f88d000e          STRB     r0,[sp,#0xe]
000094  fbb7f0f4          UDIV     r0,r7,r4
000098  fb047110          MLS      r1,r4,r0,r7
00009c  f1010130          ADD      r1,r1,#0x30
0000a0  f88d1012          STRB     r1,[sp,#0x12]
0000a4  f1000030          ADD      r0,r0,#0x30
0000a8  f88d0011          STRB     r0,[sp,#0x11]
0000ac  4668              MOV      r0,sp
0000ae  b005              ADD      sp,sp,#0x14
0000b0  e8bd8ff0          POP      {r4-r11,pc}
;;;1958   //-----------------------------------------------
                          ENDP

                  |L7.180|
0000b4  30302fff          DCB      "00/",255,237,226,"/00  00:00:00       ",0
0000b8  ede22f30
0000bc  30202030
0000c0  303a3030
0000c4  3a303020
0000c8  20202020
0000cc  202000  
0000cf  00                DCB      0
                  |L7.208|
                          DCD      sm_mont

                          AREA ||area_number.8||, CODE, READONLY, ALIGN=2

                          EXPORTAS ||area_number.8||, ||.text||
                  event2snmp PROC
;;;1950   //-----------------------------------------------
;;;1951   void snmp_klimat_settings_box_alarm_write(int mode)
000000  e92d47f0          PUSH     {r4-r10,lr}
;;;1952   {
;;;1953   if(mode==MIB_WRITE)
;;;1954   	{
;;;1955        lc640_write_int(EE_TBOXMAX,snmp_klimat_settings_box_alarm);
000004  b088              SUB      sp,sp,#0x20
000006  4606              MOV      r6,r0
000008  48ff              LDR      r0,|L8.1032|
00000a  f04f024e          MOV      r2,#0x4e
00000e  eb0014c6          ADD      r4,r0,r6,LSL #7
;;;1956   	}
;;;1957   }
000012  49fe              LDR      r1,|L8.1036|
000014  4620              MOV      r0,r4
000016  f7fffffe          BL       __aeabi_memcpy
00001a  f44f6060          MOV      r0,#0xe00
00001e  f7fffffe          BL       lc640_read_int
000022  4272              RSBS     r2,r6,#0
000024  2140              MOVS     r1,#0x40
000026  f7fffffe          BL       ptr_carry
00002a  ea4f1040          LSL      r0,r0,#5
00002e  f5006080          ADD      r0,r0,#0x400
000032  4605              MOV      r5,r0
000034  a907              ADD      r1,sp,#0x1c
000036  4628              MOV      r0,r5
000038  f7fffffe          BL       lc640_read_long_ptr
00003c  a902              ADD      r1,sp,#8
00003e  1d28              ADDS     r0,r5,#4
000040  f7fffffe          BL       lc640_read_long_ptr
000044  a906              ADD      r1,sp,#0x18
000046  f1050008          ADD      r0,r5,#8
00004a  f7fffffe          BL       lc640_read_long_ptr
00004e  a905              ADD      r1,sp,#0x14
000050  f105000c          ADD      r0,r5,#0xc
000054  f7fffffe          BL       lc640_read_long_ptr
000058  a904              ADD      r1,sp,#0x10
00005a  f1050010          ADD      r0,r5,#0x10
00005e  f7fffffe          BL       lc640_read_long_ptr
000062  a903              ADD      r1,sp,#0xc
000064  f1050014          ADD      r0,r5,#0x14
000068  f7fffffe          BL       lc640_read_long_ptr
00006c  f89d001c          LDRB     r0,[sp,#0x1c]
000070  f1040528          ADD      r5,r4,#0x28
000074  2855              CMP      r0,#0x55
000076  d052              BEQ      |L8.286|
000078  2720              MOVS     r7,#0x20
00007a  f04f0840          MOV      r8,#0x40
00007e  2850              CMP      r0,#0x50
000080  d076              BEQ      |L8.368|
000082  49e1              LDR      r1,|L8.1032|
000084  2842              CMP      r0,#0x42
000086  eb0119c6          ADD      r9,r1,r6,LSL #7
00008a  46ca              MOV      r10,r9
00008c  f1090929          ADD      r9,r9,#0x29
000090  f10a0a15          ADD      r10,r10,#0x15
000094  d06b              BEQ      |L8.366|
000096  2853              CMP      r0,#0x53
000098  d165              BNE      |L8.358|
00009a  a0dd              ADR      r0,|L8.1040|
00009c  6801              LDR      r1,[r0,#0]
00009e  6021              STR      r1,[r4,#0]
0000a0  8880              LDRH     r0,[r0,#4]
0000a2  80a0              STRH     r0,[r4,#4]
0000a4  f89d001d          LDRB     r0,[sp,#0x1d]
0000a8  f1000031          ADD      r0,r0,#0x31
0000ac  7160              STRB     r0,[r4,#5]
0000ae  f1040007          ADD      r0,r4,#7
0000b2  f04f020e          MOV      r2,#0xe
0000b6  a1d9              ADR      r1,|L8.1052|
0000b8  f7fffffe          BL       __aeabi_memcpy
0000bc  f89d0016          LDRB     r0,[sp,#0x16]
0000c0  f89d1015          LDRB     r1,[sp,#0x15]
0000c4  e9cd1000          STRD     r1,r0,[sp,#0]
0000c8  f89d3014          LDRB     r3,[sp,#0x14]
0000cc  f89d2018          LDRB     r2,[sp,#0x18]
0000d0  f89d1019          LDRB     r1,[sp,#0x19]
0000d4  f89d001a          LDRB     r0,[sp,#0x1a]
0000d8  f7fffffe          BL       datatime2str
0000dc  4601              MOV      r1,r0
0000de  2213              MOVS     r2,#0x13
0000e0  4650              MOV      r0,r10
0000e2  f7fffffe          BL       __aeabi_memcpy
0000e6  f89d001e          LDRB     r0,[sp,#0x1e]
0000ea  284c              CMP      r0,#0x4c
0000ec  d07e              BEQ      |L8.492|
0000ee  2854              CMP      r0,#0x54
0000f0  d07d              BEQ      |L8.494|
0000f2  2855              CMP      r0,#0x55
0000f4  d07c              BEQ      |L8.496|
0000f6  2875              CMP      r0,#0x75
0000f8  d07b              BEQ      |L8.498|
0000fa  a0cc              ADR      r0,|L8.1068|
0000fc  6801              LDR      r1,[r0,#0]
0000fe  f8c41029          STR      r1,[r4,#0x29]
000102  8880              LDRH     r0,[r0,#4]
000104  f8a4002d          STRH     r0,[r4,#0x2d]
000108  f04f00ff          MOV      r0,#0xff
00010c  f884002f          STRB     r0,[r4,#0x2f]
000110  f04f0530          MOV      r5,#0x30
                  |L8.276|
000114  f89d0010          LDRB     r0,[sp,#0x10]
000118  2841              CMP      r0,#0x41
00011a  d06b              BEQ      |L8.500|
00011c  e2d2              B        |L8.1732|
                  |L8.286|
00011e  f89d001e          LDRB     r0,[sp,#0x1e]
000122  2852              CMP      r0,#0x52
000124  d11f              BNE      |L8.358|
000126  2232              MOVS     r2,#0x32
000128  a1c3              ADR      r1,|L8.1080|
00012a  4620              MOV      r0,r4
00012c  f7fffffe          BL       __aeabi_memcpy
000130  f89d0016          LDRB     r0,[sp,#0x16]
000134  f89d1015          LDRB     r1,[sp,#0x15]
000138  e9cd1000          STRD     r1,r0,[sp,#0]
00013c  f89d3014          LDRB     r3,[sp,#0x14]
000140  f89d2018          LDRB     r2,[sp,#0x18]
000144  f89d1019          LDRB     r1,[sp,#0x19]
000148  f89d001a          LDRB     r0,[sp,#0x1a]
00014c  f7fffffe          BL       datatime2str
000150  4601              MOV      r1,r0
000152  f1040011          ADD      r0,r4,#0x11
000156  2214              MOVS     r2,#0x14
000158  f7fffffe          BL       __aeabi_memcpy
00015c  2214              MOVS     r2,#0x14
00015e  a1c4              ADR      r1,|L8.1136|
000160  4628              MOV      r0,r5
000162  f7fffffe          BL       __aeabi_memcpy
                  |L8.358|
000166  b008              ADD      sp,sp,#0x20
000168  e8bd87f0          POP      {r4-r10,pc}
00016c  e000              B        |L8.368|
                  |L8.366|
00016e  e054              B        |L8.538|
                  |L8.368|
000170  2217              MOVS     r2,#0x17
000172  a1c5              ADR      r1,|L8.1160|
000174  4620              MOV      r0,r4
000176  f7fffffe          BL       __aeabi_memcpy
00017a  f89d0016          LDRB     r0,[sp,#0x16]
00017e  f89d1015          LDRB     r1,[sp,#0x15]
000182  e9cd1000          STRD     r1,r0,[sp,#0]
000186  f89d3014          LDRB     r3,[sp,#0x14]
00018a  f89d2018          LDRB     r2,[sp,#0x18]
00018e  f89d1019          LDRB     r1,[sp,#0x19]
000192  f89d001a          LDRB     r0,[sp,#0x1a]
000196  f7fffffe          BL       datatime2str
00019a  4601              MOV      r1,r0
00019c  f1040017          ADD      r0,r4,#0x17
0001a0  2213              MOVS     r2,#0x13
0001a2  f7fffffe          BL       __aeabi_memcpy
0001a6  f884802a          STRB     r8,[r4,#0x2a]
0001aa  4897              LDR      r0,|L8.1032|
0001ac  f89d2010          LDRB     r2,[sp,#0x10]
0001b0  eb0010c6          ADD      r0,r0,r6,LSL #7
0001b4  302b              ADDS     r0,r0,#0x2b
0001b6  2a41              CMP      r2,#0x41
0001b8  d103              BNE      |L8.450|
0001ba  f89d1011          LDRB     r1,[sp,#0x11]
0001be  2941              CMP      r1,#0x41
0001c0  d026              BEQ      |L8.528|
                  |L8.450|
0001c2  a0b8              ADR      r0,|L8.1188|
0001c4  6801              LDR      r1,[r0,#0]
0001c6  f8c4102b          STR      r1,[r4,#0x2b]
0001ca  6841              LDR      r1,[r0,#4]
0001cc  f8c4102f          STR      r1,[r4,#0x2f]
0001d0  8900              LDRH     r0,[r0,#8]
0001d2  f8a40033          STRH     r0,[r4,#0x33]
0001d6  f8847035          STRB     r7,[r4,#0x35]
0001da  f89d000e          LDRB     r0,[sp,#0xe]
0001de  f89d100d          LDRB     r1,[sp,#0xd]
0001e2  e9cd1000          STRD     r1,r0,[sp,#0]
0001e6  f89d300c          LDRB     r3,[sp,#0xc]
0001ea  e004              B        |L8.502|
                  |L8.492|
0001ec  e241              B        |L8.1650|
                  |L8.494|
0001ee  e248              B        |L8.1666|
                  |L8.496|
0001f0  e254              B        |L8.1692|
                  |L8.498|
0001f2  e25b              B        |L8.1708|
                  |L8.500|
0001f4  e262              B        |L8.1724|
                  |L8.502|
0001f6  f89d1011          LDRB     r1,[sp,#0x11]
0001fa  f89d0012          LDRB     r0,[sp,#0x12]
0001fe  f7fffffe          BL       datatime2str
000202  4601              MOV      r1,r0
000204  f1040036          ADD      r0,r4,#0x36
000208  2213              MOVS     r2,#0x13
00020a  f7fffffe          BL       __aeabi_memcpy
                  |L8.526|
00020e  e7aa              B        |L8.358|
                  |L8.528|
000210  220d              MOVS     r2,#0xd
000212  a1a8              ADR      r1,|L8.1204|
000214  f7fffffe          BL       __aeabi_memcpy
000218  e7a5              B        |L8.358|
                  |L8.538|
00021a  f04f0500          MOV      r5,#0
00021e  f89d001e          LDRB     r0,[sp,#0x1e]
000222  2843              CMP      r0,#0x43
000224  d14e              BNE      |L8.708|
000226  2215              MOVS     r2,#0x15
000228  a1a6              ADR      r1,|L8.1220|
00022a  4620              MOV      r0,r4
00022c  f7fffffe          BL       __aeabi_memcpy
000230  f89d0016          LDRB     r0,[sp,#0x16]
000234  f89d1015          LDRB     r1,[sp,#0x15]
000238  e9cd1000          STRD     r1,r0,[sp,#0]
00023c  f89d3014          LDRB     r3,[sp,#0x14]
000240  f89d2018          LDRB     r2,[sp,#0x18]
000244  f89d1019          LDRB     r1,[sp,#0x19]
000248  f89d001a          LDRB     r0,[sp,#0x1a]
00024c  f7fffffe          BL       datatime2str
000250  4601              MOV      r1,r0
000252  2213              MOVS     r2,#0x13
000254  4650              MOV      r0,r10
000256  f7fffffe          BL       __aeabi_memcpy
00025a  f8848028          STRB     r8,[r4,#0x28]
00025e  2216              MOVS     r2,#0x16
000260  a19e              ADR      r1,|L8.1244|
000262  4648              MOV      r0,r9
000264  f7fffffe          BL       __aeabi_memcpy
000268  4867              LDR      r0,|L8.1032|
00026a  f89d2010          LDRB     r2,[sp,#0x10]
00026e  eb0010c6          ADD      r0,r0,r6,LSL #7
000272  303f              ADDS     r0,r0,#0x3f
000274  2a41              CMP      r2,#0x41
000276  d103              BNE      |L8.640|
000278  f89d1011          LDRB     r1,[sp,#0x11]
00027c  2941              CMP      r1,#0x41
00027e  d026              BEQ      |L8.718|
                  |L8.640|
000280  a088              ADR      r0,|L8.1188|
000282  6801              LDR      r1,[r0,#0]
000284  f8c4103f          STR      r1,[r4,#0x3f]
000288  6841              LDR      r1,[r0,#4]
00028a  f8c41043          STR      r1,[r4,#0x43]
00028e  8900              LDRH     r0,[r0,#8]
000290  f8a40047          STRH     r0,[r4,#0x47]
000294  f8847049          STRB     r7,[r4,#0x49]
000298  f04f054a          MOV      r5,#0x4a
00029c  f89d000e          LDRB     r0,[sp,#0xe]
0002a0  f89d100d          LDRB     r1,[sp,#0xd]
0002a4  e9cd1000          STRD     r1,r0,[sp,#0]
0002a8  f89d300c          LDRB     r3,[sp,#0xc]
0002ac  f89d1011          LDRB     r1,[sp,#0x11]
0002b0  f89d0012          LDRB     r0,[sp,#0x12]
0002b4  f7fffffe          BL       datatime2str
0002b8  4601              MOV      r1,r0
0002ba  f104004a          ADD      r0,r4,#0x4a
0002be  2213              MOVS     r2,#0x13
0002c0  f7fffffe          BL       __aeabi_memcpy
                  |L8.708|
0002c4  f89d001e          LDRB     r0,[sp,#0x1e]
0002c8  285a              CMP      r0,#0x5a
0002ca  d007              BEQ      |L8.732|
0002cc  e053              B        |L8.886|
                  |L8.718|
0002ce  220d              MOVS     r2,#0xd
0002d0  a178              ADR      r1,|L8.1204|
0002d2  f7fffffe          BL       __aeabi_memcpy
0002d6  f04f054c          MOV      r5,#0x4c
0002da  e7f3              B        |L8.708|
                  |L8.732|
0002dc  1960              ADDS     r0,r4,r5
0002de  2220              MOVS     r2,#0x20
0002e0  a184              ADR      r1,|L8.1268|
0002e2  f7fffffe          BL       __aeabi_memcpy
0002e6  f1050520          ADD      r5,r5,#0x20
0002ea  b2ed              UXTB     r5,r5
0002ec  f89d0016          LDRB     r0,[sp,#0x16]
0002f0  f89d1015          LDRB     r1,[sp,#0x15]
0002f4  e9cd1000          STRD     r1,r0,[sp,#0]
0002f8  f89d3014          LDRB     r3,[sp,#0x14]
0002fc  f89d2018          LDRB     r2,[sp,#0x18]
000300  f89d1019          LDRB     r1,[sp,#0x19]
000304  f89d001a          LDRB     r0,[sp,#0x1a]
000308  f7fffffe          BL       datatime2str
00030c  4601              MOV      r1,r0
00030e  1960              ADDS     r0,r4,r5
000310  2213              MOVS     r2,#0x13
000312  f7fffffe          BL       __aeabi_memcpy
000316  f1050513          ADD      r5,r5,#0x13
00031a  b2e8              UXTB     r0,r5
00031c  f8048000          STRB     r8,[r4,r0]
000320  f1000001          ADD      r0,r0,#1
000324  b2c5              UXTB     r5,r0
000326  f89d2010          LDRB     r2,[sp,#0x10]
00032a  2a41              CMP      r2,#0x41
00032c  d103              BNE      |L8.822|
00032e  f89d0011          LDRB     r0,[sp,#0x11]
000332  2841              CMP      r0,#0x41
000334  d04e              BEQ      |L8.980|
                  |L8.822|
000336  a178              ADR      r1,|L8.1304|
000338  eb040005          ADD      r0,r4,r5
00033c  680b              LDR      r3,[r1,#0]
00033e  6003              STR      r3,[r0,#0]
000340  684b              LDR      r3,[r1,#4]
000342  6043              STR      r3,[r0,#4]
000344  8909              LDRH     r1,[r1,#8]
000346  8101              STRH     r1,[r0,#8]
000348  7287              STRB     r7,[r0,#0xa]
00034a  f105050b          ADD      r5,r5,#0xb
00034e  b2ed              UXTB     r5,r5
000350  f89d000e          LDRB     r0,[sp,#0xe]
000354  f89d100d          LDRB     r1,[sp,#0xd]
000358  e9cd1000          STRD     r1,r0,[sp,#0]
00035c  f89d300c          LDRB     r3,[sp,#0xc]
000360  f89d1011          LDRB     r1,[sp,#0x11]
000364  f89d0012          LDRB     r0,[sp,#0x12]
000368  f7fffffe          BL       datatime2str
00036c  4601              MOV      r1,r0
00036e  1960              ADDS     r0,r4,r5
000370  2213              MOVS     r2,#0x13
000372  f7fffffe          BL       __aeabi_memcpy
                  |L8.886|
000376  f89d001e          LDRB     r0,[sp,#0x1e]
00037a  284b              CMP      r0,#0x4b
00037c  f47faf47          BNE      |L8.526|
000380  1960              ADDS     r0,r4,r5
000382  221d              MOVS     r2,#0x1d
000384  a168              ADR      r1,|L8.1320|
000386  f7fffffe          BL       __aeabi_memcpy
00038a  f105051d          ADD      r5,r5,#0x1d
00038e  b2ed              UXTB     r5,r5
000390  f89d0016          LDRB     r0,[sp,#0x16]
000394  f89d1015          LDRB     r1,[sp,#0x15]
000398  e9cd1000          STRD     r1,r0,[sp,#0]
00039c  f89d3014          LDRB     r3,[sp,#0x14]
0003a0  f89d2018          LDRB     r2,[sp,#0x18]
0003a4  f89d1019          LDRB     r1,[sp,#0x19]
0003a8  f89d001a          LDRB     r0,[sp,#0x1a]
0003ac  f7fffffe          BL       datatime2str
0003b0  4601              MOV      r1,r0
0003b2  1960              ADDS     r0,r4,r5
0003b4  2213              MOVS     r2,#0x13
0003b6  f7fffffe          BL       __aeabi_memcpy
0003ba  f1050513          ADD      r5,r5,#0x13
0003be  b2e8              UXTB     r0,r5
0003c0  f8048000          STRB     r8,[r4,r0]
0003c4  f1000001          ADD      r0,r0,#1
0003c8  b2c1              UXTB     r1,r0
0003ca  f89d2010          LDRB     r2,[sp,#0x10]
0003ce  2a41              CMP      r2,#0x41
0003d0  d009              BEQ      |L8.998|
0003d2  e00c              B        |L8.1006|
                  |L8.980|
0003d4  1960              ADDS     r0,r4,r5
0003d6  220d              MOVS     r2,#0xd
0003d8  a15b              ADR      r1,|L8.1352|
0003da  f7fffffe          BL       __aeabi_memcpy
0003de  f105050d          ADD      r5,r5,#0xd
0003e2  b2ed              UXTB     r5,r5
0003e4  e7c7              B        |L8.886|
                  |L8.998|
0003e6  f89d0011          LDRB     r0,[sp,#0x11]
0003ea  2841              CMP      r0,#0x41
0003ec  d00a              BEQ      |L8.1028|
                  |L8.1006|
0003ee  a34a              ADR      r3,|L8.1304|
0003f0  eb040001          ADD      r0,r4,r1
0003f4  681d              LDR      r5,[r3,#0]
0003f6  6005              STR      r5,[r0,#0]
0003f8  685d              LDR      r5,[r3,#4]
0003fa  6045              STR      r5,[r0,#4]
0003fc  891b              LDRH     r3,[r3,#8]
0003fe  8103              STRH     r3,[r0,#8]
000400  7287              STRB     r7,[r0,#0xa]
000402  e0a9              B        |L8.1368|
                  |L8.1028|
000404  e0e6              B        |L8.1492|
000406  0000              DCW      0x0000
                  |L8.1032|
                          DCD      ||.data||+0x164
                  |L8.1036|
                          DCD      ||.constdata||
                  |L8.1040|
000410  c1cfd120          DCB      193,207,209," ",185,"      ",0
000414  b9202020
000418  20202000
                  |L8.1052|
00041c  202020c0          DCB      "   ",192,226,224,240,232,255,"!!!@  ",0
000420  e2e0f0e8
000424  ff212121
000428  40202000
                  |L8.1068|
00042c  4020f4e8          DCB      "@ ",244,232,227,237,255,"  ",0
000430  e3edff20
000434  2000    
000436  00                DCB      0
000437  00                DCB      0
                  |L8.1080|
000438  c2eaebfe          DCB      194,234,235,254,247,229,237,232,229," ",200,193,221,207,224
00043c  f7e5ede8
000440  e520c8c1
000444  ddcfe0  
000447  40202020          DCB      "@                                      ",0
00044b  20202020
00044f  20202020
000453  20202020
000457  20202020
00045b  20202020
00045f  20202020
000463  20202020
000467  20202020
00046b  20202000
00046f  00                DCB      0
                  |L8.1136|
000470  40202020          DCB      "@                   ",0
000474  20202020
000478  20202020
00047c  20202020
000480  20202020
000484  00      
000485  00                DCB      0
000486  00                DCB      0
000487  00                DCB      0
                  |L8.1160|
000488  c0e2e0f0          DCB      192,226,224,240,232,255," ",239,232,242,224,254,249,229,233
00048c  e8ff20ef
000490  e8f2e0fe
000494  f9e5e9  
000497  20f1e5f2          DCB      " ",241,229,242,232," @  ",0
00049b  e8204020
00049f  2000    
0004a1  00                DCB      0
0004a2  00                DCB      0
0004a3  00                DCB      0
                  |L8.1188|
0004a4  20f3f1f2          DCB      " ",243,241,242,240,224,237,229,237,224,"   ",0
0004a8  f0e0ede5
0004ac  ede02020
0004b0  2000    
0004b2  00                DCB      0
0004b3  00                DCB      0
                  |L8.1204|
0004b4  20ede520          DCB      " ",237,229," ",243,241,242,240,224,237,229,237,224,"  ",0
0004b8  f3f1f2f0
0004bc  e0ede5ed
0004c0  e0202000
                  |L8.1220|
0004c4  c1e0f2e0          DCB      193,224,242,224,240,229,255,".  ",192,226,224,240,232,255
0004c8  f0e5ff2e
0004cc  2020c0e2
0004d0  e0f0e8ff
0004d4  21212120          DCB      "!!! @  ",0
0004d8  40202000
                  |L8.1244|
0004dc  c1e0f2e0          DCB      193,224,242,224,240,229,255," ",237,229," ",238,225,237,224
0004e0  f0e5ff20
0004e4  ede520ee
0004e8  e1ede0  
0004eb  f0f3e6e5          DCB      240,243,230,229,237,224,", ",0
0004ef  ede02c20
0004f3  00      
                  |L8.1268|
0004f4  c1e0f2e0          DCB      193,224,242,224,240,229,255,".  ",194,251,240,224,226,237
0004f8  f0e5ff2e
0004fc  2020c2fb
000500  f0e0e2ed
000504  e8e2e0fe          DCB      232,226,224,254,249,232,233," ",231,224,240,255,228," @ "
000508  f9e8e920
00050c  e7e0f0ff
000510  e4204020
000514  2000              DCB      " ",0
000516  00                DCB      0
000517  00                DCB      0
                  |L8.1304|
000518  20e7e0e2          DCB      " ",231,224,226,229,240,248,229,237,"   ",0
00051c  e5f0f8e5
000520  ed202020
000524  00      
000525  00                DCB      0
000526  00                DCB      0
000527  00                DCB      0
                  |L8.1320|
000528  c1e0f2e0          DCB      193,224,242,224,240,229,255,".  ",202,238,237,242,240,238
00052c  f0e5ff2e
000530  2020caee
000534  edf2f0ee
000538  ebfc20e5          DCB      235,252," ",229,236,234,238,241,242,232," @  ",0
00053c  eceaeef1
000540  f2e82040
000544  202000  
000547  00                DCB      0
                  |L8.1352|
000548  20ede520          DCB      " ",237,229," ",231,224,226,229,240,248,229,237,"  ",0
00054c  e7e0e2e5
000550  f0f8e5ed
000554  202000  
000557  00                DCB      0
                  |L8.1368|
000558  f101010b          ADD      r1,r1,#0xb
00055c  b2cd              UXTB     r5,r1
00055e  f89d000e          LDRB     r0,[sp,#0xe]
000562  f89d100d          LDRB     r1,[sp,#0xd]
000566  e9cd1000          STRD     r1,r0,[sp,#0]
00056a  f89d300c          LDRB     r3,[sp,#0xc]
00056e  f89d1011          LDRB     r1,[sp,#0x11]
000572  f89d0012          LDRB     r0,[sp,#0x12]
000576  f7fffffe          BL       datatime2str
00057a  4601              MOV      r1,r0
00057c  442c              ADD      r4,r4,r5
00057e  2213              MOVS     r2,#0x13
000580  4620              MOV      r0,r4
000582  f7fffffe          BL       __aeabi_memcpy
000586  2227              MOVS     r2,#0x27
000588  a160              ADR      r1,|L8.1804|
00058a  4620              MOV      r0,r4
00058c  f7fffffe          BL       __aeabi_memcpy
000590  f89d001b          LDRB     r0,[sp,#0x1b]
000594  f89d1017          LDRB     r1,[sp,#0x17]
000598  eb002001          ADD      r0,r0,r1,LSL #8
00059c  b202              SXTH     r2,r0
00059e  f04f010a          MOV      r1,#0xa
0005a2  fb92f0f1          SDIV     r0,r2,r1
0005a6  fb012210          MLS      r2,r1,r0,r2
0005aa  f1020230          ADD      r2,r2,#0x30
0005ae  72a2              STRB     r2,[r4,#0xa]
0005b0  b200              SXTH     r0,r0
0005b2  fb90f2f1          SDIV     r2,r0,r1
0005b6  fb010012          MLS      r0,r1,r2,r0
0005ba  f1000030          ADD      r0,r0,#0x30
0005be  7220              STRB     r0,[r4,#8]
0005c0  b210              SXTH     r0,r2
0005c2  b170              CBZ      r0,|L8.1506|
0005c4  fb90f2f1          SDIV     r2,r0,r1
0005c8  fb010012          MLS      r0,r1,r2,r0
0005cc  f1000030          ADD      r0,r0,#0x30
0005d0  71e0              STRB     r0,[r4,#7]
0005d2  e007              B        |L8.1508|
                  |L8.1492|
0005d4  1860              ADDS     r0,r4,r1
0005d6  220d              MOVS     r2,#0xd
0005d8  f2af0194          ADR      r1,|L8.1352|
0005dc  f7fffffe          BL       __aeabi_memcpy
0005e0  e5c1              B        |L8.358|
                  |L8.1506|
0005e2  71e7              STRB     r7,[r4,#7]
                  |L8.1508|
0005e4  f89d000a          LDRB     r0,[sp,#0xa]
0005e8  f89d200b          LDRB     r2,[sp,#0xb]
0005ec  eb002002          ADD      r0,r0,r2,LSL #8
0005f0  b200              SXTH     r0,r0
0005f2  fb90f2f1          SDIV     r2,r0,r1
0005f6  fb010012          MLS      r0,r1,r2,r0
0005fa  f1000030          ADD      r0,r0,#0x30
0005fe  75a0              STRB     r0,[r4,#0x16]
000600  b210              SXTH     r0,r2
000602  fb90f2f1          SDIV     r2,r0,r1
000606  fb010012          MLS      r0,r1,r2,r0
00060a  f1000030          ADD      r0,r0,#0x30
00060e  7520              STRB     r0,[r4,#0x14]
000610  b210              SXTH     r0,r2
000612  b138              CBZ      r0,|L8.1572|
000614  fb90f2f1          SDIV     r2,r0,r1
000618  fb010012          MLS      r0,r1,r2,r0
00061c  f1000030          ADD      r0,r0,#0x30
000620  74e0              STRB     r0,[r4,#0x13]
000622  e000              B        |L8.1574|
                  |L8.1572|
000624  74e7              STRB     r7,[r4,#0x13]
                  |L8.1574|
000626  f89d0008          LDRB     r0,[sp,#8]
00062a  f89d2009          LDRB     r2,[sp,#9]
00062e  eb002002          ADD      r0,r0,r2,LSL #8
000632  b202              SXTH     r2,r0
000634  fb92f0f1          SDIV     r0,r2,r1
000638  fb012210          MLS      r2,r1,r0,r2
00063c  f1020230          ADD      r2,r2,#0x30
000640  f8842023          STRB     r2,[r4,#0x23]
000644  b200              SXTH     r0,r0
000646  fb90f2f1          SDIV     r2,r0,r1
00064a  fb010012          MLS      r0,r1,r2,r0
00064e  f1000030          ADD      r0,r0,#0x30
000652  f8840021          STRB     r0,[r4,#0x21]
000656  b210              SXTH     r0,r2
000658  b140              CBZ      r0,|L8.1644|
00065a  fb90f2f1          SDIV     r2,r0,r1
00065e  fb010012          MLS      r0,r1,r2,r0
000662  f1000030          ADD      r0,r0,#0x30
000666  f8840020          STRB     r0,[r4,#0x20]
00066a  e57c              B        |L8.358|
                  |L8.1644|
00066c  f8847020          STRB     r7,[r4,#0x20]
000670  e579              B        |L8.358|
                  |L8.1650|
000672  2214              MOVS     r2,#0x14
000674  a130              ADR      r1,|L8.1848|
000676  4628              MOV      r0,r5
000678  f7fffffe          BL       __aeabi_memcpy
00067c  f04f0541          MOV      r5,#0x41
000680  e548              B        |L8.276|
                  |L8.1666|
000682  a034              ADR      r0,|L8.1876|
000684  6801              LDR      r1,[r0,#0]
000686  f8c41029          STR      r1,[r4,#0x29]
00068a  6841              LDR      r1,[r0,#4]
00068c  f8c4102d          STR      r1,[r4,#0x2d]
000690  8900              LDRH     r0,[r0,#8]
000692  f8a40031          STRH     r0,[r4,#0x31]
000696  f04f0533          MOV      r5,#0x33
00069a  e53b              B        |L8.276|
                  |L8.1692|
00069c  2210              MOVS     r2,#0x10
00069e  a131              ADR      r1,|L8.1892|
0006a0  4648              MOV      r0,r9
0006a2  f7fffffe          BL       __aeabi_memcpy
0006a6  f04f0539          MOV      r5,#0x39
0006aa  e533              B        |L8.276|
                  |L8.1708|
0006ac  2210              MOVS     r2,#0x10
0006ae  a132              ADR      r1,|L8.1912|
0006b0  4648              MOV      r0,r9
0006b2  f7fffffe          BL       __aeabi_memcpy
0006b6  f04f0539          MOV      r5,#0x39
0006ba  e52b              B        |L8.276|
                  |L8.1724|
0006bc  f89d0011          LDRB     r0,[sp,#0x11]
0006c0  2841              CMP      r0,#0x41
0006c2  d01d              BEQ      |L8.1792|
                  |L8.1732|
0006c4  1960              ADDS     r0,r4,r5
0006c6  220d              MOVS     r2,#0xd
0006c8  a130              ADR      r1,|L8.1932|
0006ca  f7fffffe          BL       __aeabi_memcpy
0006ce  f105050d          ADD      r5,r5,#0xd
0006d2  b2ed              UXTB     r5,r5
0006d4  f89d000e          LDRB     r0,[sp,#0xe]
0006d8  f89d100d          LDRB     r1,[sp,#0xd]
0006dc  e9cd1000          STRD     r1,r0,[sp,#0]
0006e0  f89d300c          LDRB     r3,[sp,#0xc]
0006e4  f89d2010          LDRB     r2,[sp,#0x10]
0006e8  f89d1011          LDRB     r1,[sp,#0x11]
0006ec  f89d0012          LDRB     r0,[sp,#0x12]
0006f0  f7fffffe          BL       datatime2str
0006f4  4601              MOV      r1,r0
0006f6  1960              ADDS     r0,r4,r5
0006f8  2213              MOVS     r2,#0x13
0006fa  f7fffffe          BL       __aeabi_memcpy
0006fe  e532              B        |L8.358|
                  |L8.1792|
000700  1960              ADDS     r0,r4,r5
000702  220f              MOVS     r2,#0xf
000704  a125              ADR      r1,|L8.1948|
000706  f7fffffe          BL       __aeabi_memcpy
00070a  e52c              B        |L8.358|
;;;1958   //-----------------------------------------------
                          ENDP

                  |L8.1804|
00070c  2c2055ed          DCB      ", U",237,224,247,"   , ",194,", U",234,238,237,"   , ",194
000710  e0f72020
000714  202c20c2
000718  2c2055ea
00071c  eeed2020
000720  202c20c2
000724  2c2043e1          DCB      ", C",225,224,242,"    , ",192,"*",247," ",0
000728  e0f22020
00072c  20202c20
000730  c02af720
000734  00      
000735  00                DCB      0
000736  00                DCB      0
000737  00                DCB      0
                  |L8.1848|
000738  40eef2ea          DCB      "@",238,242,234,235,254,247,232,235,241,255,"           "
00073c  ebfef7e8
000740  ebf1ff20
000744  20202020
000748  20202020
00074c  2020    
00074e  202000            DCB      "  ",0
000751  00                DCB      0
000752  00                DCB      0
000753  00                DCB      0
                  |L8.1876|
000754  4020efe5          DCB      "@ ",239,229,240,229,227,240,229,226,"   ",0
000758  f0e5e3f0
00075c  e5e22020
000760  2000    
000762  00                DCB      0
000763  00                DCB      0
                  |L8.1892|
000764  4020e7e0          DCB      "@ ",231,224,226,251,248,229,237,238," U",226,251,245,"."
000768  e2fbf8e5
00076c  edee2055
000770  e2fbf52e
000774  202000            DCB      "  ",0
000777  00                DCB      0
                  |L8.1912|
000778  4020e7e0          DCB      "@ ",231,224,237,232,230,229,237,238," U",226,251,245,"."
00077c  ede8e6e5
000780  edee2055
000784  e2fbf52e
000788  202000            DCB      "  ",0
00078b  00                DCB      0
                  |L8.1932|
00078c  2c2020f3          DCB      ",  ",243,241,242,240,224,237,229,237,224,"   ",0
000790  f1f2f0e0
000794  ede5ede0
000798  20202000
                  |L8.1948|
00079c  2c20ede5          DCB      ", ",237,229," ",243,241,242,240,224,237,229,237,224,"  "
0007a0  20f3f1f2
0007a4  f0e0ede5
0007a8  ede02020
0007ac  00                DCB      0
0007ad  00                DCB      0
0007ae  00                DCB      0
0007af  00                DCB      0

                          AREA ||area_number.9||, CODE, READONLY, ALIGN=2

                          EXPORTAS ||area_number.9||, ||.text||
                  snmp_klimat_settings_box_alarm_write PROC
;;;1950   //-----------------------------------------------
;;;1951   void snmp_klimat_settings_box_alarm_write(int mode)
000000  2801              CMP      r0,#1
;;;1952   {
;;;1953   if(mode==MIB_WRITE)
000002  d105              BNE      |L9.16|
;;;1954   	{
;;;1955        lc640_write_int(EE_TBOXMAX,snmp_klimat_settings_box_alarm);
000004  4803              LDR      r0,|L9.20|
000006  f9b01066          LDRSH    r1,[r0,#0x66]  ; snmp_klimat_settings_box_alarm
00000a  20d0              MOVS     r0,#0xd0
00000c  f7ffbffe          B.W      lc640_write_int
                  |L9.16|
;;;1956   	}
;;;1957   }
000010  4770              BX       lr
;;;1958   //-----------------------------------------------
                          ENDP

000012  0000              DCW      0x0000
                  |L9.20|
                          DCD      ||.data||

                          AREA ||area_number.10||, CODE, READONLY, ALIGN=2

                          EXPORTAS ||area_number.10||, ||.text||
                  snmp_klimat_settings_vent_on_write PROC
;;;1950   //-----------------------------------------------
;;;1951   void snmp_klimat_settings_box_alarm_write(int mode)
000000  2801              CMP      r0,#1
;;;1952   {
;;;1953   if(mode==MIB_WRITE)
000002  d105              BNE      |L10.16|
;;;1954   	{
;;;1955        lc640_write_int(EE_TBOXMAX,snmp_klimat_settings_box_alarm);
000004  4803              LDR      r0,|L10.20|
000006  f9b01068          LDRSH    r1,[r0,#0x68]  ; snmp_klimat_settings_vent_on
00000a  20f4              MOVS     r0,#0xf4
00000c  f7ffbffe          B.W      lc640_write_int
                  |L10.16|
;;;1956   	}
;;;1957   }
000010  4770              BX       lr
;;;1958   //-----------------------------------------------
                          ENDP

000012  0000              DCW      0x0000
                  |L10.20|
                          DCD      ||.data||

                          AREA ||area_number.11||, CODE, READONLY, ALIGN=2

                          EXPORTAS ||area_number.11||, ||.text||
                  snmp_klimat_settings_vent_off_write PROC
;;;1950   //-----------------------------------------------
;;;1951   void snmp_klimat_settings_box_alarm_write(int mode)
000000  2801              CMP      r0,#1
;;;1952   {
;;;1953   if(mode==MIB_WRITE)
000002  d105              BNE      |L11.16|
;;;1954   	{
;;;1955        lc640_write_int(EE_TBOXMAX,snmp_klimat_settings_box_alarm);
000004  4803              LDR      r0,|L11.20|
000006  f9b0106a          LDRSH    r1,[r0,#0x6a]  ; snmp_klimat_settings_vent_off
00000a  20f6              MOVS     r0,#0xf6
00000c  f7ffbffe          B.W      lc640_write_int
                  |L11.16|
;;;1956   	}
;;;1957   }
000010  4770              BX       lr
;;;1958   //-----------------------------------------------
                          ENDP

000012  0000              DCW      0x0000
                  |L11.20|
                          DCD      ||.data||

                          AREA ||area_number.12||, CODE, READONLY, ALIGN=2

                          EXPORTAS ||area_number.12||, ||.text||
                  snmp_klimat_settings_warm_on_write PROC
;;;1950   //-----------------------------------------------
;;;1951   void snmp_klimat_settings_box_alarm_write(int mode)
000000  2801              CMP      r0,#1
;;;1952   {
;;;1953   if(mode==MIB_WRITE)
000002  d105              BNE      |L12.16|
;;;1954   	{
;;;1955        lc640_write_int(EE_TBOXMAX,snmp_klimat_settings_box_alarm);
000004  4803              LDR      r0,|L12.20|
000006  f9b0106c          LDRSH    r1,[r0,#0x6c]  ; snmp_klimat_settings_warm_on
00000a  20f8              MOVS     r0,#0xf8
00000c  f7ffbffe          B.W      lc640_write_int
                  |L12.16|
;;;1956   	}
;;;1957   }
000010  4770              BX       lr
;;;1958   //-----------------------------------------------
                          ENDP

000012  0000              DCW      0x0000
                  |L12.20|
                          DCD      ||.data||

                          AREA ||area_number.13||, CODE, READONLY, ALIGN=2

                          EXPORTAS ||area_number.13||, ||.text||
                  snmp_klimat_settings_warm_off_write PROC
;;;1950   //-----------------------------------------------
;;;1951   void snmp_klimat_settings_box_alarm_write(int mode)
000000  2801              CMP      r0,#1
;;;1952   {
;;;1953   if(mode==MIB_WRITE)
000002  d105              BNE      |L13.16|
;;;1954   	{
;;;1955        lc640_write_int(EE_TBOXMAX,snmp_klimat_settings_box_alarm);
000004  4803              LDR      r0,|L13.20|
000006  f9b0106e          LDRSH    r1,[r0,#0x6e]  ; snmp_klimat_settings_warm_off
00000a  20fa              MOVS     r0,#0xfa
00000c  f7ffbffe          B.W      lc640_write_int
                  |L13.16|
;;;1956   	}
;;;1957   }
000010  4770              BX       lr
;;;1958   //-----------------------------------------------
                          ENDP

000012  0000              DCW      0x0000
                  |L13.20|
                          DCD      ||.data||

                          AREA ||area_number.14||, CODE, READONLY, ALIGN=2

                          EXPORTAS ||area_number.14||, ||.text||
                  snmp_klimat_settings_load_on_write PROC
;;;1950   //-----------------------------------------------
;;;1951   void snmp_klimat_settings_box_alarm_write(int mode)
000000  2801              CMP      r0,#1
;;;1952   {
;;;1953   if(mode==MIB_WRITE)
000002  d105              BNE      |L14.16|
;;;1954   	{
;;;1955        lc640_write_int(EE_TBOXMAX,snmp_klimat_settings_box_alarm);
000004  4803              LDR      r0,|L14.20|
000006  f9b01070          LDRSH    r1,[r0,#0x70]  ; snmp_klimat_settings_load_on
00000a  20d8              MOVS     r0,#0xd8
00000c  f7ffbffe          B.W      lc640_write_int
                  |L14.16|
;;;1956   	}
;;;1957   }
000010  4770              BX       lr
;;;1958   //-----------------------------------------------
                          ENDP

000012  0000              DCW      0x0000
                  |L14.20|
                          DCD      ||.data||

                          AREA ||area_number.15||, CODE, READONLY, ALIGN=2

                          EXPORTAS ||area_number.15||, ||.text||
                  snmp_klimat_settings_load_off_write PROC
;;;1950   //-----------------------------------------------
;;;1951   void snmp_klimat_settings_box_alarm_write(int mode)
000000  2801              CMP      r0,#1
;;;1952   {
;;;1953   if(mode==MIB_WRITE)
000002  d105              BNE      |L15.16|
;;;1954   	{
;;;1955        lc640_write_int(EE_TBOXMAX,snmp_klimat_settings_box_alarm);
000004  4803              LDR      r0,|L15.20|
000006  f9b01072          LDRSH    r1,[r0,#0x72]  ; snmp_klimat_settings_load_off
00000a  20d6              MOVS     r0,#0xd6
00000c  f7ffbffe          B.W      lc640_write_int
                  |L15.16|
;;;1956   	}
;;;1957   }
000010  4770              BX       lr
;;;1958   //-----------------------------------------------
                          ENDP

000012  0000              DCW      0x0000
                  |L15.20|
                          DCD      ||.data||

                          AREA ||area_number.16||, CODE, READONLY, ALIGN=2

                          EXPORTAS ||area_number.16||, ||.text||
                  snmp_klimat_settings_batt_on_write PROC
;;;1950   //-----------------------------------------------
;;;1951   void snmp_klimat_settings_box_alarm_write(int mode)
000000  2801              CMP      r0,#1
;;;1952   {
;;;1953   if(mode==MIB_WRITE)
000002  d105              BNE      |L16.16|
;;;1954   	{
;;;1955        lc640_write_int(EE_TBOXMAX,snmp_klimat_settings_box_alarm);
000004  4803              LDR      r0,|L16.20|
000006  f9b01074          LDRSH    r1,[r0,#0x74]  ; snmp_klimat_settings_batt_on
00000a  20dc              MOVS     r0,#0xdc
00000c  f7ffbffe          B.W      lc640_write_int
                  |L16.16|
;;;1956   	}
;;;1957   }
000010  4770              BX       lr
;;;1958   //-----------------------------------------------
                          ENDP

000012  0000              DCW      0x0000
                  |L16.20|
                          DCD      ||.data||

                          AREA ||area_number.17||, CODE, READONLY, ALIGN=2

                          EXPORTAS ||area_number.17||, ||.text||
                  snmp_klimat_settings_batt_off_write PROC
;;;1950   //-----------------------------------------------
;;;1951   void snmp_klimat_settings_box_alarm_write(int mode)
000000  2801              CMP      r0,#1
;;;1952   {
;;;1953   if(mode==MIB_WRITE)
000002  d105              BNE      |L17.16|
;;;1954   	{
;;;1955        lc640_write_int(EE_TBOXMAX,snmp_klimat_settings_box_alarm);
000004  4803              LDR      r0,|L17.20|
000006  f9b01076          LDRSH    r1,[r0,#0x76]  ; snmp_klimat_settings_batt_off
00000a  20da              MOVS     r0,#0xda
00000c  f7ffbffe          B.W      lc640_write_int
                  |L17.16|
;;;1956   	}
;;;1957   }
000010  4770              BX       lr
;;;1958   //-----------------------------------------------
                          ENDP

000012  0000              DCW      0x0000
                  |L17.20|
                          DCD      ||.data||

                          AREA ||.bss||, DATA, NOINIT, ALIGN=0

                  snmp_community
                          %        10

                          AREA ||area_number.20||, DATA, NOINIT, ALIGN=1

                          EXPORTAS ||area_number.20||, ||.bss||
                  snmp_location
                          %        100
                  snmp_bps_number
                          %        16
                  snmp_bps_voltage
                          %        16
                  snmp_bps_current
                          %        16
                  snmp_bps_temperature
                          %        16
                  snmp_bps_stat
                          %        16
                  snmp_spc_trap_message
                          %        100
                  snmp_avt_number
                          %        12
                  snmp_avt_stat
                          %        12
                  snmp_sk_name
                          %        80
                  snmp_lakb_number
                          %        14
                  snmp_lakb_voltage
                          %        14
                  snmp_lakb_max_cell_voltage
                          %        14
                  snmp_lakb_min_cell_voltage
                          %        14
                  snmp_lakb_max_cell_temperature
                          %        14
                  snmp_lakb_min_cell_temperature
                          %        14
                  snmp_lakb_ch_curr
                          %        14
                  snmp_lakb_dsch_curr
                          %        14
                  snmp_lakb_rat_cap
                          %        14
                  snmp_lakb_soh
                          %        14
                  snmp_lakb_soc
                          %        14
                  snmp_lakb_cclv
                          %        14
                  snmp_lakb_rbt
                          %        14
                  snmp_lakb_flags1
                          %        14
                  snmp_lakb_flags2
                          %        14
                  obj
                          %        20

                          AREA ||area_number.21||, DATA, NOINIT, ALIGN=0

                          EXPORTAS ||area_number.21||, ||.bss||
                  snmp_lakb_damp1
                          %        1050

                          AREA ||area_number.22||, DATA, NOINIT, ALIGN=0

                          EXPORTAS ||area_number.22||, ||.bss||
                  snmp_lakb_damp2
                          %        100

                          AREA ||.constdata||, DATA, READONLY, ALIGN=2

000000  20202020          DCB      0x20,0x20,0x20,0x20
000004  20202020          DCB      0x20,0x20,0x20,0x20
000008  20202020          DCB      0x20,0x20,0x20,0x20
00000c  20202020          DCB      0x20,0x20,0x20,0x20
000010  20202020          DCB      0x20,0x20,0x20,0x20
000014  20202020          DCB      0x20,0x20,0x20,0x20
000018  20202020          DCB      0x20,0x20,0x20,0x20
00001c  20202020          DCB      0x20,0x20,0x20,0x20
000020  20202020          DCB      0x20,0x20,0x20,0x20
000024  20202020          DCB      0x20,0x20,0x20,0x20
000028  20202020          DCB      0x20,0x20,0x20,0x20
00002c  20202020          DCB      0x20,0x20,0x20,0x20
000030  20202020          DCB      0x20,0x20,0x20,0x20
000034  20202020          DCB      0x20,0x20,0x20,0x20
000038  20202020          DCB      0x20,0x20,0x20,0x20
00003c  20202020          DCB      0x20,0x20,0x20,0x20
000040  20202020          DCB      0x20,0x20,0x20,0x20
000044  20202020          DCB      0x20,0x20,0x20,0x20
000048  20202020          DCB      0x20,0x20,0x20,0x20
00004c  20202020          DCB      0x20,0x20,0x20,0x20
000050  00                DCB      0x00

                          AREA ||.data||, DATA, ALIGN=2

                  snmp_trap_send_i
000000  00                DCB      0x00
                  snmp_trap_send_ii
000001  00                DCB      0x00
                  snmp_numofbat
000002  0000              DCB      0x00,0x00
                  snmp_numofbps
000004  0000              DCB      0x00,0x00
                  snmp_numofinv
000006  0000              DCB      0x00,0x00
                  snmp_numofavt
000008  0000              DCB      0x00,0x00
                  snmp_numofdt
00000a  0000              DCB      0x00,0x00
                  snmp_numofsk
00000c  0000              DCB      0x00,0x00
                  snmp_numofevents
00000e  0000              DCB      0x00,0x00
                  snmp_mains_power_voltage
000010  0000              DCB      0x00,0x00
                  snmp_mains_power_frequency
000012  0000              DCB      0x00,0x00
                  snmp_mains_power_voltage_phaseA
000014  0000              DCB      0x00,0x00
                  snmp_mains_power_voltage_phaseB
000016  0000              DCB      0x00,0x00
                  snmp_mains_power_voltage_phaseC
000018  0000              DCB      0x00,0x00
                  snmp_load_voltage
00001a  0000              DCB      0x00,0x00
                  snmp_load_current
00001c  0000              DCB      0x00,0x00
                  snmp_spc_trap_value_0
00001e  0000              DCB      0x00,0x00
                  snmp_spc_trap_value_1
000020  0000              DCB      0x00,0x00
                  snmp_spc_trap_value_2
000022  0000              DCB      0x00,0x00
                  snmp_energy_vvod_phase_a
000024  0000              DCB      0x00,0x00
                  snmp_energy_vvod_phase_b
000026  0000              DCB      0x00,0x00
                  snmp_energy_vvod_phase_c
000028  0000              DCB      0x00,0x00
                  snmp_energy_pes_phase_a
00002a  0000              DCB      0x00,0x00
                  snmp_energy_pes_phase_b
00002c  0000              DCB      0x00,0x00
                  snmp_energy_pes_phase_c
00002e  0000              DCB      0x00,0x00
                  snmp_energy_current_energy
000030  0000              DCB      0x00,0x00
                  snmp_command
000032  0000              DCB      0x00,0x00
                  snmp_command_parametr
000034  0000              DCB      0x00,0x00
                  snmp_zv_en
000036  0000              DCB      0x00,0x00
                  snmp_alarm_auto_disable
000038  0000              DCB      0x00,0x00
                  snmp_bat_test_time
00003a  0000              DCB      0x00,0x00
                  snmp_u_max
00003c  0000              DCB      0x00,0x00
                  snmp_u_min
00003e  0000              DCB      0x00,0x00
                  snmp_u_0_grad
000040  0000              DCB      0x00,0x00
                  snmp_u_20_grad
000042  0000              DCB      0x00,0x00
                  snmp_u_sign
000044  0000              DCB      0x00,0x00
                  snmp_u_min_power
000046  0000              DCB      0x00,0x00
                  snmp_u_withouth_bat
000048  0000              DCB      0x00,0x00
                  snmp_control_current
00004a  0000              DCB      0x00,0x00
                  snmp_max_charge_current
00004c  0000              DCB      0x00,0x00
                  snmp_max_current
00004e  0000              DCB      0x00,0x00
                  snmp_min_current
000050  0000              DCB      0x00,0x00
                  snmp_uvz
000052  0000              DCB      0x00,0x00
                  snmp_powerup_psu_timeout
000054  0000              DCB      0x00,0x00
                  snmp_max_temperature
000056  0000              DCB      0x00,0x00
                  snmp_tsign_bat
000058  0000              DCB      0x00,0x00
                  snmp_tmax_bat
00005a  0000              DCB      0x00,0x00
                  snmp_tsign_bps
00005c  0000              DCB      0x00,0x00
                  snmp_tmax_bps
00005e  0000              DCB      0x00,0x00
                  snmp_bat_part_alarm
000060  0000              DCB      0x00,0x00
                  snmp_power_cnt_adress
000062  0000              DCB      0x00,0x00
                  snmp_klimat_box_temper
000064  0000              DCB      0x00,0x00
                  snmp_klimat_settings_box_alarm
000066  0000              DCB      0x00,0x00
                  snmp_klimat_settings_vent_on
000068  0000              DCB      0x00,0x00
                  snmp_klimat_settings_vent_off
00006a  0000              DCB      0x00,0x00
                  snmp_klimat_settings_warm_on
00006c  0000              DCB      0x00,0x00
                  snmp_klimat_settings_warm_off
00006e  0000              DCB      0x00,0x00
                  snmp_klimat_settings_load_on
000070  0000              DCB      0x00,0x00
                  snmp_klimat_settings_load_off
000072  0000              DCB      0x00,0x00
                  snmp_klimat_settings_batt_on
000074  0000              DCB      0x00,0x00
                  snmp_klimat_settings_batt_off
000076  0000              DCB      0x00,0x00
                  snmp_dt_ext
000078  0000              DCB      0x00,0x00
                  snmp_dt_msan
00007a  0000              DCB      0x00,0x00
                  snmp_dt_epu
00007c  0000              DCB      0x00,0x00
                  snmp_dt_number
00007e  0000              DCB      0x00,0x00
000080  00                DCB      0x00
                  snmp_dt_error
000081  000000            DCB      0x00,0x00,0x00
                  snmp_sernum
                          DCD      0x00000000
                  snmp_bat_number
                          DCD      0x00000000
                  snmp_bat_voltage
                          DCD      0x00000000
                  snmp_bat_current
                          DCD      0x00000000
                  snmp_bat_temperature
                          DCD      0x00000000
                  snmp_bat_capacity
                          DCD      0x00000000
                  snmp_bat_charge
                          DCD      0x00000000
                  snmp_bat_status
                          DCD      0x00000000
                  snmp_bat_part_voltage
                          DCD      0x00000000
                  snmp_energy_total_energy
                          DCD      0x00000000
                  snmp_sk_number
                          DCD      0x00000000
                  snmp_sk_aktiv
                          DCD      0x00000000
                  snmp_sk_alarm_aktiv
                          DCD      0x00000000
                  snmp_sk_alarm
                          DCD      0x00000000
                  temp_ip
                          DCD      0x00000000
                  snmp_inv_number
                          DCD      0x00000000
0000c4  0000              DCB      0x00,0x00
                  snmp_inv_voltage
0000c6  0000              DCB      0x00,0x00
                          DCD      0x00000000
                  snmp_inv_current
                          DCD      0x00000000
0000d0  0000              DCB      0x00,0x00
                  snmp_inv_temperature
0000d2  0000              DCB      0x00,0x00
                          DCD      0x00000000
                  snmp_inv_stat
                          DCD      0x00000000
0000dc  0000              DCB      0x00,0x00
                  snmp_dt_temper
0000de  0000              DCB      0x00,0x00
                          DCD      0x00000000
                  snmp_makb_connect_status
                          %        8
                  snmp_makb_voltage0
                          %        8
                  snmp_makb_voltage1
                          %        8
                  snmp_makb_voltage2
                          %        8
                  snmp_makb_voltage3
                          %        8
                  snmp_makb_voltage4
                          %        8
                  snmp_makb_temper0
                          %        8
                  snmp_makb_temper1
                          %        8
                  snmp_makb_temper2
                          %        8
                  snmp_makb_temper3
                          %        8
                  snmp_makb_temper4
                          %        8
                  snmp_makb_temper0_stat
                          %        8
                  snmp_makb_temper1_stat
                          %        8
                  snmp_makb_temper2_stat
                          %        8
                  snmp_makb_temper3_stat
                          %        8
                  snmp_makb_temper4_stat
                          %        8
                  snmp_log
000164  30314061          DCB      0x30,0x31,0x40,0x61
000168  62636440          DCB      0x62,0x63,0x64,0x40
00016c  65666768          DCB      0x65,0x66,0x67,0x68
000170  40696a6b          DCB      0x40,0x69,0x6a,0x6b
000174  6c403031          DCB      0x6c,0x40,0x30,0x31
000178  40202020          DCB      0x40,0x20,0x20,0x20
00017c  20202020          DCB      0x20,0x20,0x20,0x20
000180  20000000          DCB      0x20,0x00,0x00,0x00
                          %        96
0001e4  30324061          DCB      0x30,0x32,0x40,0x61
0001e8  62636440          DCB      0x62,0x63,0x64,0x40
0001ec  65666768          DCB      0x65,0x66,0x67,0x68
0001f0  40696a6b          DCB      0x40,0x69,0x6a,0x6b
0001f4  6c403032          DCB      0x6c,0x40,0x30,0x32
0001f8  40202020          DCB      0x40,0x20,0x20,0x20
0001fc  20202020          DCB      0x20,0x20,0x20,0x20
000200  20000000          DCB      0x20,0x00,0x00,0x00
                          %        96
000264  30334061          DCB      0x30,0x33,0x40,0x61
000268  62636440          DCB      0x62,0x63,0x64,0x40
00026c  65666768          DCB      0x65,0x66,0x67,0x68
000270  40696a6b          DCB      0x40,0x69,0x6a,0x6b
000274  6c403033          DCB      0x6c,0x40,0x30,0x33
000278  40202020          DCB      0x40,0x20,0x20,0x20
00027c  20202020          DCB      0x20,0x20,0x20,0x20
000280  20000000          DCB      0x20,0x00,0x00,0x00
                          %        96
0002e4  30344061          DCB      0x30,0x34,0x40,0x61
0002e8  62636440          DCB      0x62,0x63,0x64,0x40
0002ec  65666768          DCB      0x65,0x66,0x67,0x68
0002f0  40696a6b          DCB      0x40,0x69,0x6a,0x6b
0002f4  6c403034          DCB      0x6c,0x40,0x30,0x34
0002f8  40202020          DCB      0x40,0x20,0x20,0x20
0002fc  20202020          DCB      0x20,0x20,0x20,0x20
000300  20000000          DCB      0x20,0x00,0x00,0x00
                          %        96
000364  30354061          DCB      0x30,0x35,0x40,0x61
000368  62636440          DCB      0x62,0x63,0x64,0x40
00036c  65666768          DCB      0x65,0x66,0x67,0x68
000370  40696a6b          DCB      0x40,0x69,0x6a,0x6b
000374  6c403035          DCB      0x6c,0x40,0x30,0x35
000378  40202020          DCB      0x40,0x20,0x20,0x20
00037c  20202020          DCB      0x20,0x20,0x20,0x20
000380  20000000          DCB      0x20,0x00,0x00,0x00
                          %        96
0003e4  30364061          DCB      0x30,0x36,0x40,0x61
0003e8  62636440          DCB      0x62,0x63,0x64,0x40
0003ec  65666768          DCB      0x65,0x66,0x67,0x68
0003f0  40696a6b          DCB      0x40,0x69,0x6a,0x6b
0003f4  6c403036          DCB      0x6c,0x40,0x30,0x36
0003f8  40202020          DCB      0x40,0x20,0x20,0x20
0003fc  20202020          DCB      0x20,0x20,0x20,0x20
000400  20000000          DCB      0x20,0x00,0x00,0x00
                          %        96
000464  30374061          DCB      0x30,0x37,0x40,0x61
000468  62636440          DCB      0x62,0x63,0x64,0x40
00046c  65666768          DCB      0x65,0x66,0x67,0x68
000470  40696a6b          DCB      0x40,0x69,0x6a,0x6b
000474  6c403037          DCB      0x6c,0x40,0x30,0x37
000478  40202020          DCB      0x40,0x20,0x20,0x20
00047c  20202020          DCB      0x20,0x20,0x20,0x20
000480  20000000          DCB      0x20,0x00,0x00,0x00
                          %        96
0004e4  30384061          DCB      0x30,0x38,0x40,0x61
0004e8  62636440          DCB      0x62,0x63,0x64,0x40
0004ec  65666768          DCB      0x65,0x66,0x67,0x68
0004f0  40696a6b          DCB      0x40,0x69,0x6a,0x6b
0004f4  6c403038          DCB      0x6c,0x40,0x30,0x38
0004f8  40202020          DCB      0x40,0x20,0x20,0x20
0004fc  20202020          DCB      0x20,0x20,0x20,0x20
000500  20000000          DCB      0x20,0x00,0x00,0x00
                          %        96
000564  30394061          DCB      0x30,0x39,0x40,0x61
000568  62636440          DCB      0x62,0x63,0x64,0x40
00056c  65666768          DCB      0x65,0x66,0x67,0x68
000570  40696a6b          DCB      0x40,0x69,0x6a,0x6b
000574  6c403039          DCB      0x6c,0x40,0x30,0x39
000578  40202020          DCB      0x40,0x20,0x20,0x20
00057c  20202020          DCB      0x20,0x20,0x20,0x20
000580  20000000          DCB      0x20,0x00,0x00,0x00
                          %        96
0005e4  31304061          DCB      0x31,0x30,0x40,0x61
0005e8  62636440          DCB      0x62,0x63,0x64,0x40
0005ec  65666768          DCB      0x65,0x66,0x67,0x68
0005f0  40696a6b          DCB      0x40,0x69,0x6a,0x6b
0005f4  6c403130          DCB      0x6c,0x40,0x31,0x30
0005f8  40202020          DCB      0x40,0x20,0x20,0x20
0005fc  20202020          DCB      0x20,0x20,0x20,0x20
000600  20000000          DCB      0x20,0x00,0x00,0x00
                          %        96
000664  31314061          DCB      0x31,0x31,0x40,0x61
000668  62636440          DCB      0x62,0x63,0x64,0x40
00066c  65666768          DCB      0x65,0x66,0x67,0x68
000670  40696a6b          DCB      0x40,0x69,0x6a,0x6b
000674  6c403131          DCB      0x6c,0x40,0x31,0x31
000678  40202020          DCB      0x40,0x20,0x20,0x20
00067c  20202020          DCB      0x20,0x20,0x20,0x20
000680  20000000          DCB      0x20,0x00,0x00,0x00
                          %        96
0006e4  31324061          DCB      0x31,0x32,0x40,0x61
0006e8  62636440          DCB      0x62,0x63,0x64,0x40
0006ec  65666768          DCB      0x65,0x66,0x67,0x68
0006f0  40696a6b          DCB      0x40,0x69,0x6a,0x6b
0006f4  6c403132          DCB      0x6c,0x40,0x31,0x32
0006f8  40202020          DCB      0x40,0x20,0x20,0x20
0006fc  20202020          DCB      0x20,0x20,0x20,0x20
000700  20000000          DCB      0x20,0x00,0x00,0x00
                          %        96
000764  31334061          DCB      0x31,0x33,0x40,0x61
000768  62636440          DCB      0x62,0x63,0x64,0x40
00076c  65666768          DCB      0x65,0x66,0x67,0x68
000770  40696a6b          DCB      0x40,0x69,0x6a,0x6b
000774  6c403133          DCB      0x6c,0x40,0x31,0x33
000778  40202020          DCB      0x40,0x20,0x20,0x20
00077c  20202020          DCB      0x20,0x20,0x20,0x20
000780  20000000          DCB      0x20,0x00,0x00,0x00
                          %        96
0007e4  31344061          DCB      0x31,0x34,0x40,0x61
0007e8  62636440          DCB      0x62,0x63,0x64,0x40
0007ec  65666768          DCB      0x65,0x66,0x67,0x68
0007f0  40696a6b          DCB      0x40,0x69,0x6a,0x6b
0007f4  6c403134          DCB      0x6c,0x40,0x31,0x34
0007f8  40202020          DCB      0x40,0x20,0x20,0x20
0007fc  20202020          DCB      0x20,0x20,0x20,0x20
000800  20000000          DCB      0x20,0x00,0x00,0x00
                          %        96
000864  31354061          DCB      0x31,0x35,0x40,0x61
000868  62636440          DCB      0x62,0x63,0x64,0x40
00086c  65666768          DCB      0x65,0x66,0x67,0x68
000870  40696a6b          DCB      0x40,0x69,0x6a,0x6b
000874  6c403135          DCB      0x6c,0x40,0x31,0x35
000878  40202020          DCB      0x40,0x20,0x20,0x20
00087c  20202020          DCB      0x20,0x20,0x20,0x20
000880  20000000          DCB      0x20,0x00,0x00,0x00
                          %        96
0008e4  31364061          DCB      0x31,0x36,0x40,0x61
0008e8  62636440          DCB      0x62,0x63,0x64,0x40
0008ec  65666768          DCB      0x65,0x66,0x67,0x68
0008f0  40696a6b          DCB      0x40,0x69,0x6a,0x6b
0008f4  6c403136          DCB      0x6c,0x40,0x31,0x36
0008f8  40202020          DCB      0x40,0x20,0x20,0x20
0008fc  20202020          DCB      0x20,0x20,0x20,0x20
000900  20000000          DCB      0x20,0x00,0x00,0x00
                          %        96
000964  31374061          DCB      0x31,0x37,0x40,0x61
000968  62636440          DCB      0x62,0x63,0x64,0x40
00096c  65666768          DCB      0x65,0x66,0x67,0x68
000970  40696a6b          DCB      0x40,0x69,0x6a,0x6b
000974  6c403137          DCB      0x6c,0x40,0x31,0x37
000978  40202020          DCB      0x40,0x20,0x20,0x20
00097c  20202020          DCB      0x20,0x20,0x20,0x20
000980  20000000          DCB      0x20,0x00,0x00,0x00
                          %        96
0009e4  31384061          DCB      0x31,0x38,0x40,0x61
0009e8  62636440          DCB      0x62,0x63,0x64,0x40
0009ec  65666768          DCB      0x65,0x66,0x67,0x68
0009f0  40696a6b          DCB      0x40,0x69,0x6a,0x6b
0009f4  6c403138          DCB      0x6c,0x40,0x31,0x38
0009f8  40202020          DCB      0x40,0x20,0x20,0x20
0009fc  20202020          DCB      0x20,0x20,0x20,0x20
000a00  20000000          DCB      0x20,0x00,0x00,0x00
                          %        96
000a64  31394061          DCB      0x31,0x39,0x40,0x61
000a68  62636440          DCB      0x62,0x63,0x64,0x40
000a6c  65666768          DCB      0x65,0x66,0x67,0x68
000a70  40696a6b          DCB      0x40,0x69,0x6a,0x6b
000a74  6c403139          DCB      0x6c,0x40,0x31,0x39
000a78  40202020          DCB      0x40,0x20,0x20,0x20
000a7c  20202020          DCB      0x20,0x20,0x20,0x20
000a80  20000000          DCB      0x20,0x00,0x00,0x00
                          %        96
000ae4  32304061          DCB      0x32,0x30,0x40,0x61
000ae8  62636440          DCB      0x62,0x63,0x64,0x40
000aec  65666768          DCB      0x65,0x66,0x67,0x68
000af0  40696a6b          DCB      0x40,0x69,0x6a,0x6b
000af4  6c403230          DCB      0x6c,0x40,0x32,0x30
000af8  40202020          DCB      0x40,0x20,0x20,0x20
000afc  20202020          DCB      0x20,0x20,0x20,0x20
000b00  20000000          DCB      0x20,0x00,0x00,0x00
                          %        96
000b64  32314061          DCB      0x32,0x31,0x40,0x61
000b68  62636440          DCB      0x62,0x63,0x64,0x40
000b6c  65666768          DCB      0x65,0x66,0x67,0x68
000b70  40696a6b          DCB      0x40,0x69,0x6a,0x6b
000b74  6c403231          DCB      0x6c,0x40,0x32,0x31
000b78  40202020          DCB      0x40,0x20,0x20,0x20
000b7c  20202020          DCB      0x20,0x20,0x20,0x20
000b80  20000000          DCB      0x20,0x00,0x00,0x00
                          %        96
000be4  32324061          DCB      0x32,0x32,0x40,0x61
000be8  62636440          DCB      0x62,0x63,0x64,0x40
000bec  65666768          DCB      0x65,0x66,0x67,0x68
000bf0  40696a6b          DCB      0x40,0x69,0x6a,0x6b
000bf4  6c403232          DCB      0x6c,0x40,0x32,0x32
000bf8  40202020          DCB      0x40,0x20,0x20,0x20
000bfc  20202020          DCB      0x20,0x20,0x20,0x20
000c00  20000000          DCB      0x20,0x00,0x00,0x00
                          %        96
000c64  32334061          DCB      0x32,0x33,0x40,0x61
000c68  62636440          DCB      0x62,0x63,0x64,0x40
000c6c  65666768          DCB      0x65,0x66,0x67,0x68
000c70  40696a6b          DCB      0x40,0x69,0x6a,0x6b
000c74  6c403233          DCB      0x6c,0x40,0x32,0x33
000c78  40202020          DCB      0x40,0x20,0x20,0x20
000c7c  20202020          DCB      0x20,0x20,0x20,0x20
000c80  20000000          DCB      0x20,0x00,0x00,0x00
                          %        96
000ce4  32344061          DCB      0x32,0x34,0x40,0x61
000ce8  62636440          DCB      0x62,0x63,0x64,0x40
000cec  65666768          DCB      0x65,0x66,0x67,0x68
000cf0  40696a6b          DCB      0x40,0x69,0x6a,0x6b
000cf4  6c403234          DCB      0x6c,0x40,0x32,0x34
000cf8  40202020          DCB      0x40,0x20,0x20,0x20
000cfc  20202020          DCB      0x20,0x20,0x20,0x20
000d00  20000000          DCB      0x20,0x00,0x00,0x00
                          %        96
000d64  32354061          DCB      0x32,0x35,0x40,0x61
000d68  62636440          DCB      0x62,0x63,0x64,0x40
000d6c  65666768          DCB      0x65,0x66,0x67,0x68
000d70  40696a6b          DCB      0x40,0x69,0x6a,0x6b
000d74  6c403235          DCB      0x6c,0x40,0x32,0x35
000d78  40202020          DCB      0x40,0x20,0x20,0x20
000d7c  20202020          DCB      0x20,0x20,0x20,0x20
000d80  20000000          DCB      0x20,0x00,0x00,0x00
                          %        96
000de4  32364061          DCB      0x32,0x36,0x40,0x61
000de8  62636440          DCB      0x62,0x63,0x64,0x40
000dec  65666768          DCB      0x65,0x66,0x67,0x68
000df0  40696a6b          DCB      0x40,0x69,0x6a,0x6b
000df4  6c403236          DCB      0x6c,0x40,0x32,0x36
000df8  40202020          DCB      0x40,0x20,0x20,0x20
000dfc  20202020          DCB      0x20,0x20,0x20,0x20
000e00  20000000          DCB      0x20,0x00,0x00,0x00
                          %        96
000e64  32374061          DCB      0x32,0x37,0x40,0x61
000e68  62636440          DCB      0x62,0x63,0x64,0x40
000e6c  65666768          DCB      0x65,0x66,0x67,0x68
000e70  40696a6b          DCB      0x40,0x69,0x6a,0x6b
000e74  6c403237          DCB      0x6c,0x40,0x32,0x37
000e78  40202020          DCB      0x40,0x20,0x20,0x20
000e7c  20202020          DCB      0x20,0x20,0x20,0x20
000e80  20000000          DCB      0x20,0x00,0x00,0x00
                          %        96
000ee4  32384061          DCB      0x32,0x38,0x40,0x61
000ee8  62636440          DCB      0x62,0x63,0x64,0x40
000eec  65666768          DCB      0x65,0x66,0x67,0x68
000ef0  40696a6b          DCB      0x40,0x69,0x6a,0x6b
000ef4  6c403238          DCB      0x6c,0x40,0x32,0x38
000ef8  40202020          DCB      0x40,0x20,0x20,0x20
000efc  20202020          DCB      0x20,0x20,0x20,0x20
000f00  20000000          DCB      0x20,0x00,0x00,0x00
                          %        96
000f64  32394061          DCB      0x32,0x39,0x40,0x61
000f68  62636440          DCB      0x62,0x63,0x64,0x40
000f6c  65666768          DCB      0x65,0x66,0x67,0x68
000f70  40696a6b          DCB      0x40,0x69,0x6a,0x6b
000f74  6c403239          DCB      0x6c,0x40,0x32,0x39
000f78  40202020          DCB      0x40,0x20,0x20,0x20
000f7c  20202020          DCB      0x20,0x20,0x20,0x20
000f80  20000000          DCB      0x20,0x00,0x00,0x00
                          %        96
000fe4  33304061          DCB      0x33,0x30,0x40,0x61
000fe8  62636440          DCB      0x62,0x63,0x64,0x40
000fec  65666768          DCB      0x65,0x66,0x67,0x68
000ff0  40696a6b          DCB      0x40,0x69,0x6a,0x6b
000ff4  6c403330          DCB      0x6c,0x40,0x33,0x30
000ff8  40202020          DCB      0x40,0x20,0x20,0x20
000ffc  20202020          DCB      0x20,0x20,0x20,0x20
001000  20000000          DCB      0x20,0x00,0x00,0x00
                          %        4448

                          AREA ||area_number.26||, DATA, ALIGN=1

                          EXPORTAS ||area_number.26||, ||.data||
                  snmp_device_code
000000  0000              DCB      0x00,0x00

                          AREA ||area_number.27||, DATA, ALIGN=1

                          EXPORTAS ||area_number.27||, ||.data||
                  snmp_sernum_lsb
000000  0000              DCB      0x00,0x00

                          AREA ||area_number.28||, DATA, ALIGN=1

                          EXPORTAS ||area_number.28||, ||.data||
                  snmp_sernum_msb
000000  0000              DCB      0x00,0x00

                          AREA ||area_number.29||, DATA, ALIGN=1

                          EXPORTAS ||area_number.29||, ||.data||
                  snmp_mains_power_status
000000  0000              DCB      0x00,0x00

                          AREA ||area_number.30||, DATA, ALIGN=1

                          EXPORTAS ||area_number.30||, ||.data||
                  snmp_mains_power_alarm
000000  0000              DCB      0x00,0x00

                          AREA ||area_number.31||, DATA, ALIGN=1

                          EXPORTAS ||area_number.31||, ||.data||
                  snmp_makb_number
                          %        8

                          AREA ||area_number.32||, DATA, ALIGN=1

                          EXPORTAS ||area_number.32||, ||.data||
                  snmp_spc_stat
000000  0000              DCB      0x00,0x00

                          AREA ||area_number.33||, DATA, ALIGN=1

                          EXPORTAS ||area_number.33||, ||.data||
                  snmp_main_bps
000000  0000              DCB      0x00,0x00

                          AREA ||area_number.34||, DATA, ALIGN=1

                          EXPORTAS ||area_number.34||, ||.data||
                  snmp_max_current_koef
000000  0000              DCB      0x00,0x00

                          AREA ||area_number.35||, DATA, ALIGN=1

                          EXPORTAS ||area_number.35||, ||.data||
                  snmp_up_charge_koef
000000  0000              DCB      0x00,0x00
