; generated by ARM C/C++ Compiler, 4.1 [Build 644]
; commandline ArmCC [--list --debug -c --asm --interleave -o.\EXE\snmp_data_file.o --asm_dir=.\ --list_dir=.\ --depend=.\EXE\snmp_data_file.d --feedback=.\EXE\UKU_220_IPS_TERMOKOMPENSAT.fed --cpu=Cortex-M3 --apcs=interwork -O1 -IC:\Keil\ARM\CMSIS\Include -IC:\Keil\ARM\INC\NXP\LPC17xx -D__MICROLIB -DUKU_220_IPS_TERMOKOMPENSAT -DUKU2071x -DUKU_ZVU --omf_browse=.\EXE\snmp_data_file.crf snmp_data_file.c]
                          THUMB

                          AREA ||.text||, CODE, READONLY, ALIGN=2

                          REQUIRE _printf_pre_padding
                          REQUIRE _printf_percent
                          REQUIRE _printf_widthprec
                          REQUIRE _printf_d
                          REQUIRE _printf_int_dec
                  datatime2str PROC
;;;970    //-----------------------------------------------
;;;971    void snmp_sernum_write (int mode) 
000000  e92d5ff0          PUSH     {r4-r12,lr}
;;;972    {
;;;973    if(mode==MIB_WRITE)
000004  e9dd760a          LDRD     r7,r6,[sp,#0x28]
;;;974    	{
;;;975    	lc640_write_long(EE_AUSW_MAIN_NUMBER,snmp_sernum);
000008  4683              MOV      r11,r0
00000a  468a              MOV      r10,r1
00000c  4691              MOV      r9,r2
00000e  4698              MOV      r8,r3
000010  f04f0214          MOV      r2,#0x14
;;;976    	lc640_write_long(EE_AUSW_UKU_NUMBER,snmp_sernum);
000014  a1f8              ADR      r1,|L1.1016|
000016  48ff              LDR      r0,|L1.1044|
000018  f7fffffe          BL       __aeabi_memcpy
00001c  f04f040a          MOV      r4,#0xa
;;;977    	}
;;;978    }
000020  fbbbf5f4          UDIV     r5,r11,r4
000024  fb04b115          MLS      r1,r4,r5,r11
000028  48fa              LDR      r0,|L1.1044|
00002a  f1010130          ADD      r1,r1,#0x30
00002e  7041              STRB     r1,[r0,#1]
000030  f1050530          ADD      r5,r5,#0x30
000034  7005              STRB     r5,[r0,#0]
000036  49f8              LDR      r1,|L1.1048|
000038  eb01018a          ADD      r1,r1,r10,LSL #2
00003c  880a              LDRH     r2,[r1,#0]
00003e  f8a02003          STRH     r2,[r0,#3]
000042  7889              LDRB     r1,[r1,#2]
000044  7141              STRB     r1,[r0,#5]
000046  fbb9f1f4          UDIV     r1,r9,r4
00004a  fb049211          MLS      r2,r4,r1,r9
00004e  f1020230          ADD      r2,r2,#0x30
000052  7202              STRB     r2,[r0,#8]
000054  f1010130          ADD      r1,r1,#0x30
000058  71c1              STRB     r1,[r0,#7]
00005a  fbb8f1f4          UDIV     r1,r8,r4
00005e  fb048211          MLS      r2,r4,r1,r8
000062  f1020230          ADD      r2,r2,#0x30
000066  7302              STRB     r2,[r0,#0xc]
000068  f1010130          ADD      r1,r1,#0x30
00006c  72c1              STRB     r1,[r0,#0xb]
00006e  fbb7f1f4          UDIV     r1,r7,r4
000072  fb047211          MLS      r2,r4,r1,r7
000076  f1020230          ADD      r2,r2,#0x30
00007a  73c2              STRB     r2,[r0,#0xf]
00007c  f1010130          ADD      r1,r1,#0x30
000080  7381              STRB     r1,[r0,#0xe]
000082  fbb6f1f4          UDIV     r1,r6,r4
000086  fb046211          MLS      r2,r4,r1,r6
00008a  f1020230          ADD      r2,r2,#0x30
00008e  7482              STRB     r2,[r0,#0x12]
000090  f1010130          ADD      r1,r1,#0x30
000094  7441              STRB     r1,[r0,#0x11]
000096  e8bd9ff0          POP      {r4-r12,pc}
;;;979    
                          ENDP

                  event2snmp PROC
;;;1616   //-----------------------------------------------
;;;1617   void event2snmp(char num)
00009a  e92d47f0          PUSH     {r4-r10,lr}
;;;1618   {
00009e  b088              SUB      sp,sp,#0x20
0000a0  4606              MOV      r6,r0
;;;1619   char /*iii,*/index;
;;;1620   char dt[4],dt_[4],dt__[4],dt___[4],dt____[4],dt4[4];
;;;1621   unsigned int tempii;    
;;;1622   
;;;1623   memcpy(&snmp_log[num][0],"                                                                                ",78);
0000a2  48de              LDR      r0,|L1.1052|
0000a4  f04f024e          MOV      r2,#0x4e
0000a8  eb0014c6          ADD      r4,r0,r6,LSL #7
0000ac  49dc              LDR      r1,|L1.1056|
0000ae  4620              MOV      r0,r4
0000b0  f7fffffe          BL       __aeabi_memcpy
;;;1624   //memcpy(&snmp_log[num][0],"BKL",10);
;;;1625   
;;;1626   
;;;1627   		
;;;1628   tempii=lc640_read_int(PTR_EVENT_LOG);
0000b4  f44f6060          MOV      r0,#0xe00
0000b8  f7fffffe          BL       lc640_read_int
;;;1629   tempii=ptr_carry(tempii,64,-1*((signed)num));
0000bc  4272              RSBS     r2,r6,#0
0000be  2140              MOVS     r1,#0x40
0000c0  f7fffffe          BL       ptr_carry
;;;1630   tempii*=32;
0000c4  ea4f1040          LSL      r0,r0,#5
;;;1631   tempii+=EVENT_LOG;
0000c8  f5006080          ADD      r0,r0,#0x400
0000cc  4605              MOV      r5,r0
;;;1632        
;;;1633   lc640_read_long_ptr(tempii,dt);
0000ce  a907              ADD      r1,sp,#0x1c
0000d0  4628              MOV      r0,r5
0000d2  f7fffffe          BL       lc640_read_long_ptr
;;;1634   lc640_read_long_ptr(tempii+4,dt4);
0000d6  a902              ADD      r1,sp,#8
0000d8  1d28              ADDS     r0,r5,#4
0000da  f7fffffe          BL       lc640_read_long_ptr
;;;1635   lc640_read_long_ptr(tempii+8,dt_);
0000de  a906              ADD      r1,sp,#0x18
0000e0  f1050008          ADD      r0,r5,#8
0000e4  f7fffffe          BL       lc640_read_long_ptr
;;;1636   lc640_read_long_ptr(tempii+12,dt__);
0000e8  a905              ADD      r1,sp,#0x14
0000ea  f105000c          ADD      r0,r5,#0xc
0000ee  f7fffffe          BL       lc640_read_long_ptr
;;;1637   lc640_read_long_ptr(tempii+16,dt___);
0000f2  a904              ADD      r1,sp,#0x10
0000f4  f1050010          ADD      r0,r5,#0x10
0000f8  f7fffffe          BL       lc640_read_long_ptr
;;;1638   lc640_read_long_ptr(tempii+20,dt____);
0000fc  a903              ADD      r1,sp,#0xc
0000fe  f1050014          ADD      r0,r5,#0x14
000102  f7fffffe          BL       lc640_read_long_ptr
;;;1639   //iii=find(simbol);
;;;1640        
;;;1641   if(dt[0]=='U')	 		//Включение ИБЭПа
000106  f89d001c          LDRB     r0,[sp,#0x1c]
00010a  2855              CMP      r0,#0x55
00010c  d051              BEQ      |L1.434|
;;;1642       { 
;;;1643       if(dt[2]=='R')
;;;1644   		{
;;;1645   		sprintf((char *)&snmp_log[num][0],"Power on or restart system %2d:%2d:%2d:",dt_[2],dt_[1],dt_[0]);
;;;1646   		}
;;;1647   	}   
;;;1648   
;;;1649        
;;;1650   else if(dt[0]=='P')		//Авария питающей сети
;;;1651   	{
;;;1652   	index=0;
;;;1653        memcpy(&snmp_log[num][index],"Авария питающей сети @  ",23);	
;;;1654   	index+=23;
;;;1655   	memcpy(&snmp_log[num][index],datatime2str(dt_[2],dt_[1],dt_[0],dt__[0],dt__[1],dt__[2]),19);
;;;1656   	index+=19;
;;;1657   	snmp_log[num][index]='@';
;;;1658   	index++;
;;;1659   
;;;1660   	if((dt___[0]=='A')&&(dt___[1]=='A'))
;;;1661   		{
;;;1662   		memcpy(&snmp_log[num][index]," не устранена  ",13);
;;;1663   		index+=13;
;;;1664   		}
;;;1665   	else 
;;;1666   		{
;;;1667   		memcpy(&snmp_log[num][index]," устранена   ",11);
00010e  2720              MOVS     r7,#0x20
000110  f04f0840          MOV      r8,#0x40              ;1629
000114  2850              CMP      r0,#0x50              ;1650
000116  d05e              BEQ      |L1.470|
000118  49c0              LDR      r1,|L1.1052|
00011a  eb0111c6          ADD      r1,r1,r6,LSL #7       ;1623
;;;1668   		index+=11;
;;;1669   			
;;;1670   		memcpy(&snmp_log[num][index],datatime2str(dt___[2],dt___[1],dt___[0],dt____[0],dt____[1],dt____[2]),19);
;;;1671   		}
;;;1672   
;;;1673        }  
;;;1674   
;;;1675   else if(dt[0]=='B')		//События батареи
;;;1676       	{
;;;1677   	index=0;
;;;1678       	if(dt[2]=='C')
;;;1679       		{
;;;1680   		memcpy(&snmp_log[num][index],"Батарея.  Авария!!! @  ",21);
;;;1681   		index+=21;
;;;1682   		memcpy(&snmp_log[num][index],datatime2str(dt_[2],dt_[1],dt_[0],dt__[0],dt__[1],dt__[2]),19);
;;;1683   		index+=19;
;;;1684   		
;;;1685   		snmp_log[num][index]='@';
;;;1686   		index++;
;;;1687   
;;;1688   		memcpy(&snmp_log[num][index],"Батарея не обнаружена, ",22);
00011e  f1010929          ADD      r9,r1,#0x29
000122  3115              ADDS     r1,r1,#0x15           ;1682
000124  468a              MOV      r10,r1                ;1682
000126  2842              CMP      r0,#0x42              ;1675
000128  d07e              BEQ      |L1.552|
;;;1689   		index+=22;
;;;1690   
;;;1691   		if((dt___[0]=='A')&&(dt___[1]=='A'))
;;;1692   			{
;;;1693   			memcpy(&snmp_log[num][index]," не устранена  ",13);
;;;1694   			index+=13;
;;;1695   			}
;;;1696   		else 
;;;1697   			{
;;;1698   			memcpy(&snmp_log[num][index]," устранена   ",11);
;;;1699   			index+=11;
;;;1700   			memcpy(&snmp_log[num][index],datatime2str(dt___[2],dt___[1],dt___[0],dt____[0],dt____[1],dt____[2]),19);
;;;1701   			}
;;;1702   
;;;1703       		}
;;;1704       	if(dt[2]=='Z')
;;;1705       		{
;;;1706   
;;;1707   		memcpy(&snmp_log[num][index],"Батарея.  Выравнивающий заряд @  ",32);
;;;1708   		index+=32;
;;;1709   		memcpy(&snmp_log[num][index],datatime2str(dt_[2],dt_[1],dt_[0],dt__[0],dt__[1],dt__[2]),19);
;;;1710   		index+=19;
;;;1711   		
;;;1712   		snmp_log[num][index]='@';
;;;1713   		index++;
;;;1714   
;;;1715   		if((dt___[0]=='A')&&(dt___[1]=='A'))
;;;1716   			{
;;;1717   			memcpy(&snmp_log[num][index]," не завершен  ",13);
;;;1718   			index+=13;
;;;1719   			}
;;;1720   		else 
;;;1721   			{
;;;1722   			memcpy(&snmp_log[num][index]," завершен   ",11);
;;;1723   			index+=11;
;;;1724   			memcpy(&snmp_log[num][index],datatime2str(dt___[2],dt___[1],dt___[0],dt____[0],dt____[1],dt____[2]),19);
;;;1725   			}
;;;1726   
;;;1727   
;;;1728   /*
;;;1729       		lcd_buffer[iii++]='В';
;;;1730       		lcd_buffer[iii++]='З';
;;;1731       		lcd_buffer[iii++]=' ';    		
;;;1732       		lcd_buffer[iii++]=' ';
;;;1733       		lcd_buffer[iii++]=' ';  
;;;1734       		lcd_buffer[iii++]=' ';
;;;1735       		lcd_buffer[iii++]=' ';
;;;1736       		
;;;1737       		if((dt_[0]==LPC_RTC->YEAR)&&(dt_[1]==LPC_RTC->MONTH)&&(dt_[2]==LPC_RTC->DOM))
;;;1738       			{
;;;1739       	    		lcd_buffer[iii++]='0';
;;;1740       			lcd_buffer[iii++]='!';
;;;1741       	    		lcd_buffer[iii++]=':'; 
;;;1742       			lcd_buffer[iii++]='0';
;;;1743       			lcd_buffer[iii++]='@';
;;;1744       			lcd_buffer[iii++]=':';
;;;1745       			lcd_buffer[iii++]='0';
;;;1746       			lcd_buffer[iii++]='#';
;;;1747       	    		int2lcd(dt__[0],'!',0);
;;;1748       			int2lcd(dt__[1],'@',0);
;;;1749       			int2lcd(dt__[2],'#',0);    		     		
;;;1750       			}	                   
;;;1751    		else      	
;;;1752       			{
;;;1753       	 		lcd_buffer[iii++]=' ';
;;;1754       			lcd_buffer[iii++]='0';
;;;1755       			lcd_buffer[iii++]='!';
;;;1756       			lcd_buffer[iii++]='@'; 
;;;1757       			lcd_buffer[iii++]=' ';
;;;1758       			lcd_buffer[iii++]=' ';
;;;1759       			lcd_buffer[iii++]='0';
;;;1760       			lcd_buffer[iii++]='#';
;;;1761       			int2lcd(dt_[2],'!',0);
;;;1762       			
;;;1763       			int2lcd(dt_[0],'#',0);   
;;;1764       			if(!((dt_[1]>=1)&&(dt_[1]<=12)))dt_[1]=1;
;;;1765   			sub_bgnd(sm_mont[dt_[1]],'@',0);  
;;;1766       			} */ 		
;;;1767       		}    		
;;;1768   /*
;;;1769       	if(dt[2]=='W')
;;;1770       		{
;;;1771       		lcd_buffer[iii++]='Б';
;;;1772       		lcd_buffer[iii++]='а';
;;;1773       		lcd_buffer[iii++]='т';
;;;1774   		if(dt[1]<9)
;;;1775       			{
;;;1776       			lcd_buffer[iii++]=0x31+dt[1];
;;;1777       			lcd_buffer[iii++]='р';
;;;1778       			lcd_buffer[iii++]=' ';
;;;1779       			}
;;;1780       		else if((dt[1]>=9)&&(dt[1]<99))
;;;1781       			{
;;;1782       			lcd_buffer[iii++]=0x30+((dt[1]+1)/10);
;;;1783       			lcd_buffer[iii++]=0x30+((dt[1]+1)%10);
;;;1784       			lcd_buffer[iii++]='р';
;;;1785       			}
;;;1786       		else 
;;;1787       			{
;;;1788       			lcd_buffer[iii++]=' ';
;;;1789       			lcd_buffer[iii++]=' '; 
;;;1790       			lcd_buffer[iii++]=' ';    		
;;;1791       			} 
;;;1792       		lcd_buffer[iii++]=' ';    		
;;;1793       		
;;;1794       		
;;;1795   		
;;;1796       		if((dt_[0]==LPC_RTC->YEAR)&&(dt_[1]==LPC_RTC->MONTH)&&(dt_[2]==LPC_RTC->DOM))
;;;1797       			{
;;;1798       	    		lcd_buffer[iii++]='0';
;;;1799       			lcd_buffer[iii++]='!';
;;;1800       	    		lcd_buffer[iii++]=':'; 
;;;1801       			lcd_buffer[iii++]='0';
;;;1802       			lcd_buffer[iii++]='@';
;;;1803       			lcd_buffer[iii++]=':';
;;;1804       			lcd_buffer[iii++]='0';
;;;1805       			lcd_buffer[iii++]='#';
;;;1806       	    		int2lcd(dt__[0],'!',0);
;;;1807       			int2lcd(dt__[1],'@',0);
;;;1808       			int2lcd(dt__[2],'#',0);    		     		
;;;1809       			}	                   
;;;1810    		else      	
;;;1811       			{
;;;1812       	 		lcd_buffer[iii++]=' ';
;;;1813       			lcd_buffer[iii++]='0';
;;;1814       			lcd_buffer[iii++]='!';
;;;1815       			lcd_buffer[iii++]='@'; 
;;;1816       			lcd_buffer[iii++]=' ';
;;;1817       			lcd_buffer[iii++]=' ';
;;;1818       			lcd_buffer[iii++]='0';
;;;1819       			lcd_buffer[iii++]='#';
;;;1820       			int2lcd(dt_[2],'!',0);
;;;1821       			
;;;1822       			int2lcd(dt_[0],'#',0);   
;;;1823       			if(!((dt_[1]>=1)&&(dt_[1]<=12)))dt_[1]=1;
;;;1824   			sub_bgnd(sm_mont[dt_[1]],'@',0);  
;;;1825       			}  		
;;;1826       		} */   		
;;;1827    
;;;1828    	if(dt[2]=='K')
;;;1829       		{
;;;1830   
;;;1831   		memcpy(&snmp_log[num][index],"Батарея.  Контроль емкости @  ",29);
;;;1832   		index+=29;
;;;1833   		memcpy(&snmp_log[num][index],datatime2str(dt_[2],dt_[1],dt_[0],dt__[0],dt__[1],dt__[2]),19);
;;;1834   		index+=19;
;;;1835   		
;;;1836   		snmp_log[num][index]='@';
;;;1837   		index++;
;;;1838   
;;;1839   		if((dt___[0]=='A')&&(dt___[1]=='A'))
;;;1840   			{
;;;1841   			memcpy(&snmp_log[num][index]," не завершен  ",13);
;;;1842   			index+=13;
;;;1843   			}
;;;1844   		else 
;;;1845   			{
;;;1846   			short temp_US;
;;;1847   			memcpy(&snmp_log[num][index]," завершен   ",11);
;;;1848   			index+=11;
;;;1849   			memcpy(&snmp_log[num][index],datatime2str(dt___[2],dt___[1],dt___[0],dt____[0],dt____[1],dt____[2]),19);
;;;1850   			memcpy(&snmp_log[num][index],", Uнач   , В, Uкон   , В, Cбат    , А*ч ", 39);
;;;1851   			
;;;1852   			temp_US=dt_[3]+(dt__[3]*256);
;;;1853   
;;;1854   			snmp_log[num][index+10]=(temp_US%10)+0x30;
;;;1855   			temp_US/=10;
;;;1856   			snmp_log[num][index+8]=(temp_US%10)+0x30;
;;;1857   			temp_US/=10;
;;;1858   			if(temp_US)snmp_log[num][index+7]=(temp_US%10)+0x30;
;;;1859   			else snmp_log[num][index+7]=0x20;
;;;1860   
;;;1861   
;;;1862   			temp_US=dt4[2]+(dt4[3]*256);
;;;1863   
;;;1864   			snmp_log[num][index+22]=(temp_US%10)+0x30;
;;;1865   			temp_US/=10;
;;;1866   			snmp_log[num][index+20]=(temp_US%10)+0x30;
;;;1867   			temp_US/=10;
;;;1868   			if(temp_US)snmp_log[num][index+19]=(temp_US%10)+0x30;
;;;1869   			else snmp_log[num][index+19]=0x20;
;;;1870   
;;;1871   
;;;1872   			temp_US=dt4[0]+(dt4[1]*256);
;;;1873   
;;;1874   			snmp_log[num][index+35]=(temp_US%10)+0x30;
;;;1875   			temp_US/=10;
;;;1876   			snmp_log[num][index+33]=(temp_US%10)+0x30;
;;;1877   			temp_US/=10;
;;;1878   			if(temp_US)snmp_log[num][index+32]=(temp_US%10)+0x30;
;;;1879   			else snmp_log[num][index+32]=0x20;
;;;1880   			}
;;;1881   
;;;1882   
;;;1883   
;;;1884   		/*
;;;1885       		lcd_buffer[iii++]='Б';
;;;1886       		lcd_buffer[iii++]='а';
;;;1887       		lcd_buffer[iii++]='т';
;;;1888   		if(dt[1]<9)
;;;1889       			{
;;;1890       			lcd_buffer[iii++]=0x31+dt[1];
;;;1891       			lcd_buffer[iii++]='к';
;;;1892       			lcd_buffer[iii++]='е';
;;;1893       			}
;;;1894       		else if((dt[1]>=9)&&(dt[1]<99))
;;;1895       			{
;;;1896       			lcd_buffer[iii++]=0x30+((dt[1]+1)/10);
;;;1897       			lcd_buffer[iii++]=0x30+((dt[1]+1)%10);
;;;1898       			lcd_buffer[iii++]='к';
;;;1899       			}
;;;1900       		else 
;;;1901       			{
;;;1902       			lcd_buffer[iii++]=' ';
;;;1903       			lcd_buffer[iii++]=' '; 
;;;1904       			lcd_buffer[iii++]=' ';    		
;;;1905       			} 
;;;1906       		lcd_buffer[iii++]=' ';    		
;;;1907       		
;;;1908       		if((dt_[0]==LPC_RTC->YEAR)&&(dt_[1]==LPC_RTC->MONTH)&&(dt_[2]==LPC_RTC->DOM))
;;;1909       			{
;;;1910       	    		lcd_buffer[iii++]='0';
;;;1911       			lcd_buffer[iii++]='!';
;;;1912       	    		lcd_buffer[iii++]=':'; 
;;;1913       			lcd_buffer[iii++]='0';
;;;1914       			lcd_buffer[iii++]='@';
;;;1915       			lcd_buffer[iii++]=':';
;;;1916       			lcd_buffer[iii++]='0';
;;;1917       			lcd_buffer[iii++]='#';
;;;1918       	    		int2lcd(dt__[0],'!',0);
;;;1919       			int2lcd(dt__[1],'@',0);
;;;1920       			int2lcd(dt__[2],'#',0);    		     		
;;;1921       			}	                   
;;;1922    		else      	
;;;1923       			{
;;;1924       	 		lcd_buffer[iii++]=' ';
;;;1925       			lcd_buffer[iii++]='0';
;;;1926       			lcd_buffer[iii++]='!';
;;;1927       			lcd_buffer[iii++]='@'; 
;;;1928       			lcd_buffer[iii++]=' ';
;;;1929       			lcd_buffer[iii++]=' ';
;;;1930       			lcd_buffer[iii++]='0';
;;;1931       			lcd_buffer[iii++]='#';
;;;1932       			int2lcd(dt_[2],'!',0);
;;;1933       			
;;;1934       			int2lcd(dt_[0],'#',0);   
;;;1935       			if(!((dt_[1]>=1)&&(dt_[1]<=12)))dt_[1]=1;
;;;1936   			sub_bgnd(sm_mont[dt_[1]],'@',0);  
;;;1937       			} */ 		
;;;1938       		}    		
;;;1939   
;;;1940       		     	     	
;;;1941       	}     	    
;;;1942        	
;;;1943   else if(dt[0]=='S')
00012a  2853              CMP      r0,#0x53
00012c  d150              BNE      |L1.464|
;;;1944       	{
;;;1945   	index=0;
;;;1946   	memcpy(&snmp_log[num][0],"БПС №      ",6);
00012e  a0bd              ADR      r0,|L1.1060|
000130  6801              LDR      r1,[r0,#0]
000132  6021              STR      r1,[r4,#0]
000134  8880              LDRH     r0,[r0,#4]
000136  80a0              STRH     r0,[r4,#4]
;;;1947   	index=6;
;;;1948   	snmp_log[num][5]=0x31+dt[1];
000138  f89d001d          LDRB     r0,[sp,#0x1d]
00013c  f1000031          ADD      r0,r0,#0x31
000140  7160              STRB     r0,[r4,#5]
;;;1949   	index=7;
;;;1950   	memcpy(&snmp_log[num][index],"   Авария!!!@  ",14);
000142  f1040007          ADD      r0,r4,#7
000146  f04f020e          MOV      r2,#0xe
00014a  a1b9              ADR      r1,|L1.1072|
00014c  f7fffffe          BL       __aeabi_memcpy
;;;1951   	index+=14;
;;;1952   		//memcpy(&snmp_log[num][0/*+num*/],"00/янв/11 00:00:00 @",20);
;;;1953   	memcpy(&snmp_log[num][index],datatime2str(dt_[2],dt_[1],dt_[0],dt__[0],dt__[1],dt__[2]),19);
000150  f89d0016          LDRB     r0,[sp,#0x16]
000154  f89d1015          LDRB     r1,[sp,#0x15]
000158  e9cd1000          STRD     r1,r0,[sp,#0]
00015c  f89d3014          LDRB     r3,[sp,#0x14]
000160  f89d2018          LDRB     r2,[sp,#0x18]
000164  f89d1019          LDRB     r1,[sp,#0x19]
000168  f89d001a          LDRB     r0,[sp,#0x1a]
00016c  f7fffffe          BL       datatime2str
000170  4601              MOV      r1,r0
000172  2213              MOVS     r2,#0x13
000174  4650              MOV      r0,r10
000176  f7fffffe          BL       __aeabi_memcpy
;;;1954   	index+=20;
;;;1955   
;;;1956   	if(dt[2]=='L')
00017a  f89d001e          LDRB     r0,[sp,#0x1e]
00017e  284c              CMP      r0,#0x4c
000180  d075              BEQ      |L1.622|
;;;1957   		{
;;;1958   		memcpy(&snmp_log[num][40],"@отключился             ",20);
;;;1959   		index=65;
;;;1960   		}
;;;1961   	else if(dt[2]=='T')
000182  2854              CMP      r0,#0x54
000184  d074              BEQ      |L1.624|
;;;1962   		{
;;;1963   		memcpy(&snmp_log[num][index],"@ перегрев   ",10);
;;;1964   		index+=10;
;;;1965   		}		
;;;1966   	else if(dt[2]=='U')
000186  2855              CMP      r0,#0x55
000188  d073              BEQ      |L1.626|
;;;1967   		{
;;;1968   		memcpy(&snmp_log[num][index],"@ завышено Uвых.  ",16);
;;;1969   		index+=16;
;;;1970   		}		
;;;1971   	else if(dt[2]=='u')
00018a  2875              CMP      r0,#0x75
00018c  d072              BEQ      |L1.628|
;;;1972   		{
;;;1973   		memcpy(&snmp_log[num][index],"@ занижено Uвых.  ",16);
;;;1974   		index+=16;
;;;1975   		}
;;;1976   	else 		
;;;1977   		{
;;;1978   		memcpy(&snmp_log[num][index],"@ фигня  ",7);
00018e  a0ac              ADR      r0,|L1.1088|
000190  6801              LDR      r1,[r0,#0]
000192  f8c41029          STR      r1,[r4,#0x29]
000196  8880              LDRH     r0,[r0,#4]
000198  f8a4002d          STRH     r0,[r4,#0x2d]
00019c  f04f00ff          MOV      r0,#0xff
0001a0  f884002f          STRB     r0,[r4,#0x2f]
;;;1979   		index+=7;
0001a4  f04f0530          MOV      r5,#0x30
                  |L1.424|
;;;1980   		}
;;;1981   
;;;1982   
;;;1983   	if((dt___[0]=='A')&&(dt___[1]=='A'))
0001a8  f89d0010          LDRB     r0,[sp,#0x10]
0001ac  2841              CMP      r0,#0x41
0001ae  d07d              BEQ      |L1.684|
0001b0  e2b3              B        |L1.1818|
                  |L1.434|
0001b2  f89d001e          LDRB     r0,[sp,#0x1e]         ;1643
0001b6  2852              CMP      r0,#0x52              ;1643
0001b8  d10a              BNE      |L1.464|
0001ba  f89d0018          LDRB     r0,[sp,#0x18]         ;1645
0001be  9000              STR      r0,[sp,#0]            ;1645
0001c0  f89d3019          LDRB     r3,[sp,#0x19]         ;1645
0001c4  f89d201a          LDRB     r2,[sp,#0x1a]         ;1645
0001c8  a1a0              ADR      r1,|L1.1100|
0001ca  4620              MOV      r0,r4                 ;1645
0001cc  f7fffffe          BL       __2sprintf
                  |L1.464|
;;;1984   		{
;;;1985   		memcpy(&snmp_log[num][index],", не устранена  ",15);
;;;1986   		index+=15;
;;;1987   		}
;;;1988   	else 
;;;1989   		{
;;;1990   		memcpy(&snmp_log[num][index],",  устранена   ",13);
;;;1991   		index+=13;
;;;1992   			
;;;1993   		memcpy(&snmp_log[num][index],datatime2str(dt___[2],dt___[1],dt___[0],dt____[0],dt____[1],dt____[2]),19);
;;;1994   
;;;1995   
;;;1996   		    /*
;;;1997   			ptrs[4]="  0[]  0< 0>:0=:0)  ";
;;;1998   			bgnd_par(ptrs[index_set],ptrs[1+index_set],ptrs[2+index_set],ptrs[3+index_set]);
;;;1999   			int2lcd(av_data_off[4],'>',0);
;;;2000   			int2lcd(av_data_off[5],'=',0);
;;;2001   			int2lcd(av_data_off[6],')',0);
;;;2002   			int2lcd(av_data_off[2],'[',0);
;;;2003   			int2lcd(av_data_off[0],'<',0); 
;;;2004   			if(!((av_data_off[1]>=1)&&(av_data_off[1]<=12)))av_data_off[1]=1;
;;;2005   			sub_bgnd(sm_mont[av_data_off[1]],']',0);   */
;;;2006   
;;;2007   
;;;2008   
;;;2009   
;;;2010   
;;;2011    /*
;;;2012   		ptrs[0]="   Авария БПС N+    ";
;;;2013   		
;;;2014   		if(av_head[2]=='L')
;;;2015   			{
;;;2016   			ptrs[1]="     отключился     ";
;;;2017   			}
;;;2018   		else if(av_head[2]=='T')
;;;2019   			{
;;;2020   			ptrs[1]="      перегрев      ";
;;;2021   			}		
;;;2022   		else if(av_head[2]=='U')
;;;2023   			{
;;;2024   			ptrs[1]="   завышено Uвых.   ";
;;;2025   			}		
;;;2026   		else if(av_head[2]=='u')
;;;2027   			{
;;;2028   			ptrs[1]="   занижено Uвых.   ";
;;;2029   			}								
;;;2030   		
;;;2031   		
;;;2032   		ptrs[2]="  0%(  0^ 0@:0#:0$  ";
;;;2033   			
;;;2034   						
;;;2035   			}	
;;;2036   		int2lcd(av_head[1]+1,'+',0);
;;;2037   		int2lcd(av_data_on[4],'@',0);
;;;2038   		int2lcd(av_data_on[5],'#',0);
;;;2039   		int2lcd(av_data_on[6],'$',0);
;;;2040   		int2lcd(av_data_on[2],'%',0);
;;;2041   		int2lcd(av_data_on[0],'^',0); 
;;;2042   		if(!((av_data_on[1]>=1)&&(av_data_on[1]<=12)))av_data_on[1]=1;
;;;2043   		sub_bgnd(sm_mont[av_data_on[1]],'(',0);
;;;2044   		*/
;;;2045   	    }
;;;2046   
;;;2047   
;;;2048   
;;;2049   /*    	lcd_buffer[iii++]='Б';
;;;2050       	lcd_buffer[iii++]='П';
;;;2051       	lcd_buffer[iii++]='С';
;;;2052    	if(dt[1]<9)
;;;2053       		{
;;;2054       		lcd_buffer[iii++]=0x31+dt[1];
;;;2055       		lcd_buffer[iii++]=' ';
;;;2056       		}
;;;2057       	else if((dt[1]>=9)&&(dt[1]<99))
;;;2058       		{
;;;2059       		lcd_buffer[iii++]=0x30+((dt[1]+1)/10);
;;;2060       		lcd_buffer[iii++]=0x30+((dt[1]+1)%10);
;;;2061       		}
;;;2062       	else 
;;;2063       		{
;;;2064       		lcd_buffer[iii++]=' ';
;;;2065       		lcd_buffer[iii++]=' ';     		
;;;2066       		} 
;;;2067       	lcd_buffer[iii++]=' '; 
;;;2068       	lcd_buffer[iii++]=' ';
;;;2069       	
;;;2070       	if((dt_[0]==LPC_RTC->YEAR)&&(dt_[1]==LPC_RTC->MONTH)&&(dt_[2]==LPC_RTC->DOM))
;;;2071       		{
;;;2072       	    	lcd_buffer[iii++]='0';
;;;2073       		lcd_buffer[iii++]='!';
;;;2074       	    	lcd_buffer[iii++]=':'; 
;;;2075       		lcd_buffer[iii++]='0';
;;;2076       		lcd_buffer[iii++]='@';
;;;2077       		lcd_buffer[iii++]=':';
;;;2078       		lcd_buffer[iii++]='0';
;;;2079       		lcd_buffer[iii++]='#';
;;;2080       	    	int2lcd(dt__[0],'!',0);
;;;2081       		int2lcd(dt__[1],'@',0);
;;;2082       		int2lcd(dt__[2],'#',0);    		     		
;;;2083       		}	                   
;;;2084    	else      	
;;;2085       		{
;;;2086       	 	lcd_buffer[iii++]=' ';
;;;2087       		lcd_buffer[iii++]='0';
;;;2088       		lcd_buffer[iii++]='!';
;;;2089       		lcd_buffer[iii++]='@'; 
;;;2090       		lcd_buffer[iii++]=' ';
;;;2091       		lcd_buffer[iii++]=' ';
;;;2092       		lcd_buffer[iii++]='0';
;;;2093       		lcd_buffer[iii++]='#';
;;;2094       		int2lcd(dt_[2],'!',0);
;;;2095       		int2lcd(dt_[0],'#',0);   
;;;2096       		if(!((dt_[1]>=1)&&(dt_[1]<=12)))dt_[1]=1;
;;;2097   		sub_bgnd(sm_mont[dt_[1]],'@',0);  
;;;2098   		} */   	
;;;2099       	}
;;;2100     /*   	
;;;2101   else if(dt[0]=='B')
;;;2102       	{
;;;2103       	lcd_buffer[iii++]='Б';
;;;2104       	lcd_buffer[iii++]='а';
;;;2105       	lcd_buffer[iii++]='т';
;;;2106    	if(dt[1]<9)
;;;2107       		{
;;;2108       		lcd_buffer[iii++]=0x31+dt[1];
;;;2109       		lcd_buffer[iii++]=' ';
;;;2110       		}
;;;2111       	else if((dt[1]>=9)&&(dt[1]<99))
;;;2112       		{
;;;2113       		lcd_buffer[iii++]=0x30+((dt[1]+1)/10);
;;;2114       		lcd_buffer[iii++]=0x30+((dt[1]+1)%10);
;;;2115       		}
;;;2116       	else 
;;;2117       		{
;;;2118       		lcd_buffer[iii++]=' ';
;;;2119       		lcd_buffer[iii++]=' ';     		
;;;2120       		} 
;;;2121       	lcd_buffer[iii++]=' ';
;;;2122       	}     	    
;;;2123   else if(dt[0]=='I')
;;;2124       	{
;;;2125       	lcd_buffer[iii++]='И';
;;;2126       	lcd_buffer[iii++]='н';
;;;2127       	lcd_buffer[iii++]='в';
;;;2128   	if(dt[1]<9)
;;;2129       		{
;;;2130       		lcd_buffer[iii++]=0x31+dt[1];
;;;2131       		lcd_buffer[iii++]=' ';
;;;2132       		}
;;;2133       	else if((dt[1]>=9)&&(dt[1]<99))
;;;2134       		{
;;;2135       		lcd_buffer[iii++]=0x30+((dt[1]+1)/10);
;;;2136       		lcd_buffer[iii++]=0x30+((dt[1]+1)%10);
;;;2137       		}
;;;2138       	else 
;;;2139       		{
;;;2140       		lcd_buffer[iii++]=' ';
;;;2141       		lcd_buffer[iii++]=' ';     		
;;;2142       		} 
;;;2143       	lcd_buffer[iii++]=' ';
;;;2144       	} */   
;;;2145   }
0001d0  b008              ADD      sp,sp,#0x20
0001d2  e8bd87f0          POP      {r4-r10,pc}
                  |L1.470|
0001d6  2217              MOVS     r2,#0x17              ;1653
0001d8  a1a6              ADR      r1,|L1.1140|
0001da  4620              MOV      r0,r4                 ;1653
0001dc  f7fffffe          BL       __aeabi_memcpy
0001e0  f89d0016          LDRB     r0,[sp,#0x16]         ;1655
0001e4  f89d1015          LDRB     r1,[sp,#0x15]         ;1655
0001e8  e9cd1000          STRD     r1,r0,[sp,#0]         ;1655
0001ec  f89d3014          LDRB     r3,[sp,#0x14]         ;1655
0001f0  f89d2018          LDRB     r2,[sp,#0x18]         ;1655
0001f4  f89d1019          LDRB     r1,[sp,#0x19]         ;1655
0001f8  f89d001a          LDRB     r0,[sp,#0x1a]         ;1655
0001fc  f7fffffe          BL       datatime2str
000200  4601              MOV      r1,r0                 ;1655
000202  f1040017          ADD      r0,r4,#0x17           ;1655
000206  2213              MOVS     r2,#0x13              ;1655
000208  f7fffffe          BL       __aeabi_memcpy
00020c  f884802a          STRB     r8,[r4,#0x2a]         ;1657
000210  4882              LDR      r0,|L1.1052|
000212  f89d2010          LDRB     r2,[sp,#0x10]         ;1660
000216  eb0010c6          ADD      r0,r0,r6,LSL #7       ;1623
00021a  302b              ADDS     r0,r0,#0x2b           ;1662
00021c  2a41              CMP      r2,#0x41              ;1660
00021e  d105              BNE      |L1.556|
000220  f89d1011          LDRB     r1,[sp,#0x11]         ;1660
000224  2941              CMP      r1,#0x41              ;1660
000226  e000              B        |L1.554|
                  |L1.552|
000228  e02a              B        |L1.640|
                  |L1.554|
00022a  d024              BEQ      |L1.630|
                  |L1.556|
00022c  a098              ADR      r0,|L1.1168|
00022e  6801              LDR      r1,[r0,#0]            ;1667
000230  f8c4102b          STR      r1,[r4,#0x2b]         ;1667
000234  6841              LDR      r1,[r0,#4]            ;1667
000236  f8c4102f          STR      r1,[r4,#0x2f]         ;1667
00023a  8900              LDRH     r0,[r0,#8]            ;1667
00023c  f8a40033          STRH     r0,[r4,#0x33]         ;1667
000240  f8847035          STRB     r7,[r4,#0x35]         ;1667
000244  f89d000e          LDRB     r0,[sp,#0xe]          ;1670
000248  f89d100d          LDRB     r1,[sp,#0xd]          ;1670
00024c  e9cd1000          STRD     r1,r0,[sp,#0]         ;1670
000250  f89d300c          LDRB     r3,[sp,#0xc]          ;1670
000254  f89d1011          LDRB     r1,[sp,#0x11]         ;1670
000258  f89d0012          LDRB     r0,[sp,#0x12]         ;1670
00025c  f7fffffe          BL       datatime2str
000260  4601              MOV      r1,r0                 ;1670
000262  f1040036          ADD      r0,r4,#0x36           ;1670
000266  2213              MOVS     r2,#0x13              ;1670
000268  f7fffffe          BL       __aeabi_memcpy
                  |L1.620|
00026c  e7b0              B        |L1.464|
                  |L1.622|
00026e  e22a              B        |L1.1734|
                  |L1.624|
000270  e232              B        |L1.1752|
                  |L1.626|
000272  e23e              B        |L1.1778|
                  |L1.628|
000274  e245              B        |L1.1794|
                  |L1.630|
000276  220d              MOVS     r2,#0xd               ;1662
000278  a189              ADR      r1,|L1.1184|
00027a  f7fffffe          BL       __aeabi_memcpy
00027e  e7a7              B        |L1.464|
                  |L1.640|
000280  f04f0500          MOV      r5,#0                 ;1677
000284  f89d001e          LDRB     r0,[sp,#0x1e]         ;1678
000288  2843              CMP      r0,#0x43              ;1678
00028a  d150              BNE      |L1.814|
00028c  2215              MOVS     r2,#0x15              ;1680
00028e  a188              ADR      r1,|L1.1200|
000290  4620              MOV      r0,r4                 ;1680
000292  f7fffffe          BL       __aeabi_memcpy
000296  f89d0016          LDRB     r0,[sp,#0x16]         ;1682
00029a  f89d1015          LDRB     r1,[sp,#0x15]         ;1682
00029e  e9cd1000          STRD     r1,r0,[sp,#0]         ;1682
0002a2  f89d3014          LDRB     r3,[sp,#0x14]         ;1682
0002a6  f89d2018          LDRB     r2,[sp,#0x18]         ;1682
0002aa  e000              B        |L1.686|
                  |L1.684|
0002ac  e231              B        |L1.1810|
                  |L1.686|
0002ae  f89d1019          LDRB     r1,[sp,#0x19]         ;1682
0002b2  f89d001a          LDRB     r0,[sp,#0x1a]         ;1682
0002b6  f7fffffe          BL       datatime2str
0002ba  4601              MOV      r1,r0                 ;1682
0002bc  2213              MOVS     r2,#0x13              ;1682
0002be  4650              MOV      r0,r10                ;1682
0002c0  f7fffffe          BL       __aeabi_memcpy
0002c4  f8848028          STRB     r8,[r4,#0x28]         ;1685
0002c8  2216              MOVS     r2,#0x16              ;1688
0002ca  a17f              ADR      r1,|L1.1224|
0002cc  4648              MOV      r0,r9                 ;1688
0002ce  f7fffffe          BL       __aeabi_memcpy
0002d2  4852              LDR      r0,|L1.1052|
0002d4  f89d2010          LDRB     r2,[sp,#0x10]         ;1691
0002d8  eb0010c6          ADD      r0,r0,r6,LSL #7       ;1623
0002dc  303f              ADDS     r0,r0,#0x3f           ;1693
0002de  2a41              CMP      r2,#0x41              ;1691
0002e0  d103              BNE      |L1.746|
0002e2  f89d1011          LDRB     r1,[sp,#0x11]         ;1691
0002e6  2941              CMP      r1,#0x41              ;1691
0002e8  d026              BEQ      |L1.824|
                  |L1.746|
0002ea  a069              ADR      r0,|L1.1168|
0002ec  6801              LDR      r1,[r0,#0]            ;1698
0002ee  f8c4103f          STR      r1,[r4,#0x3f]         ;1698
0002f2  6841              LDR      r1,[r0,#4]            ;1698
0002f4  f8c41043          STR      r1,[r4,#0x43]         ;1698
0002f8  8900              LDRH     r0,[r0,#8]            ;1698
0002fa  f8a40047          STRH     r0,[r4,#0x47]         ;1698
0002fe  f8847049          STRB     r7,[r4,#0x49]         ;1698
000302  f04f054a          MOV      r5,#0x4a              ;1699
000306  f89d000e          LDRB     r0,[sp,#0xe]          ;1700
00030a  f89d100d          LDRB     r1,[sp,#0xd]          ;1700
00030e  e9cd1000          STRD     r1,r0,[sp,#0]         ;1700
000312  f89d300c          LDRB     r3,[sp,#0xc]          ;1700
000316  f89d1011          LDRB     r1,[sp,#0x11]         ;1700
00031a  f89d0012          LDRB     r0,[sp,#0x12]         ;1700
00031e  f7fffffe          BL       datatime2str
000322  4601              MOV      r1,r0                 ;1700
000324  f104004a          ADD      r0,r4,#0x4a           ;1700
000328  2213              MOVS     r2,#0x13              ;1700
00032a  f7fffffe          BL       __aeabi_memcpy
                  |L1.814|
00032e  f89d001e          LDRB     r0,[sp,#0x1e]         ;1704
000332  285a              CMP      r0,#0x5a              ;1704
000334  d007              BEQ      |L1.838|
000336  e053              B        |L1.992|
                  |L1.824|
000338  220d              MOVS     r2,#0xd               ;1693
00033a  a159              ADR      r1,|L1.1184|
00033c  f7fffffe          BL       __aeabi_memcpy
000340  f04f054c          MOV      r5,#0x4c              ;1694
000344  e7f3              B        |L1.814|
                  |L1.838|
000346  1960              ADDS     r0,r4,r5              ;1707
000348  2220              MOVS     r2,#0x20              ;1707
00034a  a165              ADR      r1,|L1.1248|
00034c  f7fffffe          BL       __aeabi_memcpy
000350  f1050520          ADD      r5,r5,#0x20           ;1708
000354  b2ed              UXTB     r5,r5                 ;1708
000356  f89d0016          LDRB     r0,[sp,#0x16]         ;1709
00035a  f89d1015          LDRB     r1,[sp,#0x15]         ;1709
00035e  e9cd1000          STRD     r1,r0,[sp,#0]         ;1709
000362  f89d3014          LDRB     r3,[sp,#0x14]         ;1709
000366  f89d2018          LDRB     r2,[sp,#0x18]         ;1709
00036a  f89d1019          LDRB     r1,[sp,#0x19]         ;1709
00036e  f89d001a          LDRB     r0,[sp,#0x1a]         ;1709
000372  f7fffffe          BL       datatime2str
000376  4601              MOV      r1,r0                 ;1709
000378  1960              ADDS     r0,r4,r5              ;1709
00037a  2213              MOVS     r2,#0x13              ;1709
00037c  f7fffffe          BL       __aeabi_memcpy
000380  f1050513          ADD      r5,r5,#0x13           ;1710
000384  b2e8              UXTB     r0,r5                 ;1710
000386  f8048000          STRB     r8,[r4,r0]            ;1712
00038a  f1000001          ADD      r0,r0,#1              ;1713
00038e  b2c5              UXTB     r5,r0                 ;1713
000390  f89d2010          LDRB     r2,[sp,#0x10]         ;1715
000394  2a41              CMP      r2,#0x41              ;1715
000396  d103              BNE      |L1.928|
000398  f89d0011          LDRB     r0,[sp,#0x11]         ;1715
00039c  2841              CMP      r0,#0x41              ;1715
00039e  d02a              BEQ      |L1.1014|
                  |L1.928|
0003a0  a158              ADR      r1,|L1.1284|
0003a2  eb040005          ADD      r0,r4,r5              ;1722
0003a6  680b              LDR      r3,[r1,#0]            ;1722
0003a8  6003              STR      r3,[r0,#0]            ;1722
0003aa  684b              LDR      r3,[r1,#4]            ;1722
0003ac  6043              STR      r3,[r0,#4]            ;1722
0003ae  8909              LDRH     r1,[r1,#8]            ;1722
0003b0  8101              STRH     r1,[r0,#8]            ;1722
0003b2  7287              STRB     r7,[r0,#0xa]          ;1722
0003b4  f105050b          ADD      r5,r5,#0xb            ;1723
0003b8  b2ed              UXTB     r5,r5                 ;1723
0003ba  f89d000e          LDRB     r0,[sp,#0xe]          ;1724
0003be  f89d100d          LDRB     r1,[sp,#0xd]          ;1724
0003c2  e9cd1000          STRD     r1,r0,[sp,#0]         ;1724
0003c6  f89d300c          LDRB     r3,[sp,#0xc]          ;1724
0003ca  f89d1011          LDRB     r1,[sp,#0x11]         ;1724
0003ce  f89d0012          LDRB     r0,[sp,#0x12]         ;1724
0003d2  f7fffffe          BL       datatime2str
0003d6  4601              MOV      r1,r0                 ;1724
0003d8  1960              ADDS     r0,r4,r5              ;1724
0003da  2213              MOVS     r2,#0x13              ;1724
0003dc  f7fffffe          BL       __aeabi_memcpy
                  |L1.992|
0003e0  f89d001e          LDRB     r0,[sp,#0x1e]         ;1828
0003e4  284b              CMP      r0,#0x4b              ;1828
0003e6  f47faf41          BNE      |L1.620|
0003ea  1960              ADDS     r0,r4,r5              ;1831
0003ec  221d              MOVS     r2,#0x1d              ;1831
0003ee  a149              ADR      r1,|L1.1300|
0003f0  f7fffffe          BL       __aeabi_memcpy
0003f4  e09e              B        |L1.1332|
                  |L1.1014|
0003f6  e0c2              B        |L1.1406|
                  |L1.1016|
0003f8  30302fff          DCB      "00/",255,237,226,"/00  00:00:00       ",0
0003fc  ede22f30
000400  30202030
000404  303a3030
000408  3a303020
00040c  20202020
000410  202000  
000413  00                DCB      0
                  |L1.1044|
                          DCD      ||.bss||
                  |L1.1048|
                          DCD      sm_mont
                  |L1.1052|
                          DCD      ||.data||+0x190
                  |L1.1056|
                          DCD      ||.constdata||
                  |L1.1060|
000424  c1cfd120          DCB      193,207,209," ",185,"      ",0
000428  b9202020
00042c  20202000
                  |L1.1072|
000430  202020c0          DCB      "   ",192,226,224,240,232,255,"!!!@  ",0
000434  e2e0f0e8
000438  ff212121
00043c  40202000
                  |L1.1088|
000440  4020f4e8          DCB      "@ ",244,232,227,237,255,"  ",0
000444  e3edff20
000448  2000    
00044a  00                DCB      0
00044b  00                DCB      0
                  |L1.1100|
00044c  506f7765          DCB      "Power on or restart system %2d:%2d:%2d:",0
000450  72206f6e
000454  206f7220
000458  72657374
00045c  61727420
000460  73797374
000464  656d2025
000468  32643a25
00046c  32643a25
000470  32643a00
                  |L1.1140|
000474  c0e2e0f0          DCB      192,226,224,240,232,255," ",239,232,242,224,254,249,229,233
000478  e8ff20ef
00047c  e8f2e0fe
000480  f9e5e9  
000483  20f1e5f2          DCB      " ",241,229,242,232," @  ",0
000487  e8204020
00048b  2000    
00048d  00                DCB      0
00048e  00                DCB      0
00048f  00                DCB      0
                  |L1.1168|
000490  20f3f1f2          DCB      " ",243,241,242,240,224,237,229,237,224,"   ",0
000494  f0e0ede5
000498  ede02020
00049c  2000    
00049e  00                DCB      0
00049f  00                DCB      0
                  |L1.1184|
0004a0  20ede520          DCB      " ",237,229," ",243,241,242,240,224,237,229,237,224,"  ",0
0004a4  f3f1f2f0
0004a8  e0ede5ed
0004ac  e0202000
                  |L1.1200|
0004b0  c1e0f2e0          DCB      193,224,242,224,240,229,255,".  ",192,226,224,240,232,255
0004b4  f0e5ff2e
0004b8  2020c0e2
0004bc  e0f0e8ff
0004c0  21212120          DCB      "!!! @  ",0
0004c4  40202000
                  |L1.1224|
0004c8  c1e0f2e0          DCB      193,224,242,224,240,229,255," ",237,229," ",238,225,237,224
0004cc  f0e5ff20
0004d0  ede520ee
0004d4  e1ede0  
0004d7  f0f3e6e5          DCB      240,243,230,229,237,224,", ",0
0004db  ede02c20
0004df  00      
                  |L1.1248|
0004e0  c1e0f2e0          DCB      193,224,242,224,240,229,255,".  ",194,251,240,224,226,237
0004e4  f0e5ff2e
0004e8  2020c2fb
0004ec  f0e0e2ed
0004f0  e8e2e0fe          DCB      232,226,224,254,249,232,233," ",231,224,240,255,228," @ "
0004f4  f9e8e920
0004f8  e7e0f0ff
0004fc  e4204020
000500  2000              DCB      " ",0
000502  00                DCB      0
000503  00                DCB      0
                  |L1.1284|
000504  20e7e0e2          DCB      " ",231,224,226,229,240,248,229,237,"   ",0
000508  e5f0f8e5
00050c  ed202020
000510  00      
000511  00                DCB      0
000512  00                DCB      0
000513  00                DCB      0
                  |L1.1300|
000514  c1e0f2e0          DCB      193,224,242,224,240,229,255,".  ",202,238,237,242,240,238
000518  f0e5ff2e
00051c  2020caee
000520  edf2f0ee
000524  ebfc20e5          DCB      235,252," ",229,236,234,238,241,242,232," @  ",0
000528  eceaeef1
00052c  f2e82040
000530  202000  
000533  00                DCB      0
                  |L1.1332|
000534  f105051d          ADD      r5,r5,#0x1d           ;1832
000538  b2ed              UXTB     r5,r5                 ;1832
00053a  f89d0016          LDRB     r0,[sp,#0x16]         ;1833
00053e  f89d1015          LDRB     r1,[sp,#0x15]         ;1833
000542  e9cd1000          STRD     r1,r0,[sp,#0]         ;1833
000546  f89d3014          LDRB     r3,[sp,#0x14]         ;1833
00054a  f89d2018          LDRB     r2,[sp,#0x18]         ;1833
00054e  f89d1019          LDRB     r1,[sp,#0x19]         ;1833
000552  f89d001a          LDRB     r0,[sp,#0x1a]         ;1833
000556  f7fffffe          BL       datatime2str
00055a  4601              MOV      r1,r0                 ;1833
00055c  1960              ADDS     r0,r4,r5              ;1833
00055e  2213              MOVS     r2,#0x13              ;1833
000560  f7fffffe          BL       __aeabi_memcpy
000564  f1050513          ADD      r5,r5,#0x13           ;1834
000568  b2e8              UXTB     r0,r5                 ;1834
00056a  f8048000          STRB     r8,[r4,r0]            ;1836
00056e  f1000001          ADD      r0,r0,#1              ;1837
000572  b2c1              UXTB     r1,r0                 ;1837
000574  f89d2010          LDRB     r2,[sp,#0x10]         ;1839
000578  2a41              CMP      r2,#0x41              ;1839
00057a  d009              BEQ      |L1.1424|
00057c  e00c              B        |L1.1432|
                  |L1.1406|
00057e  1960              ADDS     r0,r4,r5              ;1717
000580  220d              MOVS     r2,#0xd               ;1717
000582  a1ff              ADR      r1,|L1.2432|
000584  f7fffffe          BL       __aeabi_memcpy
000588  f105050d          ADD      r5,r5,#0xd            ;1718
00058c  b2ed              UXTB     r5,r5                 ;1718
00058e  e727              B        |L1.992|
                  |L1.1424|
000590  f89d0011          LDRB     r0,[sp,#0x11]         ;1839
000594  2841              CMP      r0,#0x41              ;1839
000596  d048              BEQ      |L1.1578|
                  |L1.1432|
000598  eb040001          ADD      r0,r4,r1              ;1847
00059c  f2af039c          ADR      r3,|L1.1284|
0005a0  681d              LDR      r5,[r3,#0]            ;1847
0005a2  6005              STR      r5,[r0,#0]            ;1847
0005a4  685d              LDR      r5,[r3,#4]            ;1847
0005a6  6045              STR      r5,[r0,#4]            ;1847
0005a8  891b              LDRH     r3,[r3,#8]            ;1847
0005aa  8103              STRH     r3,[r0,#8]            ;1847
0005ac  7287              STRB     r7,[r0,#0xa]          ;1847
0005ae  f101010b          ADD      r1,r1,#0xb            ;1848
0005b2  b2cd              UXTB     r5,r1                 ;1848
0005b4  f89d000e          LDRB     r0,[sp,#0xe]          ;1849
0005b8  f89d100d          LDRB     r1,[sp,#0xd]          ;1849
0005bc  e9cd1000          STRD     r1,r0,[sp,#0]         ;1849
0005c0  f89d300c          LDRB     r3,[sp,#0xc]          ;1849
0005c4  f89d1011          LDRB     r1,[sp,#0x11]         ;1849
0005c8  f89d0012          LDRB     r0,[sp,#0x12]         ;1849
0005cc  f7fffffe          BL       datatime2str
0005d0  4601              MOV      r1,r0                 ;1849
0005d2  442c              ADD      r4,r4,r5              ;1849
0005d4  2213              MOVS     r2,#0x13              ;1849
0005d6  4620              MOV      r0,r4                 ;1849
0005d8  f7fffffe          BL       __aeabi_memcpy
0005dc  2227              MOVS     r2,#0x27              ;1850
0005de  a1ec              ADR      r1,|L1.2448|
0005e0  4620              MOV      r0,r4                 ;1850
0005e2  f7fffffe          BL       __aeabi_memcpy
0005e6  f89d001b          LDRB     r0,[sp,#0x1b]         ;1852
0005ea  f89d1017          LDRB     r1,[sp,#0x17]         ;1852
0005ee  eb002001          ADD      r0,r0,r1,LSL #8       ;1852
0005f2  b202              SXTH     r2,r0                 ;1852
0005f4  f04f010a          MOV      r1,#0xa               ;1854
0005f8  fb92f0f1          SDIV     r0,r2,r1              ;1854
0005fc  fb012210          MLS      r2,r1,r0,r2           ;1854
000600  f1020230          ADD      r2,r2,#0x30           ;1854
000604  72a2              STRB     r2,[r4,#0xa]          ;1854
000606  b202              SXTH     r2,r0                 ;1855
000608  fb92f0f1          SDIV     r0,r2,r1              ;1856
00060c  fb012210          MLS      r2,r1,r0,r2           ;1856
000610  f1020230          ADD      r2,r2,#0x30           ;1856
000614  7222              STRB     r2,[r4,#8]            ;1856
000616  b200              SXTH     r0,r0                 ;1857
000618  b168              CBZ      r0,|L1.1590|
00061a  fb90f2f1          SDIV     r2,r0,r1              ;1858
00061e  fb010012          MLS      r0,r1,r2,r0           ;1858
000622  f1000030          ADD      r0,r0,#0x30           ;1858
000626  71e0              STRB     r0,[r4,#7]            ;1858
000628  e006              B        |L1.1592|
                  |L1.1578|
00062a  1860              ADDS     r0,r4,r1              ;1841
00062c  220d              MOVS     r2,#0xd               ;1841
00062e  a1d4              ADR      r1,|L1.2432|
000630  f7fffffe          BL       __aeabi_memcpy
000634  e5cc              B        |L1.464|
                  |L1.1590|
000636  71e7              STRB     r7,[r4,#7]            ;1859
                  |L1.1592|
000638  f89d000a          LDRB     r0,[sp,#0xa]          ;1862
00063c  f89d200b          LDRB     r2,[sp,#0xb]          ;1862
000640  eb002002          ADD      r0,r0,r2,LSL #8       ;1862
000644  b200              SXTH     r0,r0                 ;1862
000646  fb90f2f1          SDIV     r2,r0,r1              ;1864
00064a  fb010012          MLS      r0,r1,r2,r0           ;1864
00064e  f1000030          ADD      r0,r0,#0x30           ;1864
000652  75a0              STRB     r0,[r4,#0x16]         ;1864
000654  b210              SXTH     r0,r2                 ;1865
000656  fb90f2f1          SDIV     r2,r0,r1              ;1866
00065a  fb010012          MLS      r0,r1,r2,r0           ;1866
00065e  f1000030          ADD      r0,r0,#0x30           ;1866
000662  7520              STRB     r0,[r4,#0x14]         ;1866
000664  b210              SXTH     r0,r2                 ;1867
000666  b138              CBZ      r0,|L1.1656|
000668  fb90f2f1          SDIV     r2,r0,r1              ;1868
00066c  fb010012          MLS      r0,r1,r2,r0           ;1868
000670  f1000030          ADD      r0,r0,#0x30           ;1868
000674  74e0              STRB     r0,[r4,#0x13]         ;1868
000676  e000              B        |L1.1658|
                  |L1.1656|
000678  74e7              STRB     r7,[r4,#0x13]         ;1869
                  |L1.1658|
00067a  f89d0008          LDRB     r0,[sp,#8]            ;1872
00067e  f89d2009          LDRB     r2,[sp,#9]            ;1872
000682  eb002002          ADD      r0,r0,r2,LSL #8       ;1872
000686  b200              SXTH     r0,r0                 ;1872
000688  fb90f2f1          SDIV     r2,r0,r1              ;1874
00068c  fb010012          MLS      r0,r1,r2,r0           ;1874
000690  f1000030          ADD      r0,r0,#0x30           ;1874
000694  f8840023          STRB     r0,[r4,#0x23]         ;1874
000698  b210              SXTH     r0,r2                 ;1875
00069a  fb90f2f1          SDIV     r2,r0,r1              ;1876
00069e  fb010012          MLS      r0,r1,r2,r0           ;1876
0006a2  f1000030          ADD      r0,r0,#0x30           ;1876
0006a6  f8840021          STRB     r0,[r4,#0x21]         ;1876
0006aa  b210              SXTH     r0,r2                 ;1877
0006ac  b140              CBZ      r0,|L1.1728|
0006ae  fb90f2f1          SDIV     r2,r0,r1              ;1878
0006b2  fb010012          MLS      r0,r1,r2,r0           ;1878
0006b6  f1000030          ADD      r0,r0,#0x30           ;1878
0006ba  f8840020          STRB     r0,[r4,#0x20]         ;1878
0006be  e587              B        |L1.464|
                  |L1.1728|
0006c0  f8847020          STRB     r7,[r4,#0x20]         ;1879
0006c4  e584              B        |L1.464|
                  |L1.1734|
0006c6  f1040028          ADD      r0,r4,#0x28           ;1958
0006ca  2214              MOVS     r2,#0x14              ;1958
0006cc  a1bb              ADR      r1,|L1.2492|
0006ce  f7fffffe          BL       __aeabi_memcpy
0006d2  f04f0541          MOV      r5,#0x41              ;1959
0006d6  e567              B        |L1.424|
                  |L1.1752|
0006d8  a0bf              ADR      r0,|L1.2520|
0006da  6801              LDR      r1,[r0,#0]            ;1963
0006dc  f8c41029          STR      r1,[r4,#0x29]         ;1963
0006e0  6841              LDR      r1,[r0,#4]            ;1963
0006e2  f8c4102d          STR      r1,[r4,#0x2d]         ;1963
0006e6  8900              LDRH     r0,[r0,#8]            ;1963
0006e8  f8a40031          STRH     r0,[r4,#0x31]         ;1963
0006ec  f04f0533          MOV      r5,#0x33              ;1964
0006f0  e55a              B        |L1.424|
                  |L1.1778|
0006f2  2210              MOVS     r2,#0x10              ;1968
0006f4  a1bc              ADR      r1,|L1.2536|
0006f6  4648              MOV      r0,r9                 ;1968
0006f8  f7fffffe          BL       __aeabi_memcpy
0006fc  f04f0539          MOV      r5,#0x39              ;1969
000700  e552              B        |L1.424|
                  |L1.1794|
000702  2210              MOVS     r2,#0x10              ;1973
000704  a1bd              ADR      r1,|L1.2556|
000706  4648              MOV      r0,r9                 ;1973
000708  f7fffffe          BL       __aeabi_memcpy
00070c  f04f0539          MOV      r5,#0x39              ;1974
000710  e54a              B        |L1.424|
                  |L1.1810|
000712  f89d0011          LDRB     r0,[sp,#0x11]         ;1983
000716  2841              CMP      r0,#0x41              ;1983
000718  d01d              BEQ      |L1.1878|
                  |L1.1818|
00071a  1960              ADDS     r0,r4,r5              ;1990
00071c  220d              MOVS     r2,#0xd               ;1990
00071e  a1bc              ADR      r1,|L1.2576|
000720  f7fffffe          BL       __aeabi_memcpy
000724  f105050d          ADD      r5,r5,#0xd            ;1991
000728  b2ed              UXTB     r5,r5                 ;1991
00072a  f89d000e          LDRB     r0,[sp,#0xe]          ;1993
00072e  f89d100d          LDRB     r1,[sp,#0xd]          ;1993
000732  e9cd1000          STRD     r1,r0,[sp,#0]         ;1993
000736  f89d300c          LDRB     r3,[sp,#0xc]          ;1993
00073a  f89d2010          LDRB     r2,[sp,#0x10]         ;1993
00073e  f89d1011          LDRB     r1,[sp,#0x11]         ;1993
000742  f89d0012          LDRB     r0,[sp,#0x12]         ;1993
000746  f7fffffe          BL       datatime2str
00074a  4601              MOV      r1,r0                 ;1993
00074c  1960              ADDS     r0,r4,r5              ;1993
00074e  2213              MOVS     r2,#0x13              ;1993
000750  f7fffffe          BL       __aeabi_memcpy
000754  e53c              B        |L1.464|
                  |L1.1878|
000756  1960              ADDS     r0,r4,r5              ;1985
000758  220f              MOVS     r2,#0xf               ;1985
00075a  a1b1              ADR      r1,|L1.2592|
00075c  f7fffffe          BL       __aeabi_memcpy
000760  e536              B        |L1.464|
;;;2146   
                          ENDP

                  snmp_data PROC
;;;270    //-----------------------------------------------
;;;271    void snmp_data (void) 
000762  e92d5ff0          PUSH     {r4-r12,lr}
;;;272    {
;;;273    char i;
;;;274    
;;;275    for(i=0;i<64;i++) snmp_enmv_number[i]=i+1;
000766  f04f0000          MOV      r0,#0
00076a  4ab2              LDR      r2,|L1.2612|
                  |L1.1900|
00076c  f1000101          ADD      r1,r0,#1
000770  5411              STRB     r1,[r2,r0]
000772  b2c8              UXTB     r0,r1
000774  2840              CMP      r0,#0x40
000776  d3f9              BCC      |L1.1900|
;;;276    
;;;277    snmp_mains_power_voltage=net_U;
000778  f8dfa2bc          LDR      r10,|L1.2616|
00077c  4eaf              LDR      r6,|L1.2620|
00077e  f8ba0000          LDRH     r0,[r10,#0]  ; net_U
000782  8430              STRH     r0,[r6,#0x20]
;;;278    #ifdef UKU_220_IPS_TERMOKOMPENSAT
;;;279    snmp_mains_power_frequency=net_F3;
000784  48ae              LDR      r0,|L1.2624|
000786  8800              LDRH     r0,[r0,#0]  ; net_F3
000788  8470              STRH     r0,[r6,#0x22]
;;;280    #else
;;;281    snmp_mains_power_frequency=net_F;
;;;282    #endif
;;;283    snmp_mains_power_voltage_phaseA=net_Ua;
00078a  48ae              LDR      r0,|L1.2628|
00078c  8800              LDRH     r0,[r0,#0]  ; net_Ua
00078e  8530              STRH     r0,[r6,#0x28]
;;;284    snmp_mains_power_voltage_phaseB=net_Ub;
000790  48ad              LDR      r0,|L1.2632|
000792  8800              LDRH     r0,[r0,#0]  ; net_Ub
000794  8570              STRH     r0,[r6,#0x2a]
;;;285    snmp_mains_power_voltage_phaseC=net_Uc;
000796  48ad              LDR      r0,|L1.2636|
000798  8800              LDRH     r0,[r0,#0]  ; net_Uc
00079a  85b0              STRH     r0,[r6,#0x2c]
;;;286    
;;;287    
;;;288    if(avar_stat&0x0001)snmp_mains_power_alarm=1;
00079c  48ac              LDR      r0,|L1.2640|
00079e  2400              MOVS     r4,#0                 ;275
0007a0  f04f0801          MOV      r8,#1
0007a4  6800              LDR      r0,[r0,#0]  ; avar_stat
0007a6  07c0              LSLS     r0,r0,#31
0007a8  2800              CMP      r0,#0
0007aa  d002              BEQ      |L1.1970|
0007ac  f8a68026          STRH     r8,[r6,#0x26]
0007b0  e000              B        |L1.1972|
                  |L1.1970|
;;;289    else snmp_mains_power_alarm=0;
0007b2  84f4              STRH     r4,[r6,#0x26]
                  |L1.1972|
;;;290    if(avar_stat&0x0001)snmp_mains_power_status=1;
0007b4  d002              BEQ      |L1.1980|
0007b6  f8a68024          STRH     r8,[r6,#0x24]
0007ba  e000              B        |L1.1982|
                  |L1.1980|
;;;291    else snmp_mains_power_status=0;
0007bc  84b4              STRH     r4,[r6,#0x24]
                  |L1.1982|
;;;292    
;;;293    for(i=0;i<3/*snmp_numofevents*/;i++)event2snmp(i);
0007be  f04f0500          MOV      r5,#0
                  |L1.1986|
0007c2  4628              MOV      r0,r5
0007c4  f7fffffe          BL       event2snmp
0007c8  f1050501          ADD      r5,r5,#1
0007cc  b2ed              UXTB     r5,r5
0007ce  2d03              CMP      r5,#3
0007d0  d3f7              BCC      |L1.1986|
;;;294    
;;;295    /*
;;;296    snmp_mains_power_status=0; 
;;;297    #if(UKU_VERSION==900)
;;;298    snmp_mains_power_status=2;
;;;299    #endif
;;;300    if(St&0x01)snmp_mains_power_status|=0x01;
;;;301    if(St&0x01)snmp_mains_power_alarm=1;
;;;302    
;;;303    
;;;304    
;;;305    
;;;306    
;;;307    
;;;308    
;;;309    //snmp_bpsnumber[0]=1;
;;;310    //snmp_bpsnumber[1]=2;
;;;311    
;;;312    
;;;313    snmp_sernum_lsb=0x1122;
;;;314    snmp_sernum_msb=0x3344;
;;;315    
;;;316    
;;;317    //memcpy(snmp_location,"lkhg;la",);
;;;318    
;;;319    
;;;320    snmp_numofbat=1;
;;;321    
;;;322    */
;;;323    snmp_device_code=AUSW_MAIN;
0007d2  48a0              LDR      r0,|L1.2644|
0007d4  4f99              LDR      r7,|L1.2620|
0007d6  3780              ADDS     r7,r7,#0x80
0007d8  8800              LDRH     r0,[r0,#0]  ; AUSW_MAIN
0007da  62f8              STR      r0,[r7,#0x2c]  ; snmp_device_code
;;;324    
;;;325    snmp_sernum=AUSW_MAIN_NUMBER;
0007dc  489e              LDR      r0,|L1.2648|
0007de  6800              LDR      r0,[r0,#0]  ; AUSW_MAIN_NUMBER
0007e0  6338              STR      r0,[r7,#0x30]  ; snmp_sernum
;;;326    
;;;327    snmp_load_voltage=load_U;
0007e2  489e              LDR      r0,|L1.2652|
0007e4  f1060612          ADD      r6,r6,#0x12
0007e8  8800              LDRH     r0,[r0,#0]  ; load_U
0007ea  83b0              STRH     r0,[r6,#0x1c]
;;;328    snmp_load_current=load_I;
0007ec  489c              LDR      r0,|L1.2656|
0007ee  8800              LDRH     r0,[r0,#0]  ; load_I
0007f0  83f0              STRH     r0,[r6,#0x1e]
;;;329    snmp_numofbat=NUMBAT;
0007f2  f8df9270          LDR      r9,|L1.2660|
0007f6  f8b90000          LDRH     r0,[r9,#0]  ; NUMBAT
0007fa  8030              STRH     r0,[r6,#0]
;;;330    snmp_numofbps=NUMIST;
0007fc  4d9a              LDR      r5,|L1.2664|
0007fe  8828              LDRH     r0,[r5,#0]  ; NUMIST
000800  8070              STRH     r0,[r6,#2]
;;;331    snmp_numofinv=NUMINV;
000802  489a              LDR      r0,|L1.2668|
000804  8800              LDRH     r0,[r0,#0]  ; NUMINV
000806  80b0              STRH     r0,[r6,#4]
;;;332    snmp_numofavt=NUMAVT;
000808  4899              LDR      r0,|L1.2672|
00080a  8800              LDRH     r0,[r0,#0]  ; NUMAVT
00080c  80f0              STRH     r0,[r6,#6]
;;;333    snmp_numofdt=NUMDT;
00080e  4899              LDR      r0,|L1.2676|
000810  8800              LDRH     r0,[r0,#0]  ; NUMDT
000812  8130              STRH     r0,[r6,#8]
;;;334    snmp_numofsk=NUMSK;
000814  4898              LDR      r0,|L1.2680|
000816  8800              LDRH     r0,[r0,#0]  ; NUMSK
000818  8170              STRH     r0,[r6,#0xa]
;;;335    snmp_numofevents=lc640_read_int(CNT_EVENT_LOG);
00081a  f6406002          MOV      r0,#0xe02
00081e  f7fffffe          BL       lc640_read_int
000822  81b0              STRH     r0,[r6,#0xc]
;;;336    
;;;337    snmp_energy_vvod_phase_a=Uvv_eb2[0];
000824  4895              LDR      r0,|L1.2684|
000826  8801              LDRH     r1,[r0,#0]  ; Uvv_eb2
000828  84f1              STRH     r1,[r6,#0x26]
;;;338    snmp_energy_vvod_phase_b=Uvv_eb2[1];
00082a  8841              LDRH     r1,[r0,#2]  ; Uvv_eb2
00082c  8531              STRH     r1,[r6,#0x28]
;;;339    snmp_energy_vvod_phase_c=Uvv_eb2[2];
00082e  8880              LDRH     r0,[r0,#4]  ; Uvv_eb2
000830  8570              STRH     r0,[r6,#0x2a]
;;;340    snmp_energy_pes_phase_a=Upes_eb2[0];
000832  4893              LDR      r0,|L1.2688|
000834  8801              LDRH     r1,[r0,#0]  ; Upes_eb2
000836  85b1              STRH     r1,[r6,#0x2c]
;;;341    snmp_energy_pes_phase_b=Upes_eb2[1];
000838  8841              LDRH     r1,[r0,#2]  ; Upes_eb2
00083a  85f1              STRH     r1,[r6,#0x2e]
;;;342    snmp_energy_pes_phase_c=Upes_eb2[2];
00083c  8880              LDRH     r0,[r0,#4]  ; Upes_eb2
00083e  8630              STRH     r0,[r6,#0x30]
;;;343    
;;;344    #ifdef UKU_KONTUR
;;;345    snmp_energy_vvod_phase_a=Uvv0;
;;;346    snmp_energy_pes_phase_a=Uvv[1];
;;;347    #endif
;;;348    
;;;349    snmp_energy_total_energy=power_summary;
000840  4890              LDR      r0,|L1.2692|
000842  6800              LDR      r0,[r0,#0]  ; power_summary
000844  6578              STR      r0,[r7,#0x54]  ; snmp_energy_total_energy
;;;350    snmp_energy_current_energy=power_current;
000846  4890              LDR      r0,|L1.2696|
000848  8800              LDRH     r0,[r0,#0]  ; power_current
00084a  86b0              STRH     r0,[r6,#0x34]
;;;351    snmp_energy_input_voltage=net_U;
00084c  f8ba0000          LDRH     r0,[r10,#0]  ; net_U
000850  8670              STRH     r0,[r6,#0x32]
000852  f1a60612          SUB      r6,r6,#0x12
;;;352    
;;;353    
;;;354    #ifdef UKU_ZVU
;;;355    snmp_bat_number[0]=1;
000856  f1070034          ADD      r0,r7,#0x34
00085a  f8a08000          STRH     r8,[r0,#0]
;;;356    snmp_bat_voltage[0]=out_U;
00085e  488b              LDR      r0,|L1.2700|
000860  f1070138          ADD      r1,r7,#0x38
000864  8800              LDRH     r0,[r0,#0]  ; out_U
000866  8008              STRH     r0,[r1,#0]
;;;357    snmp_bat_current[0]=Ib_ips_termokompensat;
000868  4889              LDR      r0,|L1.2704|
00086a  f1010104          ADD      r1,r1,#4
00086e  f9b00000          LDRSH    r0,[r0,#0]  ; Ib_ips_termokompensat
000872  8008              STRH     r0,[r1,#0]
;;;358    snmp_bat_rem_time[0]=bat_hndl_t_razr_min;
000874  4987              LDR      r1,|L1.2708|
000876  880a              LDRH     r2,[r1,#0]  ; bat_hndl_t_razr_min
000878  f1070150          ADD      r1,r7,#0x50
00087c  800a              STRH     r2,[r1,#0]
;;;359    if(Ib_ips_termokompensat>0)snmp_bat_rem_time[0]=-1;
00087e  f04f32ff          MOV      r2,#0xffffffff
000882  2800              CMP      r0,#0
000884  dd00              BLE      |L1.2184|
000886  800a              STRH     r2,[r1,#0]
                  |L1.2184|
;;;360    snmp_bat_temperature[0]=t_ext[0];
000888  4883              LDR      r0,|L1.2712|
00088a  f9b03000          LDRSH    r3,[r0,#0]  ; t_ext
00088e  486b              LDR      r0,|L1.2620|
000890  30c0              ADDS     r0,r0,#0xc0
000892  8003              STRH     r3,[r0,#0]
;;;361    if(ND_EXT[0])snmp_bat_temperature[0]=-1000;
000894  4981              LDR      r1,|L1.2716|
000896  7809              LDRB     r1,[r1,#0]  ; ND_EXT
000898  b111              CBZ      r1,|L1.2208|
00089a  f64f4118          MOV      r1,#0xfc18
00089e  8001              STRH     r1,[r0,#0]
                  |L1.2208|
;;;362    snmp_bat_capacity[0]=BAT_C_POINT_20;
0008a0  487f              LDR      r0,|L1.2720|
0008a2  8801              LDRH     r1,[r0,#0]  ; BAT_C_POINT_20
0008a4  4865              LDR      r0,|L1.2620|
0008a6  30c4              ADDS     r0,r0,#0xc4
0008a8  8001              STRH     r1,[r0,#0]
;;;363    snmp_bat_charge[0]=(bat_hndl_zvu_Q/10000L);
0008aa  487e              LDR      r0,|L1.2724|
0008ac  f2427110          MOV      r1,#0x2710
0008b0  6800              LDR      r0,[r0,#0]  ; bat_hndl_zvu_Q
0008b2  fb90f0f1          SDIV     r0,r0,r1
0008b6  4961              LDR      r1,|L1.2620|
0008b8  f10101c8          ADD      r1,r1,#0xc8
0008bc  8008              STRH     r0,[r1,#0]
;;;364    snmp_bat_status[0]=bat_ips._av&1;
0008be  487a              LDR      r0,|L1.2728|
0008c0  f890003d          LDRB     r0,[r0,#0x3d]  ; bat_ips
0008c4  f0000101          AND      r1,r0,#1
0008c8  485c              LDR      r0,|L1.2620|
0008ca  f10000cc          ADD      r0,r0,#0xcc
0008ce  8001              STRH     r1,[r0,#0]
;;;365    if(NUMBAT==0)snmp_bat_status[0]=0xff;
0008d0  f8b9c000          LDRH     r12,[r9,#0]  ; NUMBAT
0008d4  f04f01ff          MOV      r1,#0xff
0008d8  f1bc0f00          CMP      r12,#0
0008dc  d100              BNE      |L1.2272|
0008de  8001              STRH     r1,[r0,#0]
                  |L1.2272|
;;;366    #endif
;;;367    
;;;368    #ifndef UKU_ZVU
;;;369    snmp_bat_number[0]=1;
;;;370    snmp_bat_voltage[0]=bat[0]._Ub;
;;;371    snmp_bat_part_voltage[0]=bat[0]._Ubm;
;;;372    snmp_bat_current[0]=bat[0]._Ib;
;;;373    
;;;374    /*
;;;375    #ifdef UKU_220_IPS_TERMOKOMPENSAT
;;;376    if(((AUSW_MAIN==22063)||(AUSW_MAIN==22023))&&(bps[8]._device==dIBAT_METR))
;;;377    	{
;;;378    	snmp_bat_current[0]=Ib_ips_termokompensat;
;;;379    	}
;;;380    #endif*/
;;;381    
;;;382    snmp_bat_temperature[0]=bat[0]._Tb;
;;;383    if(bat[0]._nd) snmp_bat_temperature[0]=-1000;
;;;384    
;;;385    if(BAT_C_REAL[0]==0x5555)snmp_bat_capacity[0]=BAT_C_NOM[0];
;;;386    else snmp_bat_capacity[0]=BAT_C_REAL[0];
;;;387    /*
;;;388    #ifdef UKU_ZVU
;;;389    snmp_bat_charge[0]=(bat_hndl_zvu_Q/10000L);
;;;390    
;;;391    #else
;;;392    snmp_bat_charge[0]=bat[0]._zar;
;;;393    #endif */
;;;394    snmp_bat_charge[0]=bat[0]._zar;
;;;395    snmp_bat_status[0]=bat[0]._av;
;;;396    if(BAT_IS_ON[0]!=bisON)snmp_bat_status[0]=0xff;
;;;397    
;;;398    
;;;399    snmp_bat_number[1]=2;
;;;400    snmp_bat_voltage[1]=bat[1]._Ub;
;;;401    snmp_bat_part_voltage[1]=bat[1]._Ubm;
;;;402    snmp_bat_current[1]=bat[1]._Ib;
;;;403    snmp_bat_temperature[1]=bat[1]._Tb;
;;;404    if(bat[1]._nd) snmp_bat_temperature[1]=-1000;
;;;405    if(BAT_C_REAL[1]==0x5555)snmp_bat_capacity[1]=BAT_C_NOM[1];
;;;406    else snmp_bat_capacity[1]=BAT_C_REAL[1];
;;;407    snmp_bat_charge[1]=bat[1]._zar;
;;;408    snmp_bat_status[1]=bat[1]._av;
;;;409    if(BAT_IS_ON[1]!=bisON)snmp_bat_status[1]=0xff;
;;;410    #endif
;;;411    
;;;412    
;;;413    snmp_bps_number[0]=1;
0008e0  f8dfa1c8          LDR      r10,|L1.2732|
0008e4  f04f0001          MOV      r0,#1
0008e8  f8aa0000          STRH     r0,[r10,#0]
;;;414    snmp_bps_voltage[0]=bps[0]._Uii;
0008ec  f8df91c0          LDR      r9,|L1.2736|
0008f0  f10a0b10          ADD      r11,r10,#0x10
0008f4  f8d9001c          LDR      r0,[r9,#0x1c]  ; bps
0008f8  f8ab0000          STRH     r0,[r11,#0]
;;;415    snmp_bps_current[0]=bps[0]._Ii;
0008fc  f10a0e20          ADD      lr,r10,#0x20
000900  f8d90024          LDR      r0,[r9,#0x24]  ; bps
000904  f8ae0000          STRH     r0,[lr,#0]
;;;416    snmp_bps_temperature[0]=bps[0]._Ti;
000908  f10a0830          ADD      r8,r10,#0x30
00090c  f8d90028          LDR      r0,[r9,#0x28]  ; bps
000910  f8a80000          STRH     r0,[r8,#0]
;;;417    snmp_bps_stat[0]=bps[0]._av;
000914  f1080c10          ADD      r12,r8,#0x10
000918  f8990001          LDRB     r0,[r9,#1]  ; bps
00091c  f8ac0000          STRH     r0,[r12,#0]
;;;418    if(!(NUMIST>0))snmp_bps_stat[0]=0xff;												//Байт состояния БПСа.
000920  f9b50000          LDRSH    r0,[r5,#0]  ; NUMIST
000924  2800              CMP      r0,#0
000926  dc01              BGT      |L1.2348|
000928  f8ac1000          STRH     r1,[r12,#0]
                  |L1.2348|
;;;419    
;;;420    /*if(St_[0]&(1<<2))snmp_bps_stat[0]=(1<<3); 							//авария по Umin
;;;421    else if(St_[0]&(1<<3))snmp_bps_stat[0]=(1<<2); 						//авария по Umax
;;;422    else if(bps[0]._av&(1<<0))snmp_bps_stat[0]=(1<<1); 						//авария по Tmax
;;;423    else if(St_[0]&(1<<5))snmp_bps_stat[0]=(1<<5); 						//заблокирован
;;;424    else if((!(St_[0]&0x3c))&&(!St&0x01)&&(!OFFBP1))snmp_bps_stat[0]=1; 		//Работает
;;;425    */
;;;426    
;;;427    snmp_bps_number[1]=2;
00092c  f04f0502          MOV      r5,#2
000930  f8aa5002          STRH     r5,[r10,#2]
;;;428    snmp_bps_voltage[1]=bps[1]._Uii;
000934  f8d95080          LDR      r5,[r9,#0x80]  ; bps
000938  f8ab5002          STRH     r5,[r11,#2]
;;;429    snmp_bps_current[1]=bps[1]._Ii;
00093c  f8d95088          LDR      r5,[r9,#0x88]  ; bps
000940  f8ae5002          STRH     r5,[lr,#2]
;;;430    snmp_bps_temperature[1]=bps[1]._Ti;
000944  f8d9508c          LDR      r5,[r9,#0x8c]  ; bps
000948  f8a85002          STRH     r5,[r8,#2]
;;;431    snmp_bps_stat[1]=bps[1]._av;
00094c  f8995065          LDRB     r5,[r9,#0x65]  ; bps
000950  f8ac5002          STRH     r5,[r12,#2]
;;;432    if(!(NUMIST>1))snmp_bps_stat[1]=0xff;												//Байт состояния БПСа.
000954  2801              CMP      r0,#1
000956  dc01              BGT      |L1.2396|
000958  f8ac1002          STRH     r1,[r12,#2]
                  |L1.2396|
;;;433    /*if(St_[1]&(1<<2))snmp_bps_stat[1]=(1<<3); 							//авария по Umin
;;;434    else if(St_[1]&(1<<3))snmp_bps_stat[1]=(1<<2); 						//авария по Umax
;;;435    else if(St_[1]&(1<<4))snmp_bps_stat[1]=(1<<1); 						//авария по Tmax
;;;436    else if(St_[1]&(1<<5))snmp_bps_stat[1]=(1<<5); 						//заблокирован
;;;437    else if((!(St_[1]&0x3c))&&(!St&0x01)&&(!OFFBP2))snmp_bps_stat[1]=1; 		//Работает
;;;438    */
;;;439    
;;;440    snmp_bps_number[2]=3;
00095c  f04f0503          MOV      r5,#3
000960  f8aa5004          STRH     r5,[r10,#4]
;;;441    snmp_bps_voltage[2]=bps[2]._Uii;
000964  4d52              LDR      r5,|L1.2736|
000966  f8d590e4          LDR      r9,[r5,#0xe4]  ; bps
00096a  f8ab9004          STRH     r9,[r11,#4]
;;;442    snmp_bps_current[2]=bps[2]._Ii;
00096e  f8d590ec          LDR      r9,[r5,#0xec]  ; bps
000972  f8ae9004          STRH     r9,[lr,#4]
;;;443    snmp_bps_temperature[2]=bps[2]._Ti;
000976  f8d590f0          LDR      r9,[r5,#0xf0]  ; bps
00097a  f8a89004          STRH     r9,[r8,#4]
;;;444    snmp_bps_stat[2]=bps[2]._av;
00097e  e099              B        |L1.2740|
                  |L1.2432|
000980  20ede520          DCB      " ",237,229," ",231,224,226,229,240,248,229,237,"  ",0
000984  e7e0e2e5
000988  f0f8e5ed
00098c  202000  
00098f  00                DCB      0
                  |L1.2448|
000990  2c2055ed          DCB      ", U",237,224,247,"   , ",194,", U",234,238,237,"   , ",194
000994  e0f72020
000998  202c20c2
00099c  2c2055ea
0009a0  eeed2020
0009a4  202c20c2
0009a8  2c2043e1          DCB      ", C",225,224,242,"    , ",192,"*",247," ",0
0009ac  e0f22020
0009b0  20202c20
0009b4  c02af720
0009b8  00      
0009b9  00                DCB      0
0009ba  00                DCB      0
0009bb  00                DCB      0
                  |L1.2492|
0009bc  40eef2ea          DCB      "@",238,242,234,235,254,247,232,235,241,255,"           "
0009c0  ebfef7e8
0009c4  ebf1ff20
0009c8  20202020
0009cc  20202020
0009d0  2020    
0009d2  202000            DCB      "  ",0
0009d5  00                DCB      0
0009d6  00                DCB      0
0009d7  00                DCB      0
                  |L1.2520|
0009d8  4020efe5          DCB      "@ ",239,229,240,229,227,240,229,226,"   ",0
0009dc  f0e5e3f0
0009e0  e5e22020
0009e4  2000    
0009e6  00                DCB      0
0009e7  00                DCB      0
                  |L1.2536|
0009e8  4020e7e0          DCB      "@ ",231,224,226,251,248,229,237,238," U",226,251,245,"."
0009ec  e2fbf8e5
0009f0  edee2055
0009f4  e2fbf52e
0009f8  202000            DCB      "  ",0
0009fb  00                DCB      0
                  |L1.2556|
0009fc  4020e7e0          DCB      "@ ",231,224,237,232,230,229,237,238," U",226,251,245,"."
000a00  ede8e6e5
000a04  edee2055
000a08  e2fbf52e
000a0c  202000            DCB      "  ",0
000a0f  00                DCB      0
                  |L1.2576|
000a10  2c2020f3          DCB      ",  ",243,241,242,240,224,237,229,237,224,"   ",0
000a14  f1f2f0e0
000a18  ede5ede0
000a1c  20202000
                  |L1.2592|
000a20  2c20ede5          DCB      ", ",237,229," ",243,241,242,240,224,237,229,237,224,"  "
000a24  20f3f1f2
000a28  f0e0ede5
000a2c  ede02020
000a30  00                DCB      0
000a31  00                DCB      0
000a32  00                DCB      0
000a33  00                DCB      0
                  |L1.2612|
                          DCD      ||.bss||+0x266
                  |L1.2616|
                          DCD      net_U
                  |L1.2620|
                          DCD      ||.data||
                  |L1.2624|
                          DCD      net_F3
                  |L1.2628|
                          DCD      net_Ua
                  |L1.2632|
                          DCD      net_Ub
                  |L1.2636|
                          DCD      net_Uc
                  |L1.2640|
                          DCD      avar_stat
                  |L1.2644|
                          DCD      AUSW_MAIN
                  |L1.2648|
                          DCD      AUSW_MAIN_NUMBER
                  |L1.2652|
                          DCD      load_U
                  |L1.2656|
                          DCD      load_I
                  |L1.2660|
                          DCD      NUMBAT
                  |L1.2664|
                          DCD      NUMIST
                  |L1.2668|
                          DCD      NUMINV
                  |L1.2672|
                          DCD      NUMAVT
                  |L1.2676|
                          DCD      NUMDT
                  |L1.2680|
                          DCD      NUMSK
                  |L1.2684|
                          DCD      Uvv_eb2
                  |L1.2688|
                          DCD      Upes_eb2
                  |L1.2692|
                          DCD      power_summary
                  |L1.2696|
                          DCD      power_current
                  |L1.2700|
                          DCD      out_U
                  |L1.2704|
                          DCD      Ib_ips_termokompensat
                  |L1.2708|
                          DCD      bat_hndl_t_razr_min
                  |L1.2712|
                          DCD      t_ext
                  |L1.2716|
                          DCD      ND_EXT
                  |L1.2720|
                          DCD      BAT_C_POINT_20
                  |L1.2724|
                          DCD      bat_hndl_zvu_Q
                  |L1.2728|
                          DCD      bat_ips
                  |L1.2732|
                          DCD      ||.bss||+0x78
                  |L1.2736|
                          DCD      bps
                  |L1.2740|
000ab4  f89550c9          LDRB     r5,[r5,#0xc9]  ; bps
000ab8  f8ac5004          STRH     r5,[r12,#4]
;;;445    if(!(NUMIST>2))snmp_bps_stat[2]=0xff;
000abc  2802              CMP      r0,#2
000abe  dc01              BGT      |L1.2756|
000ac0  f8ac1004          STRH     r1,[r12,#4]
                  |L1.2756|
;;;446    
;;;447    snmp_bps_number[3]=4;
000ac4  f04f0504          MOV      r5,#4
000ac8  f8aa5006          STRH     r5,[r10,#6]
;;;448    snmp_bps_voltage[3]=bps[3]._Uii;
000acc  4dff              LDR      r5,|L1.3788|
000ace  f8d59148          LDR      r9,[r5,#0x148]  ; bps
000ad2  f8ab9006          STRH     r9,[r11,#6]
;;;449    snmp_bps_current[3]=bps[3]._Ii;
000ad6  f8d59150          LDR      r9,[r5,#0x150]  ; bps
000ada  f8ae9006          STRH     r9,[lr,#6]
;;;450    snmp_bps_temperature[3]=bps[3]._Ti;
000ade  f8d59154          LDR      r9,[r5,#0x154]  ; bps
000ae2  f8a89006          STRH     r9,[r8,#6]
;;;451    snmp_bps_stat[3]=bps[3]._av;
000ae6  f895912d          LDRB     r9,[r5,#0x12d]  ; bps
000aea  f8ac9006          STRH     r9,[r12,#6]
;;;452    if(!(NUMIST>3))snmp_bps_stat[3]=0xff;
000aee  2803              CMP      r0,#3
000af0  dc01              BGT      |L1.2806|
000af2  f8ac1006          STRH     r1,[r12,#6]
                  |L1.2806|
;;;453    
;;;454    snmp_bps_number[4]=5;
000af6  f04f0905          MOV      r9,#5
000afa  f8aa9008          STRH     r9,[r10,#8]
;;;455    snmp_bps_voltage[4]=bps[4]._Uii;
000afe  f8d591ac          LDR      r9,[r5,#0x1ac]  ; bps
000b02  f8ab9008          STRH     r9,[r11,#8]
;;;456    snmp_bps_current[4]=bps[4]._Ii;
000b06  f8d591b4          LDR      r9,[r5,#0x1b4]  ; bps
000b0a  f8ae9008          STRH     r9,[lr,#8]
;;;457    snmp_bps_temperature[4]=bps[4]._Ti;
000b0e  f8d591b8          LDR      r9,[r5,#0x1b8]  ; bps
000b12  f8a89008          STRH     r9,[r8,#8]
;;;458    snmp_bps_stat[4]=bps[4]._av;
000b16  f8959191          LDRB     r9,[r5,#0x191]  ; bps
000b1a  f8ac9008          STRH     r9,[r12,#8]
;;;459    if(!(NUMIST>4))snmp_bps_stat[4]=0xff;
000b1e  2804              CMP      r0,#4
000b20  dc01              BGT      |L1.2854|
000b22  f8ac1008          STRH     r1,[r12,#8]
                  |L1.2854|
;;;460    
;;;461    snmp_bps_number[5]=6;
000b26  f04f0906          MOV      r9,#6
000b2a  f8aa900a          STRH     r9,[r10,#0xa]
;;;462    snmp_bps_voltage[5]=bps[5]._Uii;
000b2e  f8d59210          LDR      r9,[r5,#0x210]  ; bps
000b32  f8ab900a          STRH     r9,[r11,#0xa]
;;;463    snmp_bps_current[5]=bps[5]._Ii;
000b36  f8d59218          LDR      r9,[r5,#0x218]  ; bps
000b3a  f8ae900a          STRH     r9,[lr,#0xa]
;;;464    snmp_bps_temperature[5]=bps[5]._Ti;
000b3e  f8d5921c          LDR      r9,[r5,#0x21c]  ; bps
000b42  f8a8900a          STRH     r9,[r8,#0xa]
;;;465    snmp_bps_stat[5]=bps[5]._av;
000b46  f89591f5          LDRB     r9,[r5,#0x1f5]  ; bps
000b4a  f8ac900a          STRH     r9,[r12,#0xa]
;;;466    if(!(NUMIST>5))snmp_bps_stat[5]=0xff;
000b4e  2805              CMP      r0,#5
000b50  dc01              BGT      |L1.2902|
000b52  f8ac100a          STRH     r1,[r12,#0xa]
                  |L1.2902|
;;;467    
;;;468    snmp_bps_number[6]=7;
000b56  f04f0907          MOV      r9,#7
000b5a  f8aa900c          STRH     r9,[r10,#0xc]
;;;469    snmp_bps_voltage[6]=bps[6]._Uii;
000b5e  f8d59274          LDR      r9,[r5,#0x274]  ; bps
000b62  f8ab900c          STRH     r9,[r11,#0xc]
;;;470    snmp_bps_current[6]=bps[6]._Ii;
000b66  f8d5927c          LDR      r9,[r5,#0x27c]  ; bps
000b6a  f8ae900c          STRH     r9,[lr,#0xc]
;;;471    snmp_bps_temperature[6]=bps[6]._Ti;
000b6e  f8d59280          LDR      r9,[r5,#0x280]  ; bps
000b72  f8a8900c          STRH     r9,[r8,#0xc]
;;;472    snmp_bps_stat[6]=bps[6]._av;
000b76  f8959259          LDRB     r9,[r5,#0x259]  ; bps
000b7a  f8ac900c          STRH     r9,[r12,#0xc]
;;;473    if(!(NUMIST>6))snmp_bps_stat[6]=0xff;
000b7e  2806              CMP      r0,#6
000b80  dc01              BGT      |L1.2950|
000b82  f8ac100c          STRH     r1,[r12,#0xc]
                  |L1.2950|
;;;474    
;;;475    snmp_bps_number[7]=8;
000b86  f04f0908          MOV      r9,#8
000b8a  f8aa900e          STRH     r9,[r10,#0xe]
;;;476    snmp_bps_voltage[7]=bps[7]._Uii;
000b8e  f8d592d8          LDR      r9,[r5,#0x2d8]  ; bps
000b92  f8ab900e          STRH     r9,[r11,#0xe]
;;;477    snmp_bps_current[7]=bps[7]._Ii;
000b96  f8d592e0          LDR      r9,[r5,#0x2e0]  ; bps
000b9a  f8ae900e          STRH     r9,[lr,#0xe]
;;;478    snmp_bps_temperature[7]=bps[7]._Ti;
000b9e  f8d592e4          LDR      r9,[r5,#0x2e4]  ; bps
000ba2  f8a8900e          STRH     r9,[r8,#0xe]
;;;479    snmp_bps_stat[7]=bps[7]._av;
000ba6  f89552bd          LDRB     r5,[r5,#0x2bd]  ; bps
000baa  f8ac500e          STRH     r5,[r12,#0xe]
;;;480    if(!(NUMIST>7))snmp_bps_stat[7]=0xff;
000bae  2807              CMP      r0,#7
000bb0  dc01              BGT      |L1.2998|
000bb2  f8ac100e          STRH     r1,[r12,#0xe]
                  |L1.2998|
;;;481    
;;;482    
;;;483    
;;;484    snmp_inv_number[0]=1;
000bb6  4dc6              LDR      r5,|L1.3792|
000bb8  f04f0001          MOV      r0,#1
000bbc  8028              STRH     r0,[r5,#0]
;;;485    snmp_inv_voltage[0]=inv[0]._Uio;
000bbe  49c5              LDR      r1,|L1.3796|
000bc0  f1050c06          ADD      r12,r5,#6
000bc4  f8518c4c          LDR      r8,[r1,#-0x4c]  ; inv
000bc8  f8ac8000          STRH     r8,[r12,#0]
;;;486    snmp_inv_current[0]=inv[0]._Ii;
000bcc  f105080c          ADD      r8,r5,#0xc
000bd0  f8519c48          LDR      r9,[r1,#-0x48]  ; inv
000bd4  f8a89000          STRH     r9,[r8,#0]
;;;487    snmp_inv_temperature[0]=inv[0]._Ti;
000bd8  f1050912          ADD      r9,r5,#0x12
000bdc  f851ac44          LDR      r10,[r1,#-0x44]  ; inv
000be0  f8a9a000          STRH     r10,[r9,#0]
;;;488    snmp_inv_stat[0]=inv[0]._flags_tm;
000be4  f1050b18          ADD      r11,r5,#0x18
000be8  f811ac1e          LDRB     r10,[r1,#-0x1e]  ; inv
000bec  f8aba000          STRH     r10,[r11,#0]
;;;489    
;;;490    snmp_inv_number[1]=2;
000bf0  f04f0a02          MOV      r10,#2
000bf4  f8a5a002          STRH     r10,[r5,#2]
;;;491    snmp_inv_voltage[1]=inv[1]._Uio;
000bf8  f8d1a014          LDR      r10,[r1,#0x14]  ; inv
000bfc  f8aca002          STRH     r10,[r12,#2]
;;;492    snmp_inv_current[1]=inv[1]._Ii;
000c00  f8d1a018          LDR      r10,[r1,#0x18]  ; inv
000c04  f8a8a002          STRH     r10,[r8,#2]
;;;493    snmp_inv_temperature[1]=inv[1]._Ti;
000c08  f8d1a01c          LDR      r10,[r1,#0x1c]  ; inv
000c0c  f8a9a002          STRH     r10,[r9,#2]
;;;494    snmp_inv_stat[1]=inv[1]._flags_tm;
000c10  f891a042          LDRB     r10,[r1,#0x42]  ; inv
000c14  f8aba002          STRH     r10,[r11,#2]
;;;495    
;;;496    snmp_inv_number[2]=3;
000c18  f04f0a03          MOV      r10,#3
000c1c  f8a5a004          STRH     r10,[r5,#4]
;;;497    snmp_inv_voltage[2]=inv[2]._Uio;
000c20  6f4d              LDR      r5,[r1,#0x74]  ; inv
000c22  f8ac5004          STRH     r5,[r12,#4]
;;;498    snmp_inv_current[2]=inv[2]._Ii;
000c26  6f8d              LDR      r5,[r1,#0x78]  ; inv
000c28  f8a85004          STRH     r5,[r8,#4]
;;;499    snmp_inv_temperature[2]=inv[2]._Ti;
000c2c  6fcd              LDR      r5,[r1,#0x7c]  ; inv
000c2e  f8a95004          STRH     r5,[r9,#4]
;;;500    snmp_inv_stat[2]=inv[2]._flags_tm;
000c32  f89110a2          LDRB     r1,[r1,#0xa2]  ; inv
000c36  f8ab1004          STRH     r1,[r11,#4]
;;;501    
;;;502    
;;;503    
;;;504    
;;;505    					  
;;;506    snmp_sk_number[0]=1;
000c3a  f1a80e20          SUB      lr,r8,#0x20
000c3e  f88e0000          STRB     r0,[lr,#0]
;;;507    memcpy(&snmp_sk_name[0][0],"Door",10);
000c42  f8df9294          LDR      r9,|L1.3800|
000c46  a5a5              ADR      r5,|L1.3804|
000c48  f8d5c000          LDR      r12,[r5,#0]
000c4c  f8c9c044          STR      r12,[r9,#0x44]  ; snmp_sk_name
000c50  f8d5c004          LDR      r12,[r5,#4]
000c54  f8c9c048          STR      r12,[r9,#0x48]  ; snmp_sk_name
000c58  892d              LDRH     r5,[r5,#8]
000c5a  f8a9504c          STRH     r5,[r9,#0x4c]
;;;508    if(sk_stat[0]==ssON) snmp_sk_aktiv[0]=1;
000c5e  49a1              LDR      r1,|L1.3812|
000c60  780d              LDRB     r5,[r1,#0]  ; sk_stat
000c62  f1a8011c          SUB      r1,r8,#0x1c
000c66  2d01              CMP      r5,#1
000c68  d07e              BEQ      |L1.3432|
;;;509    else snmp_sk_aktiv[0]=0;
000c6a  700c              STRB     r4,[r1,#0]
                  |L1.3180|
;;;510    if(!SK_SIGN[0])snmp_sk_alarm_aktiv[0]=1;
000c6c  4d9e              LDR      r5,|L1.3816|
000c6e  f8b5c000          LDRH     r12,[r5,#0]  ; SK_SIGN
000c72  4d97              LDR      r5,|L1.3792|
000c74  3d0c              SUBS     r5,r5,#0xc
000c76  f1bc0f00          CMP      r12,#0
000c7a  d076              BEQ      |L1.3434|
;;;511    else snmp_sk_alarm_aktiv[0]=0;
000c7c  702c              STRB     r4,[r5,#0]
                  |L1.3198|
;;;512    if(sk_av_stat[0]==sasON)	snmp_sk_alarm[0]=1;
000c7e  f8dfc26c          LDR      r12,|L1.3820|
000c82  f89c8000          LDRB     r8,[r12,#0]  ; sk_av_stat
000c86  f8dfc248          LDR      r12,|L1.3792|
000c8a  f1b80f01          CMP      r8,#1
000c8e  f1ac0c08          SUB      r12,r12,#8
000c92  d06b              BEQ      |L1.3436|
;;;513    else                     snmp_sk_alarm[0]=0;
000c94  f88c4000          STRB     r4,[r12,#0]
                  |L1.3224|
;;;514    
;;;515    
;;;516    snmp_sk_number[1]=2;
000c98  f04f0802          MOV      r8,#2
000c9c  f88e8001          STRB     r8,[lr,#1]
;;;517    memcpy(&snmp_sk_name[1][0],"Smoke",10);
000ca0  46c8              MOV      r8,r9
000ca2  f20f294c          ADR      r9,|L1.3824|
000ca6  f8d9b000          LDR      r11,[r9,#0]
000caa  f8c8b058          STR      r11,[r8,#0x58]  ; snmp_sk_name
000cae  f8d9b004          LDR      r11,[r9,#4]
000cb2  f8c8b05c          STR      r11,[r8,#0x5c]  ; snmp_sk_name
000cb6  f8b99008          LDRH     r9,[r9,#8]
000cba  f8a89060          STRH     r9,[r8,#0x60]
;;;518    if(sk_stat[1]==ssON) snmp_sk_aktiv[1]=1;
000cbe  f8df9224          LDR      r9,|L1.3812|
000cc2  f899b001          LDRB     r11,[r9,#1]  ; sk_stat
000cc6  f1bb0f01          CMP      r11,#1
000cca  d077              BEQ      |L1.3516|
;;;519    else snmp_sk_aktiv[1]=0;
000ccc  704c              STRB     r4,[r1,#1]
                  |L1.3278|
;;;520    if(!SK_SIGN[1])snmp_sk_alarm_aktiv[1]=1;
000cce  f8dfb218          LDR      r11,|L1.3816|
000cd2  f8bbb002          LDRH     r11,[r11,#2]  ; SK_SIGN
000cd6  f1bb0f00          CMP      r11,#0
000cda  d071              BEQ      |L1.3520|
;;;521    else snmp_sk_alarm_aktiv[1]=0;
000cdc  706c              STRB     r4,[r5,#1]
                  |L1.3294|
;;;522    if(sk_av_stat[1]==sasON)	snmp_sk_alarm[1]=1;
000cde  f8dfb20c          LDR      r11,|L1.3820|
000ce2  f89bb001          LDRB     r11,[r11,#1]  ; sk_av_stat
000ce6  f1bb0f01          CMP      r11,#1
000cea  d06b              BEQ      |L1.3524|
;;;523    else                     snmp_sk_alarm[1]=0;
000cec  f88c4001          STRB     r4,[r12,#1]
                  |L1.3312|
;;;524    
;;;525    snmp_sk_number[2]=3;
000cf0  f04f0a03          MOV      r10,#3
000cf4  f88ea002          STRB     r10,[lr,#2]
;;;526    memcpy(&snmp_sk_name[2][0],"Shock",10);
000cf8  f20f1afc          ADR      r10,|L1.3832|
000cfc  f8dab000          LDR      r11,[r10,#0]
000d00  f8c8b06c          STR      r11,[r8,#0x6c]  ; snmp_sk_name
000d04  f8dab004          LDR      r11,[r10,#4]
000d08  f8c8b070          STR      r11,[r8,#0x70]  ; snmp_sk_name
000d0c  f8baa008          LDRH     r10,[r10,#8]
000d10  f8a8a074          STRH     r10,[r8,#0x74]
;;;527    if(sk_stat[2]==ssON) snmp_sk_aktiv[2]=1;
000d14  f8998002          LDRB     r8,[r9,#2]  ; sk_stat
000d18  f1b80f01          CMP      r8,#1
000d1c  d055              BEQ      |L1.3530|
;;;528    else snmp_sk_aktiv[2]=0;
000d1e  708c              STRB     r4,[r1,#2]
                  |L1.3360|
;;;529    if(!SK_SIGN[2])snmp_sk_alarm_aktiv[2]=1;
000d20  f8df81c4          LDR      r8,|L1.3816|
000d24  f8b88004          LDRH     r8,[r8,#4]  ; SK_SIGN
000d28  f1b80f00          CMP      r8,#0
000d2c  d04f              BEQ      |L1.3534|
;;;530    else snmp_sk_alarm_aktiv[2]=0;
000d2e  70ac              STRB     r4,[r5,#2]
                  |L1.3376|
;;;531    if(sk_av_stat[2]==sasON)	snmp_sk_alarm[2]=1;
000d30  f8dfb1b8          LDR      r11,|L1.3820|
000d34  f89b8002          LDRB     r8,[r11,#2]  ; sk_av_stat
000d38  f1b80f01          CMP      r8,#1
000d3c  d049              BEQ      |L1.3538|
;;;532    else                     snmp_sk_alarm[2]=0;
000d3e  f88c4002          STRB     r4,[r12,#2]
                  |L1.3394|
;;;533    
;;;534    snmp_sk_number[3]=4;
000d42  f04f0804          MOV      r8,#4
000d46  f88e8003          STRB     r8,[lr,#3]
;;;535    memcpy(&snmp_sk_name[3][0],"     ",10);
000d4a  f8df818c          LDR      r8,|L1.3800|
000d4e  f1080880          ADD      r8,r8,#0x80
000d52  f20f1aac          ADR      r10,|L1.3840|
000d56  f8dae000          LDR      lr,[r10,#0]
000d5a  f8c8e000          STR      lr,[r8,#0]  ; snmp_sk_name
000d5e  f8dae004          LDR      lr,[r10,#4]
000d62  f8c8e004          STR      lr,[r8,#4]  ; snmp_sk_name
000d66  e002              B        |L1.3438|
                  |L1.3432|
000d68  e01f              B        |L1.3498|
                  |L1.3434|
000d6a  e022              B        |L1.3506|
                  |L1.3436|
000d6c  e023              B        |L1.3510|
                  |L1.3438|
000d6e  f8baa008          LDRH     r10,[r10,#8]
000d72  f8a8a008          STRH     r10,[r8,#8]
;;;536    if(sk_stat[3]==ssON) snmp_sk_aktiv[3]=1;
000d76  f8998003          LDRB     r8,[r9,#3]  ; sk_stat
000d7a  f1b80f01          CMP      r8,#1
000d7e  d02b              BEQ      |L1.3544|
;;;537    else snmp_sk_aktiv[3]=0;
000d80  70cc              STRB     r4,[r1,#3]
                  |L1.3458|
;;;538    if(!SK_SIGN[3])snmp_sk_alarm_aktiv[3]=1;
000d82  4959              LDR      r1,|L1.3816|
000d84  88c9              LDRH     r1,[r1,#6]  ; SK_SIGN
000d86  b349              CBZ      r1,|L1.3548|
;;;539    else snmp_sk_alarm_aktiv[3]=0;
000d88  70ec              STRB     r4,[r5,#3]
                  |L1.3466|
;;;540    if(sk_av_stat[3]==sasON)	snmp_sk_alarm[3]=1;
000d8a  f89b1003          LDRB     r1,[r11,#3]  ; sk_av_stat
000d8e  2901              CMP      r1,#1
000d90  d026              BEQ      |L1.3552|
;;;541    else                     snmp_sk_alarm[3]=0;
000d92  f88c4003          STRB     r4,[r12,#3]
                  |L1.3478|
;;;542    
;;;543    
;;;544    if(makb[0]._cnt>8) snmp_makb_connect_status[0]=1;
000d96  495c              LDR      r1,|L1.3848|
000d98  4d4d              LDR      r5,|L1.3792|
000d9a  f9b1c028          LDRSH    r12,[r1,#0x28]  ; makb
000d9e  3524              ADDS     r5,r5,#0x24
000da0  f1bc0f08          CMP      r12,#8
000da4  dd1f              BLE      |L1.3558|
000da6  8028              STRH     r0,[r5,#0]
000da8  e021              B        |L1.3566|
                  |L1.3498|
000daa  7008              STRB     r0,[r1,#0]            ;508
000dac  e75e              B        |L1.3180|
000dae  e005              B        |L1.3516|
000db0  e006              B        |L1.3520|
                  |L1.3506|
000db2  7028              STRB     r0,[r5,#0]            ;510
000db4  e763              B        |L1.3198|
                  |L1.3510|
000db6  f88c0000          STRB     r0,[r12,#0]           ;512
000dba  e76d              B        |L1.3224|
                  |L1.3516|
000dbc  7048              STRB     r0,[r1,#1]            ;518
000dbe  e786              B        |L1.3278|
                  |L1.3520|
000dc0  7068              STRB     r0,[r5,#1]            ;520
000dc2  e78c              B        |L1.3294|
                  |L1.3524|
000dc4  f88c0001          STRB     r0,[r12,#1]           ;522
000dc8  e792              B        |L1.3312|
                  |L1.3530|
000dca  7088              STRB     r0,[r1,#2]            ;527
000dcc  e7a8              B        |L1.3360|
                  |L1.3534|
000dce  70a8              STRB     r0,[r5,#2]            ;529
000dd0  e7ae              B        |L1.3376|
                  |L1.3538|
000dd2  f88c0002          STRB     r0,[r12,#2]           ;531
000dd6  e7b4              B        |L1.3394|
                  |L1.3544|
000dd8  70c8              STRB     r0,[r1,#3]            ;536
000dda  e7d2              B        |L1.3458|
                  |L1.3548|
000ddc  70e8              STRB     r0,[r5,#3]            ;538
000dde  e7d4              B        |L1.3466|
                  |L1.3552|
000de0  f88c0003          STRB     r0,[r12,#3]           ;540
000de4  e7d7              B        |L1.3478|
                  |L1.3558|
;;;545    else if(makb[0]._cnt<2) snmp_makb_connect_status[0]=0;
000de6  f1bc0f02          CMP      r12,#2
000dea  da00              BGE      |L1.3566|
000dec  802c              STRH     r4,[r5,#0]
                  |L1.3566|
;;;546    if(makb[1]._cnt>8) snmp_makb_connect_status[1]=1;
000dee  f9b1c052          LDRSH    r12,[r1,#0x52]  ; makb
000df2  f1bc0f08          CMP      r12,#8
000df6  dd01              BLE      |L1.3580|
000df8  8068              STRH     r0,[r5,#2]
000dfa  e003              B        |L1.3588|
                  |L1.3580|
;;;547    else if(makb[1]._cnt<2) snmp_makb_connect_status[1]=0;
000dfc  f1bc0f02          CMP      r12,#2
000e00  da00              BGE      |L1.3588|
000e02  806c              STRH     r4,[r5,#2]
                  |L1.3588|
;;;548    if(makb[2]._cnt>8) snmp_makb_connect_status[2]=1;
000e04  f9b1c07c          LDRSH    r12,[r1,#0x7c]  ; makb
000e08  f1bc0f08          CMP      r12,#8
000e0c  dd01              BLE      |L1.3602|
000e0e  80a8              STRH     r0,[r5,#4]
000e10  e003              B        |L1.3610|
                  |L1.3602|
;;;549    else if(makb[2]._cnt<2) snmp_makb_connect_status[2]=0;
000e12  f1bc0f02          CMP      r12,#2
000e16  da00              BGE      |L1.3610|
000e18  80ac              STRH     r4,[r5,#4]
                  |L1.3610|
;;;550    if(makb[3]._cnt>8) snmp_makb_connect_status[3]=1;
000e1a  f9b1c0a6          LDRSH    r12,[r1,#0xa6]  ; makb
000e1e  f1bc0f08          CMP      r12,#8
000e22  dd01              BLE      |L1.3624|
000e24  80e8              STRH     r0,[r5,#6]
000e26  e003              B        |L1.3632|
                  |L1.3624|
;;;551    else if(makb[3]._cnt<2) snmp_makb_connect_status[3]=0;
000e28  f1bc0f02          CMP      r12,#2
000e2c  da00              BGE      |L1.3632|
000e2e  80ec              STRH     r4,[r5,#6]
                  |L1.3632|
;;;552    
;;;553    snmp_makb_voltage0[0]=makb[0]._Ub[0];
000e30  f8dfc09c          LDR      r12,|L1.3792|
000e34  f101015c          ADD      r1,r1,#0x5c
000e38  f10c0c2c          ADD      r12,r12,#0x2c
000e3c  f8315c52          LDRH     r5,[r1,#-0x52]  ; makb
000e40  f8ac5000          STRH     r5,[r12,#0]
;;;554    snmp_makb_voltage1[0]=makb[0]._Ub[1];
000e44  f10c0c08          ADD      r12,r12,#8
000e48  f8315c50          LDRH     r5,[r1,#-0x50]  ; makb
000e4c  f8ac5000          STRH     r5,[r12,#0]
;;;555    snmp_makb_voltage2[0]=makb[0]._Ub[2];
000e50  f10c0c08          ADD      r12,r12,#8
000e54  f8315c4e          LDRH     r5,[r1,#-0x4e]  ; makb
000e58  f8ac5000          STRH     r5,[r12,#0]
;;;556    snmp_makb_voltage3[0]=makb[0]._Ub[3];
000e5c  f10c0c08          ADD      r12,r12,#8
000e60  f8315c4c          LDRH     r5,[r1,#-0x4c]  ; makb
000e64  f8ac5000          STRH     r5,[r12,#0]
;;;557    snmp_makb_voltage4[0]=makb[0]._Ub[4];
000e68  f10c0c08          ADD      r12,r12,#8
000e6c  f8315c4a          LDRH     r5,[r1,#-0x4a]  ; makb
000e70  f8ac5000          STRH     r5,[r12,#0]
;;;558    snmp_makb_voltage0[1]=makb[1]._Ub[0];
000e74  f1ac0c20          SUB      r12,r12,#0x20
000e78  f8315c28          LDRH     r5,[r1,#-0x28]  ; makb
000e7c  f8ac5002          STRH     r5,[r12,#2]
;;;559    snmp_makb_voltage1[1]=makb[1]._Ub[1];
000e80  4d13              LDR      r5,|L1.3792|
000e82  f831cc26          LDRH     r12,[r1,#-0x26]  ; makb
000e86  f1050534          ADD      r5,r5,#0x34
000e8a  f8a5c002          STRH     r12,[r5,#2]
;;;560    snmp_makb_voltage2[1]=makb[1]._Ub[2];
000e8e  f8dfc040          LDR      r12,|L1.3792|
000e92  f8315c24          LDRH     r5,[r1,#-0x24]  ; makb
000e96  f10c0c3c          ADD      r12,r12,#0x3c
000e9a  f8ac5002          STRH     r5,[r12,#2]
;;;561    snmp_makb_voltage3[1]=makb[1]._Ub[3];
000e9e  f10c0c08          ADD      r12,r12,#8
000ea2  f8315c22          LDRH     r5,[r1,#-0x22]  ; makb
000ea6  f8ac5002          STRH     r5,[r12,#2]
;;;562    snmp_makb_voltage4[1]=makb[1]._Ub[4];
000eaa  f10c0c08          ADD      r12,r12,#8
000eae  f8315c20          LDRH     r5,[r1,#-0x20]  ; makb
000eb2  f8ac5002          STRH     r5,[r12,#2]
;;;563    snmp_makb_voltage0[2]=makb[2]._Ub[0];
000eb6  f1ac0c20          SUB      r12,r12,#0x20
000eba  884d              LDRH     r5,[r1,#2]  ; makb
000ebc  f8ac5004          STRH     r5,[r12,#4]
;;;564    snmp_makb_voltage1[2]=makb[2]._Ub[1];
000ec0  f10c0c08          ADD      r12,r12,#8
000ec4  888d              LDRH     r5,[r1,#4]  ; makb
000ec6  f8ac5004          STRH     r5,[r12,#4]
;;;565    snmp_makb_voltage2[2]=makb[2]._Ub[2];
000eca  e01f              B        |L1.3852|
                  |L1.3788|
                          DCD      bps
                  |L1.3792|
                          DCD      ||.data||+0xec
                  |L1.3796|
                          DCD      inv+0x64
                  |L1.3800|
                          DCD      ||.bss||+0x100
                  |L1.3804|
000edc  446f6f72          DCB      "Door",0
000ee0  00      
000ee1  00                DCB      0
000ee2  00                DCB      0
000ee3  00                DCB      0
                  |L1.3812|
                          DCD      sk_stat
                  |L1.3816|
                          DCD      SK_SIGN
                  |L1.3820|
                          DCD      sk_av_stat
                  |L1.3824|
000ef0  536d6f6b          DCB      "Smoke",0
000ef4  6500    
000ef6  00                DCB      0
000ef7  00                DCB      0
                  |L1.3832|
000ef8  53686f63          DCB      "Shock",0
000efc  6b00    
000efe  00                DCB      0
000eff  00                DCB      0
                  |L1.3840|
000f00  20202020          DCB      "     ",0
000f04  2000    
000f06  00                DCB      0
000f07  00                DCB      0
                  |L1.3848|
                          DCD      makb
                  |L1.3852|
000f0c  f10c0c08          ADD      r12,r12,#8
000f10  88cd              LDRH     r5,[r1,#6]  ; makb
000f12  f8ac5004          STRH     r5,[r12,#4]
;;;566    snmp_makb_voltage3[2]=makb[2]._Ub[3];
000f16  f10c0c08          ADD      r12,r12,#8
000f1a  890d              LDRH     r5,[r1,#8]  ; makb
000f1c  f8ac5004          STRH     r5,[r12,#4]
;;;567    snmp_makb_voltage4[2]=makb[2]._Ub[4];
000f20  f10c0c08          ADD      r12,r12,#8
000f24  894d              LDRH     r5,[r1,#0xa]  ; makb
000f26  f8ac5004          STRH     r5,[r12,#4]
;;;568    snmp_makb_voltage0[3]=makb[3]._Ub[0];
000f2a  f1ac0c20          SUB      r12,r12,#0x20
000f2e  8d8d              LDRH     r5,[r1,#0x2c]  ; makb
000f30  f8ac5006          STRH     r5,[r12,#6]
;;;569    snmp_makb_voltage1[3]=makb[3]._Ub[1];
000f34  f10c0c08          ADD      r12,r12,#8
000f38  8dcd              LDRH     r5,[r1,#0x2e]  ; makb
000f3a  f8ac5006          STRH     r5,[r12,#6]
;;;570    snmp_makb_voltage2[3]=makb[3]._Ub[2];
000f3e  f10c0c08          ADD      r12,r12,#8
000f42  8e0d              LDRH     r5,[r1,#0x30]  ; makb
000f44  f8ac5006          STRH     r5,[r12,#6]
;;;571    snmp_makb_voltage3[3]=makb[3]._Ub[3];
000f48  f10c0c08          ADD      r12,r12,#8
000f4c  8e4d              LDRH     r5,[r1,#0x32]  ; makb
000f4e  f8ac5006          STRH     r5,[r12,#6]
;;;572    snmp_makb_voltage4[3]=makb[3]._Ub[4];
000f52  f10c0c08          ADD      r12,r12,#8
000f56  8e8d              LDRH     r5,[r1,#0x34]  ; makb
000f58  f8ac5006          STRH     r5,[r12,#6]
;;;573    
;;;574    snmp_makb_temper0[0]=makb[0]._T[0];
000f5c  f831cc48          LDRH     r12,[r1,#-0x48]  ; makb
000f60  4dff              LDR      r5,|L1.4960|
000f62  f8a5c000          STRH     r12,[r5,#0]
;;;575    snmp_makb_temper1[0]=makb[0]._T[1];
000f66  f1050c08          ADD      r12,r5,#8
000f6a  f8318c46          LDRH     r8,[r1,#-0x46]  ; makb
000f6e  f8ac8000          STRH     r8,[r12,#0]
;;;576    snmp_makb_temper2[0]=makb[0]._T[2];
000f72  f1050810          ADD      r8,r5,#0x10
000f76  f8319c44          LDRH     r9,[r1,#-0x44]  ; makb
000f7a  f8a89000          STRH     r9,[r8,#0]
;;;577    snmp_makb_temper3[0]=makb[0]._T[3];
000f7e  f1050918          ADD      r9,r5,#0x18
000f82  f831ac42          LDRH     r10,[r1,#-0x42]  ; makb
000f86  f8a9a000          STRH     r10,[r9,#0]
;;;578    snmp_makb_temper4[0]=makb[0]._T[4];
000f8a  f1050a20          ADD      r10,r5,#0x20
000f8e  f831bc40          LDRH     r11,[r1,#-0x40]  ; makb
000f92  f8aab000          STRH     r11,[r10,#0]
;;;579    snmp_makb_temper0[1]=makb[1]._T[0];
000f96  f831bc1e          LDRH     r11,[r1,#-0x1e]  ; makb
000f9a  f8a5b002          STRH     r11,[r5,#2]
;;;580    snmp_makb_temper1[1]=makb[1]._T[1];
000f9e  f831bc1c          LDRH     r11,[r1,#-0x1c]  ; makb
000fa2  f8acb002          STRH     r11,[r12,#2]
;;;581    snmp_makb_temper2[1]=makb[1]._T[2];
000fa6  f831bc1a          LDRH     r11,[r1,#-0x1a]  ; makb
000faa  f8a8b002          STRH     r11,[r8,#2]
;;;582    snmp_makb_temper3[1]=makb[1]._T[3];
000fae  f831bc18          LDRH     r11,[r1,#-0x18]  ; makb
000fb2  f8a9b002          STRH     r11,[r9,#2]
;;;583    snmp_makb_temper4[1]=makb[1]._T[4];
000fb6  f831bc16          LDRH     r11,[r1,#-0x16]  ; makb
000fba  f8aab002          STRH     r11,[r10,#2]
;;;584    snmp_makb_temper0[2]=makb[2]._T[0];
000fbe  f8b1b00c          LDRH     r11,[r1,#0xc]  ; makb
000fc2  f8a5b004          STRH     r11,[r5,#4]
;;;585    snmp_makb_temper1[2]=makb[2]._T[1];
000fc6  f8b1b00e          LDRH     r11,[r1,#0xe]  ; makb
000fca  f8acb004          STRH     r11,[r12,#4]
;;;586    snmp_makb_temper2[2]=makb[2]._T[2];
000fce  f8b1b010          LDRH     r11,[r1,#0x10]  ; makb
000fd2  f8a8b004          STRH     r11,[r8,#4]
;;;587    snmp_makb_temper3[2]=makb[2]._T[3];
000fd6  f8b1b012          LDRH     r11,[r1,#0x12]  ; makb
000fda  f8a9b004          STRH     r11,[r9,#4]
;;;588    snmp_makb_temper4[2]=makb[2]._T[4];
000fde  f8b1b014          LDRH     r11,[r1,#0x14]  ; makb
000fe2  f8aab004          STRH     r11,[r10,#4]
;;;589    snmp_makb_temper0[3]=makb[3]._T[0];
000fe6  f8b1b036          LDRH     r11,[r1,#0x36]  ; makb
000fea  f8a5b006          STRH     r11,[r5,#6]
;;;590    snmp_makb_temper1[3]=makb[3]._T[1];
000fee  8f0d              LDRH     r5,[r1,#0x38]  ; makb
000ff0  f8ac5006          STRH     r5,[r12,#6]
;;;591    snmp_makb_temper2[3]=makb[3]._T[2];
000ff4  8f4d              LDRH     r5,[r1,#0x3a]  ; makb
000ff6  f8a85006          STRH     r5,[r8,#6]
;;;592    snmp_makb_temper3[3]=makb[3]._T[3];
000ffa  8f8d              LDRH     r5,[r1,#0x3c]  ; makb
000ffc  f8a95006          STRH     r5,[r9,#6]
;;;593    snmp_makb_temper4[3]=makb[3]._T[4];
001000  8fcd              LDRH     r5,[r1,#0x3e]  ; makb
001002  f8aa5006          STRH     r5,[r10,#6]
;;;594    
;;;595    snmp_makb_temper0_stat[0]=makb[0]._T_nd[0];
001006  f1080518          ADD      r5,r8,#0x18
00100a  f831cc3e          LDRH     r12,[r1,#-0x3e]  ; makb
00100e  f8a5c000          STRH     r12,[r5,#0]
;;;596    snmp_makb_temper1_stat[0]=makb[0]._T_nd[1];
001012  f1050c08          ADD      r12,r5,#8
001016  f8318c3c          LDRH     r8,[r1,#-0x3c]  ; makb
00101a  f8ac8000          STRH     r8,[r12,#0]
;;;597    snmp_makb_temper2_stat[0]=makb[0]._T_nd[2];
00101e  f1050810          ADD      r8,r5,#0x10
001022  f8319c3a          LDRH     r9,[r1,#-0x3a]  ; makb
001026  f8a89000          STRH     r9,[r8,#0]
;;;598    snmp_makb_temper3_stat[0]=makb[0]._T_nd[3];
00102a  f1050918          ADD      r9,r5,#0x18
00102e  f831ac38          LDRH     r10,[r1,#-0x38]  ; makb
001032  f8a9a000          STRH     r10,[r9,#0]
;;;599    snmp_makb_temper4_stat[0]=makb[0]._T_nd[4];
001036  f1050a20          ADD      r10,r5,#0x20
00103a  f831bc36          LDRH     r11,[r1,#-0x36]  ; makb
00103e  f8aab000          STRH     r11,[r10,#0]
;;;600    snmp_makb_temper0_stat[1]=makb[1]._T_nd[0];
001042  f831bc14          LDRH     r11,[r1,#-0x14]  ; makb
001046  f8a5b002          STRH     r11,[r5,#2]
;;;601    snmp_makb_temper1_stat[1]=makb[1]._T_nd[1];
00104a  f831bc12          LDRH     r11,[r1,#-0x12]  ; makb
00104e  f8acb002          STRH     r11,[r12,#2]
;;;602    snmp_makb_temper2_stat[1]=makb[1]._T_nd[2];
001052  f831bc10          LDRH     r11,[r1,#-0x10]  ; makb
001056  f8a8b002          STRH     r11,[r8,#2]
;;;603    snmp_makb_temper3_stat[1]=makb[1]._T_nd[3];
00105a  f831bc0e          LDRH     r11,[r1,#-0xe]  ; makb
00105e  f8a9b002          STRH     r11,[r9,#2]
;;;604    snmp_makb_temper4_stat[1]=makb[1]._T_nd[4];
001062  f831bc0c          LDRH     r11,[r1,#-0xc]  ; makb
001066  f8aab002          STRH     r11,[r10,#2]
;;;605    snmp_makb_temper0_stat[2]=makb[2]._T_nd[0];
00106a  f8b1b016          LDRH     r11,[r1,#0x16]  ; makb
00106e  f8a5b004          STRH     r11,[r5,#4]
;;;606    snmp_makb_temper1_stat[2]=makb[2]._T_nd[1];
001072  f8b1b018          LDRH     r11,[r1,#0x18]  ; makb
001076  f8acb004          STRH     r11,[r12,#4]
;;;607    snmp_makb_temper2_stat[2]=makb[2]._T_nd[2];
00107a  f8b1b01a          LDRH     r11,[r1,#0x1a]  ; makb
00107e  f8a8b004          STRH     r11,[r8,#4]
;;;608    snmp_makb_temper3_stat[2]=makb[2]._T_nd[3];
001082  f8b1b01c          LDRH     r11,[r1,#0x1c]  ; makb
001086  f8a9b004          STRH     r11,[r9,#4]
;;;609    snmp_makb_temper4_stat[2]=makb[2]._T_nd[4];
00108a  f8b1b01e          LDRH     r11,[r1,#0x1e]  ; makb
00108e  f8aab004          STRH     r11,[r10,#4]
;;;610    snmp_makb_temper0_stat[3]=makb[3]._T_nd[0];
001092  f831bf40          LDRH     r11,[r1,#0x40]!  ; makb
001096  f8a5b006          STRH     r11,[r5,#6]
;;;611    snmp_makb_temper1_stat[3]=makb[3]._T_nd[1];
00109a  884d              LDRH     r5,[r1,#2]  ; makb
00109c  f8ac5006          STRH     r5,[r12,#6]
;;;612    snmp_makb_temper2_stat[3]=makb[3]._T_nd[2];
0010a0  888d              LDRH     r5,[r1,#4]  ; makb
0010a2  f8a85006          STRH     r5,[r8,#6]
;;;613    snmp_makb_temper3_stat[3]=makb[3]._T_nd[3];
0010a6  88cd              LDRH     r5,[r1,#6]  ; makb
0010a8  f1a10140          SUB      r1,r1,#0x40
0010ac  f8a95006          STRH     r5,[r9,#6]
;;;614    snmp_makb_temper4_stat[3]=makb[3]._T_nd[4];
0010b0  f8b11048          LDRH     r1,[r1,#0x48]  ; makb
0010b4  f8aa1006          STRH     r1,[r10,#6]
;;;615    
;;;616    
;;;617    snmp_klimat_box_temper=t_box;
0010b8  49aa              LDR      r1,|L1.4964|
0010ba  8809              LDRH     r1,[r1,#0]  ; t_box
0010bc  f8a6107a          STRH     r1,[r6,#0x7a]
;;;618    snmp_klimat_settings_box_alarm=TBOXMAX;
0010c0  49a9              LDR      r1,|L1.4968|
0010c2  f5a875bc          SUB      r5,r8,#0x178
0010c6  8809              LDRH     r1,[r1,#0]  ; TBOXMAX
0010c8  f8a5107c          STRH     r1,[r5,#0x7c]
;;;619    snmp_klimat_settings_vent_on=TBOXVENTON;
0010cc  49a7              LDR      r1,|L1.4972|
0010ce  8809              LDRH     r1,[r1,#0]  ; TBOXVENTON
0010d0  f8a5107e          STRH     r1,[r5,#0x7e]
;;;620    snmp_klimat_settings_vent_off=TBOXVENTOFF;
0010d4  49a6              LDR      r1,|L1.4976|
0010d6  8809              LDRH     r1,[r1,#0]  ; TBOXVENTOFF
0010d8  8039              STRH     r1,[r7,#0]
;;;621    snmp_klimat_settings_warm_on=TBOXWARMON;
0010da  49a6              LDR      r1,|L1.4980|
0010dc  8809              LDRH     r1,[r1,#0]  ; TBOXWARMON
0010de  8079              STRH     r1,[r7,#2]
;;;622    snmp_klimat_settings_warm_off=TBOXWARMOFF;
0010e0  49a5              LDR      r1,|L1.4984|
0010e2  8809              LDRH     r1,[r1,#0]  ; TBOXWARMOFF
0010e4  80b9              STRH     r1,[r7,#4]
;;;623    snmp_klimat_settings_load_on=TLOADENABLE;
0010e6  49a5              LDR      r1,|L1.4988|
0010e8  8809              LDRH     r1,[r1,#0]  ; TLOADENABLE
0010ea  80f9              STRH     r1,[r7,#6]
;;;624    snmp_klimat_settings_load_off=TLOADDISABLE;
0010ec  49a4              LDR      r1,|L1.4992|
0010ee  8809              LDRH     r1,[r1,#0]  ; TLOADDISABLE
0010f0  8139              STRH     r1,[r7,#8]
;;;625    snmp_klimat_settings_batt_on=TBATENABLE;
0010f2  49a4              LDR      r1,|L1.4996|
0010f4  8809              LDRH     r1,[r1,#0]  ; TBATENABLE
0010f6  8179              STRH     r1,[r7,#0xa]
;;;626    snmp_klimat_settings_batt_off=TBATDISABLE;
0010f8  49a3              LDR      r1,|L1.5000|
0010fa  8809              LDRH     r1,[r1,#0]  ; TBATDISABLE
0010fc  81b9              STRH     r1,[r7,#0xc]
;;;627    
;;;628    snmp_dt_ext=t_ext[0];
0010fe  49a3              LDR      r1,|L1.5004|
001100  81fb              STRH     r3,[r7,#0xe]
;;;629    snmp_dt_msan=t_ext[1];
001102  f9b1c002          LDRSH    r12,[r1,#2]  ; t_ext
001106  f8a7c010          STRH     r12,[r7,#0x10]
;;;630    snmp_dt_epu=t_ext[2];
00110a  f9b18004          LDRSH    r8,[r1,#4]  ; t_ext
00110e  f8a78012          STRH     r8,[r7,#0x12]
;;;631    
;;;632    /*
;;;633    snmp_bat_voltage=Ubat;
;;;634    snmp_bat_current=Ibat;
;;;635    snmp_bat_temperature=t_b;
;;;636    if(BAT_C_REAL==0x5555)
;;;637    	{
;;;638    	snmp_bat_capacity=BAT_C_NOM*10;												    11
;;;639    	}
;;;640    else
;;;641    	{
;;;642    	snmp_bat_capacity=BAT_C_REAL;
;;;643    	}
;;;644    snmp_bat_charge=zar_percent;
;;;645    snmp_bat_status=0;
;;;646    if(St&0x02)snmp_bat_status|=0x01;
;;;647    if(Ibat>0)snmp_bat_status|=0x02;
;;;648    
;;;649    
;;;650    if(spc_stat==spc_OFF) snmp_spc_stat=0;
;;;651    else if(spc_stat==spc_KE) snmp_spc_stat=1;
;;;652    else if(spc_stat==spc_VZ) snmp_spc_stat=10;
;;;653    
;;;654    
;;;655    snmp_main_bps=MAIN_IST+1;
;;;656    */
;;;657    snmp_zv_en=ZV_ON;
001112  499f              LDR      r1,|L1.5008|
001114  8809              LDRH     r1,[r1,#0]  ; ZV_ON
001116  f8a5104c          STRH     r1,[r5,#0x4c]
;;;658    snmp_alarm_auto_disable=AV_OFF_AVT;
00111a  499e              LDR      r1,|L1.5012|
00111c  8809              LDRH     r1,[r1,#0]  ; AV_OFF_AVT
00111e  f8a5104e          STRH     r1,[r5,#0x4e]
;;;659    snmp_bat_test_time=TBAT;
001122  499d              LDR      r1,|L1.5016|
001124  8809              LDRH     r1,[r1,#0]  ; TBAT
001126  f8a51050          STRH     r1,[r5,#0x50]
;;;660    snmp_u_max=UMAX;
00112a  499c              LDR      r1,|L1.5020|
00112c  8809              LDRH     r1,[r1,#0]  ; UMAX
00112e  f8a51052          STRH     r1,[r5,#0x52]
;;;661    snmp_u_min=UB20-DU;
001132  499b              LDR      r1,|L1.5024|
001134  4d9b              LDR      r5,|L1.5028|
001136  f5a976c0          SUB      r6,r9,#0x180
00113a  8809              LDRH     r1,[r1,#0]  ; UB20
00113c  882d              LDRH     r5,[r5,#0]  ; DU
00113e  eba10505          SUB      r5,r1,r5
001142  f8a65054          STRH     r5,[r6,#0x54]
;;;662    snmp_u_0_grad=UB0;
001146  4d98              LDR      r5,|L1.5032|
001148  882d              LDRH     r5,[r5,#0]  ; UB0
00114a  f8a65056          STRH     r5,[r6,#0x56]
;;;663    snmp_u_20_grad=UB20;
00114e  4635              MOV      r5,r6
001150  f8a51058          STRH     r1,[r5,#0x58]
;;;664    snmp_u_sign=USIGN;
001154  4995              LDR      r1,|L1.5036|
001156  8809              LDRH     r1,[r1,#0]  ; USIGN
001158  f8a5105a          STRH     r1,[r5,#0x5a]
;;;665    snmp_u_min_power=UMN;
00115c  4994              LDR      r1,|L1.5040|
00115e  8809              LDRH     r1,[r1,#0]  ; UMN
001160  f8a5105c          STRH     r1,[r5,#0x5c]
;;;666    snmp_u_withouth_bat=U0B;
001164  4993              LDR      r1,|L1.5044|
001166  8809              LDRH     r1,[r1,#0]  ; U0B
001168  f8a5105e          STRH     r1,[r5,#0x5e]
;;;667    snmp_control_current=IKB;
00116c  4992              LDR      r1,|L1.5048|
00116e  8809              LDRH     r1,[r1,#0]  ; IKB
001170  f8a51060          STRH     r1,[r5,#0x60]
;;;668    snmp_max_charge_current=IZMAX;
001174  4991              LDR      r1,|L1.5052|
001176  8809              LDRH     r1,[r1,#0]  ; IZMAX
001178  f8a51062          STRH     r1,[r5,#0x62]
;;;669    snmp_max_current=IMAX;
00117c  4990              LDR      r1,|L1.5056|
00117e  8809              LDRH     r1,[r1,#0]  ; IMAX
001180  f8a51064          STRH     r1,[r5,#0x64]
;;;670    snmp_min_current=IMIN;
001184  498f              LDR      r1,|L1.5060|
001186  8809              LDRH     r1,[r1,#0]  ; IMIN
001188  f8a51066          STRH     r1,[r5,#0x66]
;;;671    //snmp_max_current_koef=KIMAX;
;;;672    snmp_uvz=UVZ;
00118c  498e              LDR      r1,|L1.5064|
00118e  8809              LDRH     r1,[r1,#0]  ; UVZ
001190  f8a51068          STRH     r1,[r5,#0x68]
;;;673    snmp_powerup_psu_timeout=TZAS;
001194  498d              LDR      r1,|L1.5068|
001196  8809              LDRH     r1,[r1,#0]  ; TZAS
001198  f8a5106a          STRH     r1,[r5,#0x6a]
;;;674    snmp_max_temperature=TMAX;
00119c  498c              LDR      r1,|L1.5072|
00119e  8809              LDRH     r1,[r1,#0]  ; TMAX
0011a0  f8a5106c          STRH     r1,[r5,#0x6c]
;;;675    snmp_tsign_bat=TBATSIGN; 
0011a4  4d8b              LDR      r5,|L1.5076|
0011a6  882d              LDRH     r5,[r5,#0]  ; TBATSIGN
0011a8  f8a6506e          STRH     r5,[r6,#0x6e]
;;;676    snmp_tmax_bat=TBATMAX;
0011ac  4d8a              LDR      r5,|L1.5080|
0011ae  882d              LDRH     r5,[r5,#0]  ; TBATMAX
0011b0  f8a65070          STRH     r5,[r6,#0x70]
;;;677    snmp_tsign_bps=TSIGN;
0011b4  4d89              LDR      r5,|L1.5084|
0011b6  882d              LDRH     r5,[r5,#0]  ; TSIGN
0011b8  f8a65072          STRH     r5,[r6,#0x72]
;;;678    snmp_tmax_bps=TMAX;
0011bc  4635              MOV      r5,r6
0011be  f8a51074          STRH     r1,[r5,#0x74]
;;;679    snmp_bat_part_alarm=UBM_AV; 
0011c2  4987              LDR      r1,|L1.5088|
0011c4  8809              LDRH     r1,[r1,#0]  ; UBM_AV
0011c6  f8a51076          STRH     r1,[r5,#0x76]
;;;680    snmp_power_cnt_adress=POWER_CNT_ADRESS;
0011ca  4986              LDR      r1,|L1.5092|
0011cc  8809              LDRH     r1,[r1,#0]  ; POWER_CNT_ADRESS
0011ce  f8a51078          STRH     r1,[r5,#0x78]
;;;681    
;;;682    for(i=0;i<12;i++)
0011d2  f04f0100          MOV      r1,#0
;;;683    	{
;;;684    	snmp_avt_number[i]=i+1;
0011d6  4f84              LDR      r7,|L1.5096|
;;;685    	if(avt_stat[i]==avtOFF)snmp_avt_stat[i]=0;
0011d8  f8df9210          LDR      r9,|L1.5100|
0011dc  f107060c          ADD      r6,r7,#0xc
                  |L1.4576|
0011e0  f1010501          ADD      r5,r1,#1              ;684
0011e4  547d              STRB     r5,[r7,r1]            ;684
0011e6  f819a001          LDRB     r10,[r9,r1]
0011ea  f1ba0f00          CMP      r10,#0
0011ee  d07e              BEQ      |L1.4846|
;;;686    	else snmp_avt_stat[i]=1;
0011f0  5470              STRB     r0,[r6,r1]
                  |L1.4594|
0011f2  b2e9              UXTB     r1,r5                 ;682
0011f4  290c              CMP      r1,#0xc               ;682
0011f6  d3f3              BCC      |L1.4576|
;;;687    	}
;;;688    
;;;689    snmp_dt_number[0]=1;
0011f8  4959              LDR      r1,|L1.4960|
0011fa  39ac              SUBS     r1,r1,#0xac
0011fc  7008              STRB     r0,[r1,#0]
;;;690    snmp_dt_number[1]=2;
0011fe  f04f0402          MOV      r4,#2
001202  704c              STRB     r4,[r1,#1]
;;;691    snmp_dt_number[2]=3;
001204  f04f0503          MOV      r5,#3
001208  708d              STRB     r5,[r1,#2]
;;;692    //snmp_dt_number[3]=4;
;;;693    snmp_dt_temper[0]=t_ext[0];
00120a  f1010176          ADD      r1,r1,#0x76
00120e  800b              STRH     r3,[r1,#0]
;;;694    snmp_dt_temper[1]=t_ext[1];
001210  f8a1c002          STRH     r12,[r1,#2]
;;;695    snmp_dt_temper[2]=t_ext[2];
001214  f8a18004          STRH     r8,[r1,#4]
;;;696    //snmp_dt_temper[3]=t_ext[3];
;;;697    snmp_dt_error[0]=ND_EXT[0];
001218  4e75              LDR      r6,|L1.5104|
00121a  4b51              LDR      r3,|L1.4960|
00121c  f1a303a9          SUB      r3,r3,#0xa9
001220  7831              LDRB     r1,[r6,#0]  ; ND_EXT
001222  7019              STRB     r1,[r3,#0]
;;;698    if(NUMDT<1)snmp_dt_error[0]=0xff;
001224  4973              LDR      r1,|L1.5108|
001226  f9b11000          LDRSH    r1,[r1,#0]  ; NUMDT
00122a  2901              CMP      r1,#1
00122c  da00              BGE      |L1.4656|
00122e  701a              STRB     r2,[r3,#0]
                  |L1.4656|
;;;699    snmp_dt_error[1]=ND_EXT[1];
001230  7877              LDRB     r7,[r6,#1]  ; ND_EXT
001232  705f              STRB     r7,[r3,#1]
;;;700    if(NUMDT<2)snmp_dt_error[0]=0xff;
001234  2902              CMP      r1,#2
001236  da00              BGE      |L1.4666|
001238  701a              STRB     r2,[r3,#0]
                  |L1.4666|
;;;701    snmp_dt_error[2]=ND_EXT[2];
00123a  78b6              LDRB     r6,[r6,#2]  ; ND_EXT
00123c  709e              STRB     r6,[r3,#2]
;;;702    if(NUMDT<3)snmp_dt_error[0]=0xff;
00123e  2903              CMP      r1,#3
001240  da00              BGE      |L1.4676|
001242  701a              STRB     r2,[r3,#0]
                  |L1.4676|
;;;703    //snmp_dt_error[3]=ND_EXT[3];
;;;704    if(NUMDT<4)snmp_dt_error[0]=0xff;
001244  2904              CMP      r1,#4
001246  da00              BGE      |L1.4682|
001248  701a              STRB     r2,[r3,#0]
                  |L1.4682|
;;;705    
;;;706    /*
;;;707    //Литиевые батареи
;;;708    snmp_lakb_number[0]=1;								//Номер ЛАКБ
;;;709    snmp_lakb_number[1]=2;								//Номер ЛАКБ
;;;710    snmp_lakb_voltage[0]=lakb[0]._tot_bat_volt;				//Напряжение ЛАКБ
;;;711    snmp_lakb_voltage[1]=lakb[1]._tot_bat_volt;				//Напряжение ЛАКБ
;;;712    snmp_lakb_max_cell_voltage[0]=lakb[0]._max_cell_volt;		//Максимальное напряжение ячейки ЛАКБ
;;;713    snmp_lakb_max_cell_voltage[1]=lakb[1]._max_cell_volt;		//Максимальное напряжение ячейки ЛАКБ
;;;714    snmp_lakb_min_cell_voltage[0]=lakb[0]._min_cell_volt;		//Минимальное напряжение ячейки ЛАКБ
;;;715    snmp_lakb_min_cell_voltage[1]=lakb[1]._min_cell_volt;		//Минимальное напряжение ячейки ЛАКБ
;;;716    snmp_lakb_max_cell_temperature[0]=lakb[0]._max_cell_temp;	//Максимальная температура ячейки ЛАКБ
;;;717    snmp_lakb_max_cell_temperature[1]=lakb[1]._max_cell_temp;	//Максимальная температура ячейки ЛАКБ
;;;718    snmp_lakb_min_cell_temperature[0]=lakb[0]._min_cell_temp;	//Минимальная температура ячейки ЛАКБ
;;;719    snmp_lakb_min_cell_temperature[1]=lakb[1]._min_cell_temp;	//Минимальная температура ячейки ЛАКБ
;;;720    snmp_lakb_ch_curr[0]=lakb[0]._ch_curr;					//Ток заряда ЛАКБ
;;;721    snmp_lakb_ch_curr[1]=lakb[1]._ch_curr;					//Ток заряда ЛАКБ
;;;722    snmp_lakb_dsch_curr[0]=lakb[0]._dsch_curr;				//Ток разряда ЛАКБ
;;;723    snmp_lakb_dsch_curr[1]=lakb[1]._dsch_curr;				//Ток разряда ЛАКБ
;;;724    snmp_lakb_rat_cap[0]=lakb[0]._rat_cap;					//Номинальная емкость ЛАКБ
;;;725    snmp_lakb_rat_cap[1]=lakb[1]._rat_cap;					//Номинальная емкость ЛАКБ
;;;726    snmp_lakb_soh[0]=lakb[0]._s_o_h;						//Остаточная емкость ЛАКБ
;;;727    snmp_lakb_soh[1]=lakb[1]._s_o_h;						//Остаточная емкость ЛАКБ
;;;728    snmp_lakb_soc[0]=lakb[0]._s_o_c;						//Заряд ЛАКБ
;;;729    snmp_lakb_soc[1]=lakb[1]._s_o_c;						//Заряд ЛАКБ
;;;730    snmp_lakb_cclv[0]=lakb[0]._c_c_l_v;  					//Максимальный ток заряда ЛАКБ
;;;731    snmp_lakb_cclv[1]=lakb[1]._c_c_l_v;  					//Максимальный ток заряда ЛАКБ
;;;732    snmp_lakb_rbt[0]=lakb[0]._r_b_t;						//Оцениваемое время работы ЛАКБ
;;;733    snmp_lakb_rbt[1]=lakb[1]._r_b_t;						//Оцениваемое время работы ЛАКБ
;;;734    snmp_lakb_flags1[0]=lakb[0]._flags1;					//Первый флаг состояния ЛАКБ
;;;735    snmp_lakb_flags1[1]=lakb[1]._flags1;					//Первый флаг состояния ЛАКБ
;;;736    snmp_lakb_flags2[0]=lakb[0]._flags2;					//Второй флаг состояния ЛАКБ
;;;737    snmp_lakb_flags2[1]=lakb[1]._flags2;					//Второй флаг состояния ЛАКБ */
;;;738    
;;;739    //Литиевые батареи
;;;740    snmp_lakb_number[0]=1;								//Номер ЛАКБ
00124a  4967              LDR      r1,|L1.5096|
00124c  3168              ADDS     r1,r1,#0x68
00124e  8008              STRH     r0,[r1,#0]
;;;741    snmp_lakb_number[1]=2;								//Номер ЛАКБ
001250  804c              STRH     r4,[r1,#2]
;;;742    snmp_lakb_number[2]=3;								//Номер ЛАКБ
001252  808d              STRH     r5,[r1,#4]
;;;743    snmp_lakb_number[3]=4;								//Номер ЛАКБ
001254  f04f0004          MOV      r0,#4
001258  80c8              STRH     r0,[r1,#6]
;;;744    snmp_lakb_number[4]=5;								//Номер ЛАКБ
00125a  f04f0005          MOV      r0,#5
00125e  8108              STRH     r0,[r1,#8]
;;;745    snmp_lakb_number[5]=6;								//Номер ЛАКБ
001260  f04f0006          MOV      r0,#6
001264  8148              STRH     r0,[r1,#0xa]
;;;746    snmp_lakb_number[6]=7;								//Номер ЛАКБ
001266  f04f0007          MOV      r0,#7
00126a  8188              STRH     r0,[r1,#0xc]
;;;747    
;;;748    for (i=0;i<3;i++)
00126c  f04f0000          MOV      r0,#0
;;;749    	{
;;;750    	snmp_lakb_voltage[i]=lakb[i]._tot_bat_volt;				//Напряжение ЛАКБ
001270  4d61              LDR      r5,|L1.5112|
001272  f101030e          ADD      r3,r1,#0xe
;;;751    	snmp_lakb_max_cell_voltage[i]=lakb[i]._max_cell_volt;		//Максимальное напряжение ячейки ЛАКБ
001276  f101061c          ADD      r6,r1,#0x1c
;;;752    	snmp_lakb_min_cell_voltage[i]=lakb[i]._min_cell_volt;		//Минимальное напряжение ячейки ЛАКБ
00127a  f101072a          ADD      r7,r1,#0x2a
;;;753    	snmp_lakb_max_cell_temperature[i]=lakb[i]._max_cell_temp;	//Максимальная температура ячейки ЛАКБ
00127e  f1010c38          ADD      r12,r1,#0x38
;;;754    	//snmp_lakb_max_cell_temperature[1]=lakb[1]._max_cell_temp;	//Максимальная температура ячейки ЛАКБ
;;;755    	snmp_lakb_min_cell_temperature[i]=lakb[i]._min_cell_temp;	//Минимальная температура ячейки ЛАКБ
001282  f1010846          ADD      r8,r1,#0x46
;;;756    	//snmp_lakb_min_cell_temperature[1]=lakb[1]._min_cell_temp;	//Минимальная температура ячейки ЛАКБ
;;;757    	snmp_lakb_ch_curr[i]=lakb[i]._ch_curr;					//Ток заряда ЛАКБ
001286  f1010954          ADD      r9,r1,#0x54
;;;758    	//snmp_lakb_ch_curr[1]=lakb[1]._ch_curr;					//Ток заряда ЛАКБ
;;;759    	snmp_lakb_dsch_curr[i]=lakb[i]._dsch_curr;				//Ток разряда ЛАКБ
00128a  f1010a62          ADD      r10,r1,#0x62
;;;760    	//snmp_lakb_dsch_curr[1]=lakb[1]._dsch_curr;				//Ток разряда ЛАКБ
;;;761    	snmp_lakb_rat_cap[i]=lakb[i]._rat_cap;					//Номинальная емкость ЛАКБ
00128e  f1010b70          ADD      r11,r1,#0x70
;;;762    	//snmp_lakb_rat_cap[1]=lakb[1]._rat_cap;					//Номинальная емкость ЛАКБ
;;;763    	snmp_lakb_soh[i]=lakb[i]._s_o_h;						//Остаточная емкость ЛАКБ
001292  f1010e7e          ADD      lr,r1,#0x7e
                  |L1.4758|
001296  eb000140          ADD      r1,r0,r0,LSL #1       ;750
00129a  eb011200          ADD      r2,r1,r0,LSL #4       ;750
00129e  eb050182          ADD      r1,r5,r2,LSL #2       ;750
0012a2  890c              LDRH     r4,[r1,#8]            ;750
0012a4  f8234010          STRH     r4,[r3,r0,LSL #1]     ;750
0012a8  f8352022          LDRH     r2,[r5,r2,LSL #2]     ;751
0012ac  f8262010          STRH     r2,[r6,r0,LSL #1]     ;751
0012b0  884a              LDRH     r2,[r1,#2]            ;752
0012b2  f8272010          STRH     r2,[r7,r0,LSL #1]     ;752
0012b6  888a              LDRH     r2,[r1,#4]            ;753
0012b8  f82c2010          STRH     r2,[r12,r0,LSL #1]    ;753
0012bc  88ca              LDRH     r2,[r1,#6]            ;755
0012be  f8282010          STRH     r2,[r8,r0,LSL #1]     ;755
0012c2  894a              LDRH     r2,[r1,#0xa]          ;757
0012c4  f8292010          STRH     r2,[r9,r0,LSL #1]     ;757
0012c8  898a              LDRH     r2,[r1,#0xc]          ;759
0012ca  f82a2010          STRH     r2,[r10,r0,LSL #1]    ;759
0012ce  89ca              LDRH     r2,[r1,#0xe]          ;761
0012d0  f82b2010          STRH     r2,[r11,r0,LSL #1]    ;761
0012d4  8a0a              LDRH     r2,[r1,#0x10]
0012d6  f82e2010          STRH     r2,[lr,r0,LSL #1]
;;;764    	//snmp_lakb_soh[1]=lakb[1]._s_o_h;						//Остаточная емкость ЛАКБ
;;;765    	snmp_lakb_soc[i]=lakb[i]._s_o_c;						//Заряд ЛАКБ
0012da  4a43              LDR      r2,|L1.5096|
0012dc  8a4c              LDRH     r4,[r1,#0x12]
0012de  f10202f4          ADD      r2,r2,#0xf4
0012e2  f8224010          STRH     r4,[r2,r0,LSL #1]
;;;766    	//snmp_lakb_soc[1]=lakb[1]._s_o_c;						//Заряд ЛАКБ
;;;767    	snmp_lakb_cclv[i]=lakb[i]._c_c_l_v;  					//Максимальный ток заряда ЛАКБ
0012e6  8a8c              LDRH     r4,[r1,#0x14]
0012e8  f102020e          ADD      r2,r2,#0xe
0012ec  e000              B        |L1.4848|
                  |L1.4846|
0012ee  e08e              B        |L1.5134|
                  |L1.4848|
0012f0  f8224010          STRH     r4,[r2,r0,LSL #1]
;;;768    	//snmp_lakb_cclv[1]=lakb[1]._c_c_l_v;  					//Максимальный ток заряда ЛАКБ
;;;769    	snmp_lakb_rbt[i]=lakb[i]._r_b_t;						//Оцениваемое время работы ЛАКБ
0012f4  f102020e          ADD      r2,r2,#0xe
0012f8  8acc              LDRH     r4,[r1,#0x16]
0012fa  f8224010          STRH     r4,[r2,r0,LSL #1]
;;;770    	//snmp_lakb_rbt[1]=lakb[1]._r_b_t;						//Оцениваемое время работы ЛАКБ
;;;771    	snmp_lakb_flags1[i]=lakb[i]._flags1;					//Первый флаг состояния ЛАКБ
0012fe  f102020e          ADD      r2,r2,#0xe
001302  8b4c              LDRH     r4,[r1,#0x1a]
001304  f8224010          STRH     r4,[r2,r0,LSL #1]
;;;772    	//snmp_lakb_flags1[1]=lakb[1]._flags1;					//Первый флаг состояния ЛАКБ
;;;773    	snmp_lakb_flags2[i]=lakb[i]._flags2;					//Второй флаг состояния ЛАКБ
001308  f102020e          ADD      r2,r2,#0xe
00130c  8b8c              LDRH     r4,[r1,#0x1c]
00130e  f8224010          STRH     r4,[r2,r0,LSL #1]
;;;774    	//snmp_lakb_flags2[1]=lakb[1]._flags2;					//Второй флаг состояния ЛАКБ
;;;775    
;;;776    	snmp_lakb_cell_temperature_1[i]= lakb[i]._cell_temp_1;
001312  4a13              LDR      r2,|L1.4960|
001314  f891403a          LDRB     r4,[r1,#0x3a]
001318  f1a202a6          SUB      r2,r2,#0xa6
00131c  5414              STRB     r4,[r2,r0]
;;;777    	snmp_lakb_cell_temperature_2[i]= lakb[i]._cell_temp_2;
00131e  4c10              LDR      r4,|L1.4960|
001320  f891203b          LDRB     r2,[r1,#0x3b]
001324  f1a404a3          SUB      r4,r4,#0xa3
001328  5422              STRB     r2,[r4,r0]
;;;778    	snmp_lakb_cell_temperature_3[i]= lakb[i]._cell_temp_3;
00132a  f1040403          ADD      r4,r4,#3
00132e  f891203c          LDRB     r2,[r1,#0x3c]
001332  5422              STRB     r2,[r4,r0]
;;;779    	snmp_lakb_cell_temperature_4[i]= lakb[i]._cell_temp_4;
001334  f1040403          ADD      r4,r4,#3
001338  f891203d          LDRB     r2,[r1,#0x3d]
00133c  5422              STRB     r2,[r4,r0]
;;;780    	snmp_lakb_cell_temperature_ambient[i]=lakb[i]._cell_temp_ambient;
00133e  f1040403          ADD      r4,r4,#3
001342  f891203e          LDRB     r2,[r1,#0x3e]
001346  5422              STRB     r2,[r4,r0]
;;;781    	snmp_lakb_cell_temperature_power[i]=lakb[i]._cell_temp_power;
001348  f1040203          ADD      r2,r4,#3
00134c  f891103f          LDRB     r1,[r1,#0x3f]
001350  5411              STRB     r1,[r2,r0]
001352  f1000001          ADD      r0,r0,#1              ;748
001356  b2c0              UXTB     r0,r0                 ;748
001358  2803              CMP      r0,#3                 ;748
00135a  d39c              BCC      |L1.4758|
;;;782    	}
;;;783    
;;;784    for (i=0;i<7;i++)
00135c  e04e              B        |L1.5116|
00135e  0000              DCW      0x0000
                  |L1.4960|
                          DCD      ||.data||+0x140
                  |L1.4964|
                          DCD      t_box
                  |L1.4968|
                          DCD      TBOXMAX
                  |L1.4972|
                          DCD      TBOXVENTON
                  |L1.4976|
                          DCD      TBOXVENTOFF
                  |L1.4980|
                          DCD      TBOXWARMON
                  |L1.4984|
                          DCD      TBOXWARMOFF
                  |L1.4988|
                          DCD      TLOADENABLE
                  |L1.4992|
                          DCD      TLOADDISABLE
                  |L1.4996|
                          DCD      TBATENABLE
                  |L1.5000|
                          DCD      TBATDISABLE
                  |L1.5004|
                          DCD      t_ext
                  |L1.5008|
                          DCD      ZV_ON
                  |L1.5012|
                          DCD      AV_OFF_AVT
                  |L1.5016|
                          DCD      TBAT
                  |L1.5020|
                          DCD      UMAX
                  |L1.5024|
                          DCD      UB20
                  |L1.5028|
                          DCD      ||DU||
                  |L1.5032|
                          DCD      UB0
                  |L1.5036|
                          DCD      USIGN
                  |L1.5040|
                          DCD      UMN
                  |L1.5044|
                          DCD      U0B
                  |L1.5048|
                          DCD      IKB
                  |L1.5052|
                          DCD      IZMAX
                  |L1.5056|
                          DCD      IMAX
                  |L1.5060|
                          DCD      IMIN
                  |L1.5064|
                          DCD      UVZ
                  |L1.5068|
                          DCD      TZAS
                  |L1.5072|
                          DCD      TMAX
                  |L1.5076|
                          DCD      TBATSIGN
                  |L1.5080|
                          DCD      TBATMAX
                  |L1.5084|
                          DCD      TSIGN
                  |L1.5088|
                          DCD      UBM_AV
                  |L1.5092|
                          DCD      POWER_CNT_ADRESS
                  |L1.5096|
                          DCD      ||.bss||+0x12c
                  |L1.5100|
                          DCD      avt_stat
                  |L1.5104|
                          DCD      ND_EXT
                  |L1.5108|
                          DCD      NUMDT
                  |L1.5112|
                          DCD      lakb
                  |L1.5116|
0013fc  f04f0000          MOV      r0,#0
                  |L1.5120|
001400  f1000001          ADD      r0,r0,#1
001404  b2c0              UXTB     r0,r0
001406  2807              CMP      r0,#7
001408  d3fa              BCC      |L1.5120|
;;;785    {
;;;786    /*
;;;787    snmp_lakb_damp1[i][0]=ABCDEF[(lakb_damp[i][0])>>4];			//Дамп
;;;788    snmp_lakb_damp1[i][1]=ABCDEF[(lakb_damp[i][0])&0x0f];			//Дамп
;;;789    snmp_lakb_damp1[i][2]=' ';
;;;790    snmp_lakb_damp1[i][3]=ABCDEF[(lakb_damp[i][1])>>4];			//Дамп
;;;791    snmp_lakb_damp1[i][4]=ABCDEF[(lakb_damp[i][1])&0x0f];			//Дамп
;;;792    snmp_lakb_damp1[i][5]=' ';
;;;793    snmp_lakb_damp1[i][6]=ABCDEF[(lakb_damp[i][2])>>4];			//Дамп
;;;794    snmp_lakb_damp1[i][7]=ABCDEF[(lakb_damp[i][2])&0x0f];			//Дамп
;;;795    snmp_lakb_damp1[i][8]=' ';
;;;796    snmp_lakb_damp1[i][9]=ABCDEF[(lakb_damp[i][3])>>4];			//Дамп
;;;797    snmp_lakb_damp1[i][10]=ABCDEF[(lakb_damp[i][3])&0x0f];			//Дамп
;;;798    snmp_lakb_damp1[i][11]=' ';
;;;799    snmp_lakb_damp1[i][12]=ABCDEF[(lakb_damp[i][4])>>4];			//Дамп
;;;800    snmp_lakb_damp1[i][13]=ABCDEF[(lakb_damp[i][4])&0x0f];			//Дамп
;;;801    snmp_lakb_damp1[i][14]=' '; 
;;;802    snmp_lakb_damp1[i][15]=ABCDEF[(lakb_damp[i][5])>>4];			//Дамп
;;;803    snmp_lakb_damp1[i][16]=ABCDEF[(lakb_damp[i][5])&0x0f];			//Дамп
;;;804    snmp_lakb_damp1[i][17]=' ';
;;;805    snmp_lakb_damp1[i][18]=ABCDEF[(lakb_damp[i][6])>>4];			//Дамп
;;;806    snmp_lakb_damp1[i][19]=ABCDEF[(lakb_damp[i][6])&0x0f];			//Дамп
;;;807    snmp_lakb_damp1[i][20]=' ';
;;;808    snmp_lakb_damp1[i][21]=ABCDEF[(lakb_damp[i][7])>>4];			//Дамп
;;;809    snmp_lakb_damp1[i][22]=ABCDEF[(lakb_damp[i][7])&0x0f];			//Дамп
;;;810    snmp_lakb_damp1[i][23]=' ';
;;;811    snmp_lakb_damp1[i][24]=ABCDEF[(lakb_damp[i][8])>>4];			//Дамп
;;;812    snmp_lakb_damp1[i][25]=ABCDEF[(lakb_damp[i][8])&0x0f];			//Дамп
;;;813    snmp_lakb_damp1[i][26]=' ';
;;;814    snmp_lakb_damp1[i][27]=ABCDEF[(lakb_damp[i][9])>>4];			//Дамп
;;;815    snmp_lakb_damp1[i][28]=ABCDEF[(lakb_damp[i][9])&0x0f];			//Дамп
;;;816    snmp_lakb_damp1[i][29]=0; 
;;;817    
;;;818    snmp_lakb_damp1[i][30]=ABCDEF[(lakb_damp[i][10])>>4];			//Дамп
;;;819    snmp_lakb_damp1[i][31]=ABCDEF[(lakb_damp[i][10])&0x0f];			//Дамп
;;;820    snmp_lakb_damp1[i][32]=' ';
;;;821    snmp_lakb_damp1[i][33]=ABCDEF[(lakb_damp[i][11])>>4];			//Дамп
;;;822    snmp_lakb_damp1[i][34]=ABCDEF[(lakb_damp[i][11])&0x0f];			//Дамп
;;;823    snmp_lakb_damp1[i][35]=' ';
;;;824    snmp_lakb_damp1[i][36]=ABCDEF[(lakb_damp[i][12])>>4];			//Дамп
;;;825    snmp_lakb_damp1[i][37]=ABCDEF[(lakb_damp[i][12])&0x0f];			//Дамп
;;;826    snmp_lakb_damp1[i][38]=' ';
;;;827    snmp_lakb_damp1[i][39]=ABCDEF[(lakb_damp[i][13])>>4];			//Дамп
;;;828    snmp_lakb_damp1[i][40]=ABCDEF[(lakb_damp[i][13])&0x0f];			//Дамп
;;;829    snmp_lakb_damp1[i][41]=' ';
;;;830    snmp_lakb_damp1[i][42]=ABCDEF[(lakb_damp[i][14])>>4];			//Дамп
;;;831    snmp_lakb_damp1[i][43]=ABCDEF[(lakb_damp[i][14])&0x0f];			//Дамп
;;;832    snmp_lakb_damp1[i][44]=' '; 
;;;833    snmp_lakb_damp1[i][45]=ABCDEF[(lakb_damp[i][15])>>4];			//Дамп
;;;834    snmp_lakb_damp1[i][46]=ABCDEF[(lakb_damp[i][15])&0x0f];			//Дамп
;;;835    snmp_lakb_damp1[i][47]=' ';
;;;836    snmp_lakb_damp1[i][48]=ABCDEF[(lakb_damp[i][16])>>4];			//Дамп
;;;837    snmp_lakb_damp1[i][49]=ABCDEF[(lakb_damp[i][16])&0x0f];			//Дамп
;;;838    snmp_lakb_damp1[i][50]=' ';
;;;839    snmp_lakb_damp1[i][51]=ABCDEF[(lakb_damp[i][17])>>4];			//Дамп
;;;840    snmp_lakb_damp1[i][52]=ABCDEF[(lakb_damp[i][17])&0x0f];			//Дамп
;;;841    snmp_lakb_damp1[i][53]=' ';
;;;842    snmp_lakb_damp1[i][54]=ABCDEF[(lakb_damp[i][18])>>4];			//Дамп
;;;843    snmp_lakb_damp1[i][55]=ABCDEF[(lakb_damp[i][18])&0x0f];			//Дамп
;;;844    snmp_lakb_damp1[i][56]=' ';
;;;845    snmp_lakb_damp1[i][57]=ABCDEF[(lakb_damp[i][19])>>4];			//Дамп
;;;846    snmp_lakb_damp1[i][58]=ABCDEF[(lakb_damp[i][19])&0x0f];			//Дамп
;;;847    snmp_lakb_damp1[i][59]=0; 
;;;848    
;;;849    
;;;850    snmp_lakb_damp1[i][60]=ABCDEF[(lakb_damp[i][20])>>4];			//Дамп
;;;851    snmp_lakb_damp1[i][61]=ABCDEF[(lakb_damp[i][20])&0x0f];			//Дамп
;;;852    snmp_lakb_damp1[i][62]=' ';
;;;853    snmp_lakb_damp1[i][63]=ABCDEF[(lakb_damp[i][21])>>4];			//Дамп
;;;854    snmp_lakb_damp1[i][64]=ABCDEF[(lakb_damp[i][21])&0x0f];			//Дамп
;;;855    snmp_lakb_damp1[i][65]=' ';
;;;856    snmp_lakb_damp1[i][66]=ABCDEF[(lakb_damp[i][22])>>4];			//Дамп
;;;857    snmp_lakb_damp1[i][67]=ABCDEF[(lakb_damp[i][22])&0x0f];			//Дамп
;;;858    snmp_lakb_damp1[i][68]=' ';
;;;859    snmp_lakb_damp1[i][69]=ABCDEF[(lakb_damp[i][23])>>4];			//Дамп
;;;860    snmp_lakb_damp1[i][70]=ABCDEF[(lakb_damp[i][23])&0x0f];			//Дамп
;;;861    snmp_lakb_damp1[i][71]=' ';
;;;862    snmp_lakb_damp1[i][72]=ABCDEF[(lakb_damp[i][24])>>4];			//Дамп
;;;863    snmp_lakb_damp1[i][73]=ABCDEF[(lakb_damp[i][24])&0x0f];			//Дамп
;;;864    snmp_lakb_damp1[i][74]=' '; 
;;;865    snmp_lakb_damp1[i][75]=ABCDEF[(lakb_damp[i][25])>>4];			//Дамп
;;;866    snmp_lakb_damp1[i][76]=ABCDEF[(lakb_damp[i][25])&0x0f];			//Дамп
;;;867    snmp_lakb_damp1[i][77]=' ';
;;;868    snmp_lakb_damp1[i][78]=ABCDEF[(lakb_damp[i][26])>>4];			//Дамп
;;;869    snmp_lakb_damp1[i][79]=ABCDEF[(lakb_damp[i][26])&0x0f];			//Дамп
;;;870    snmp_lakb_damp1[i][80]=' ';
;;;871    snmp_lakb_damp1[i][81]=ABCDEF[(lakb_damp[i][27])>>4];			//Дамп
;;;872    snmp_lakb_damp1[i][82]=ABCDEF[(lakb_damp[i][27])&0x0f];			//Дамп
;;;873    snmp_lakb_damp1[i][83]=' ';
;;;874    snmp_lakb_damp1[i][84]=ABCDEF[(lakb_damp[i][28])>>4];			//Дамп
;;;875    snmp_lakb_damp1[i][85]=ABCDEF[(lakb_damp[i][28])&0x0f];			//Дамп
;;;876    snmp_lakb_damp1[i][86]=' ';
;;;877    snmp_lakb_damp1[i][87]=ABCDEF[(lakb_damp[i][29])>>4];			//Дамп
;;;878    snmp_lakb_damp1[i][88]=ABCDEF[(lakb_damp[i][29])&0x0f];			//Дамп
;;;879    snmp_lakb_damp1[i][89]=0;
;;;880    
;;;881    
;;;882    snmp_lakb_damp1[i][90]=ABCDEF[(lakb_damp[i][30])>>4];			//Дамп
;;;883    snmp_lakb_damp1[i][91]=ABCDEF[(lakb_damp[i][30])&0x0f];			//Дамп
;;;884    snmp_lakb_damp1[i][92]=' ';
;;;885    snmp_lakb_damp1[i][93]=ABCDEF[(lakb_damp[i][31])>>4];			//Дамп
;;;886    snmp_lakb_damp1[i][94]=ABCDEF[(lakb_damp[i][31])&0x0f];			//Дамп
;;;887    snmp_lakb_damp1[i][95]=' ';
;;;888    snmp_lakb_damp1[i][96]=ABCDEF[(lakb_damp[i][32])>>4];			//Дамп
;;;889    snmp_lakb_damp1[i][97]=ABCDEF[(lakb_damp[i][32])&0x0f];			//Дамп
;;;890    snmp_lakb_damp1[i][98]=' ';
;;;891    snmp_lakb_damp1[i][99]=ABCDEF[(lakb_damp[i][33])>>4];			//Дамп
;;;892    snmp_lakb_damp1[i][100]=ABCDEF[(lakb_damp[i][33])&0x0f];			//Дамп
;;;893    snmp_lakb_damp1[i][101]=' ';
;;;894    snmp_lakb_damp1[i][102]=ABCDEF[(lakb_damp[i][34])>>4];			//Дамп
;;;895    snmp_lakb_damp1[i][103]=ABCDEF[(lakb_damp[i][34])&0x0f];			//Дамп
;;;896    snmp_lakb_damp1[i][104]=' '; 
;;;897    snmp_lakb_damp1[i][105]=ABCDEF[(lakb_damp[i][35])>>4];			//Дамп
;;;898    snmp_lakb_damp1[i][106]=ABCDEF[(lakb_damp[i][35])&0x0f];			//Дамп
;;;899    snmp_lakb_damp1[i][107]=' ';
;;;900    snmp_lakb_damp1[i][108]=ABCDEF[(lakb_damp[i][36])>>4];			//Дамп
;;;901    snmp_lakb_damp1[i][109]=ABCDEF[(lakb_damp[i][36])&0x0f];			//Дамп
;;;902    snmp_lakb_damp1[i][110]=' ';
;;;903    snmp_lakb_damp1[i][111]=ABCDEF[(lakb_damp[i][37])>>4];			//Дамп
;;;904    snmp_lakb_damp1[i][112]=ABCDEF[(lakb_damp[i][37])&0x0f];			//Дамп
;;;905    snmp_lakb_damp1[i][113]=' ';
;;;906    snmp_lakb_damp1[i][114]=ABCDEF[(lakb_damp[i][38])>>4];			//Дамп
;;;907    snmp_lakb_damp1[i][115]=ABCDEF[(lakb_damp[i][38])&0x0f];			//Дамп
;;;908    snmp_lakb_damp1[i][116]=' ';
;;;909    snmp_lakb_damp1[i][117]=ABCDEF[(lakb_damp[i][39])>>4];			//Дамп
;;;910    snmp_lakb_damp1[i][118]=ABCDEF[(lakb_damp[i][39])&0x0f];			//Дамп
;;;911    snmp_lakb_damp1[i][119]=0; 
;;;912     
;;;913    
;;;914    snmp_lakb_damp1[i][120]=ABCDEF[(lakb_damp[i][40])>>4];			//Дамп
;;;915    snmp_lakb_damp1[i][121]=ABCDEF[(lakb_damp[i][40])&0x0f];			//Дамп
;;;916    snmp_lakb_damp1[i][122]=' ';
;;;917    snmp_lakb_damp1[i][123]=ABCDEF[(lakb_damp[i][41])>>4];			//Дамп
;;;918    snmp_lakb_damp1[i][124]=ABCDEF[(lakb_damp[i][41])&0x0f];			//Дамп
;;;919    snmp_lakb_damp1[i][125]=' ';
;;;920    snmp_lakb_damp1[i][126]=ABCDEF[(lakb_damp[i][42])>>4];			//Дамп
;;;921    snmp_lakb_damp1[i][127]=ABCDEF[(lakb_damp[i][42])&0x0f];			//Дамп
;;;922    snmp_lakb_damp1[i][128]=' ';
;;;923    snmp_lakb_damp1[i][129]=ABCDEF[(lakb_damp[i][43])>>4];			//Дамп
;;;924    snmp_lakb_damp1[i][130]=ABCDEF[(lakb_damp[i][43])&0x0f];			//Дамп
;;;925    snmp_lakb_damp1[i][131]=' ';
;;;926    snmp_lakb_damp1[i][132]=ABCDEF[(lakb_damp[i][44])>>4];			//Дамп
;;;927    snmp_lakb_damp1[i][133]=ABCDEF[(lakb_damp[i][44])&0x0f];			//Дамп
;;;928    snmp_lakb_damp1[i][134]=' '; 
;;;929    snmp_lakb_damp1[i][135]=ABCDEF[(lakb_damp[i][45])>>4];			//Дамп
;;;930    snmp_lakb_damp1[i][136]=ABCDEF[(lakb_damp[i][45])&0x0f];			//Дамп
;;;931    snmp_lakb_damp1[i][137]=' ';
;;;932    snmp_lakb_damp1[i][138]=ABCDEF[(lakb_damp[i][46])>>4];			//Дамп
;;;933    snmp_lakb_damp1[i][139]=ABCDEF[(lakb_damp[i][46])&0x0f];			//Дамп
;;;934    snmp_lakb_damp1[i][140]=' ';
;;;935    snmp_lakb_damp1[i][141]=ABCDEF[(lakb_damp[i][47])>>4];			//Дамп
;;;936    snmp_lakb_damp1[i][142]=ABCDEF[(lakb_damp[i][47])&0x0f];			//Дамп
;;;937    snmp_lakb_damp1[i][143]=' ';
;;;938    snmp_lakb_damp1[i][144]=ABCDEF[(lakb_damp[i][48])>>4];			//Дамп
;;;939    snmp_lakb_damp1[i][145]=ABCDEF[(lakb_damp[i][48])&0x0f];			//Дамп
;;;940    snmp_lakb_damp1[i][146]=' ';
;;;941    snmp_lakb_damp1[i][147]=ABCDEF[(lakb_damp[i][49])>>4];			//Дамп
;;;942    snmp_lakb_damp1[i][148]=ABCDEF[(lakb_damp[i][49])&0x0f];			//Дамп
;;;943    snmp_lakb_damp1[i][149]=0;  */
;;;944    }
;;;945    
;;;946    #ifdef UKU_TELECORE2017
;;;947    snmp_warm_sign=0;
;;;948    if(TELECORE2017_KLIMAT_WARM_SIGNAL==0) snmp_warm_sign=2;
;;;949    else if(TELECORE2017_KLIMAT_WARM_SIGNAL==1) snmp_warm_sign=1;
;;;950    snmp_cool_sign=0;
;;;951    if(TELECORE2017_KLIMAT_VENT_SIGNAL==0) snmp_cool_sign=2;
;;;952    else if(TELECORE2017_KLIMAT_VENT_SIGNAL==1) snmp_cool_sign=1;
;;;953    snmp_warm_on_temper=(signed char)TELECORE2017_KLIMAT_WARM_ON; 
;;;954    snmp_warm_off_temper=(signed char)TELECORE2017_KLIMAT_WARM_OFF;
;;;955    snmp_warm_q=(signed char)TELECORE2017_KLIMAT_CAP;	
;;;956    snmp_cool_20_temper=(signed char)TELECORE2017_KLIMAT_VENT_ON20;
;;;957    snmp_cool_40_temper=(signed char)TELECORE2017_KLIMAT_VENT_ON40;
;;;958    snmp_cool_60_temper=(signed char)TELECORE2017_KLIMAT_VENT_ON60;
;;;959    snmp_cool_80_temper=(signed char)TELECORE2017_KLIMAT_VENT_ON80;
;;;960    snmp_cool_100_temper=(signed char)TELECORE2017_KLIMAT_VENT_ON100;
;;;961    snmp_cool_20_dtemper=(signed char)TELECORE2017_KLIMAT_DVENT_ON20;
;;;962    snmp_cool_40_dtemper=(signed char)TELECORE2017_KLIMAT_DVENT_ON40;
;;;963    snmp_cool_60_dtemper=(signed char)TELECORE2017_KLIMAT_DVENT_ON60;
;;;964    snmp_cool_80_dtemper=(signed char)TELECORE2017_KLIMAT_DVENT_ON80;
;;;965    snmp_cool_100_dtemper=(signed char)TELECORE2017_KLIMAT_DVENT_ON100;
;;;966    snmp_warm_stat=0;
;;;967    if(warm_stat_k==wsON) snmp_warm_stat=1;
;;;968    #endif
;;;969    }
00140a  e8bd9ff0          POP      {r4-r12,pc}
                  |L1.5134|
00140e  5474              STRB     r4,[r6,r1]            ;685
001410  e6ef              B        |L1.4594|
;;;970    //-----------------------------------------------
                          ENDP

                  snmp_location_write PROC
;;;980    //-----------------------------------------------
;;;981    void snmp_location_write (int mode) 
001412  b570              PUSH     {r4-r6,lr}
;;;982    {
;;;983    char i;
;;;984    if(mode==MIB_WRITE)
001414  2801              CMP      r0,#1
001416  d10c              BNE      |L1.5170|
;;;985    	{
;;;986    	for(i=0;i<64;i++)
001418  f04f0400          MOV      r4,#0
;;;987    		{
;;;988    		lc640_write(EE_LOCATION+i,snmp_location[i]);
00141c  4dfa              LDR      r5,|L1.6152|
                  |L1.5150|
00141e  f5047065          ADD      r0,r4,#0x394
001422  5d29              LDRB     r1,[r5,r4]
001424  f7fffffe          BL       lc640_write
001428  f1040401          ADD      r4,r4,#1              ;986
00142c  b2e4              UXTB     r4,r4                 ;986
00142e  2c40              CMP      r4,#0x40              ;986
001430  d3f5              BCC      |L1.5150|
                  |L1.5170|
;;;989    		}
;;;990    	}
;;;991    }
001432  bd70              POP      {r4-r6,pc}
;;;992    
                          ENDP

                  snmp_alarm_aktiv_write1 PROC
;;;993    //-----------------------------------------------
;;;994    void snmp_alarm_aktiv_write1(int mode)
001434  2801              CMP      r0,#1
;;;995    {
;;;996    if(mode==MIB_WRITE)
001436  d10e              BNE      |L1.5206|
;;;997    	{
;;;998    	if(!snmp_sk_alarm_aktiv[0])   lc640_write_int(ADR_SK_SIGN[0],0xffff);
001438  48f4              LDR      r0,|L1.6156|
00143a  7801              LDRB     r1,[r0,#0]  ; snmp_sk_alarm_aktiv
00143c  48f4              LDR      r0,|L1.6160|
00143e  b121              CBZ      r1,|L1.5194|
;;;999    	else lc640_write_int(ADR_SK_SIGN[0],0);
001440  f9b00000          LDRSH    r0,[r0,#0]  ; ADR_SK_SIGN
001444  2100              MOVS     r1,#0
001446  f7ffbffe          B.W      lc640_write_int
                  |L1.5194|
00144a  f9b00000          LDRSH    r0,[r0,#0]            ;998  ; ADR_SK_SIGN
00144e  f04f31ff          MOV      r1,#0xffffffff        ;998
001452  f7ffbffe          B.W      lc640_write_int
                  |L1.5206|
;;;1000   	}
;;;1001   }
001456  4770              BX       lr
;;;1002   
                          ENDP

                  snmp_alarm_aktiv_write2 PROC
;;;1003   //-----------------------------------------------
;;;1004   void snmp_alarm_aktiv_write2(int mode)
001458  2801              CMP      r0,#1
;;;1005   {
;;;1006   if(mode==MIB_WRITE)
00145a  d10e              BNE      |L1.5242|
;;;1007   	{
;;;1008   	if(!snmp_sk_alarm_aktiv[1])   lc640_write_int(ADR_SK_SIGN[1],0xffff);
00145c  48eb              LDR      r0,|L1.6156|
00145e  7841              LDRB     r1,[r0,#1]  ; snmp_sk_alarm_aktiv
001460  48eb              LDR      r0,|L1.6160|
001462  b121              CBZ      r1,|L1.5230|
;;;1009   	else lc640_write_int(ADR_SK_SIGN[1],0);
001464  f9b00002          LDRSH    r0,[r0,#2]  ; ADR_SK_SIGN
001468  2100              MOVS     r1,#0
00146a  f7ffbffe          B.W      lc640_write_int
                  |L1.5230|
00146e  f9b00002          LDRSH    r0,[r0,#2]            ;1008  ; ADR_SK_SIGN
001472  f04f31ff          MOV      r1,#0xffffffff        ;1008
001476  f7ffbffe          B.W      lc640_write_int
                  |L1.5242|
;;;1010   	}
;;;1011   }
00147a  4770              BX       lr
;;;1012   
                          ENDP

                  snmp_zv_on_write PROC
;;;1042   //-----------------------------------------------
;;;1043   void snmp_zv_on_write (int mode)
00147c  2801              CMP      r0,#1
;;;1044   {
;;;1045   if(mode==MIB_WRITE)
00147e  d106              BNE      |L1.5262|
;;;1046   	{
;;;1047   	lc640_write_int(EE_ZV_ON,snmp_zv_en);
001480  48e2              LDR      r0,|L1.6156|
001482  38e0              SUBS     r0,r0,#0xe0
001484  f9b0104c          LDRSH    r1,[r0,#0x4c]  ; snmp_zv_en
001488  2086              MOVS     r0,#0x86
00148a  f7ffbffe          B.W      lc640_write_int
                  |L1.5262|
;;;1048   	}
;;;1049   }
00148e  4770              BX       lr
;;;1050   
                          ENDP

                  snmp_alarm_auto_disable_write PROC
;;;1051   //-----------------------------------------------
;;;1052   void snmp_alarm_auto_disable_write (int mode)
001490  2801              CMP      r0,#1
;;;1053   {
;;;1054   if(mode==MIB_WRITE)
001492  d106              BNE      |L1.5282|
;;;1055   	{
;;;1056        lc640_write_int(EE_AV_OFF_AVT,snmp_alarm_auto_disable);
001494  48dd              LDR      r0,|L1.6156|
001496  38e0              SUBS     r0,r0,#0xe0
001498  f9b0104e          LDRSH    r1,[r0,#0x4e]  ; snmp_alarm_auto_disable
00149c  2080              MOVS     r0,#0x80
00149e  f7ffbffe          B.W      lc640_write_int
                  |L1.5282|
;;;1057   	}
;;;1058   }
0014a2  4770              BX       lr
;;;1059   
                          ENDP

                  snmp_bat_test_time_write PROC
;;;1060   //-----------------------------------------------
;;;1061   void snmp_bat_test_time_write (int mode)
0014a4  2801              CMP      r0,#1
;;;1062   {
;;;1063   if(mode==MIB_WRITE)
0014a6  d106              BNE      |L1.5302|
;;;1064   	{
;;;1065   	lc640_write_int(EE_TBAT,snmp_bat_test_time);
0014a8  48d8              LDR      r0,|L1.6156|
0014aa  38e0              SUBS     r0,r0,#0xe0
0014ac  f9b01050          LDRSH    r1,[r0,#0x50]  ; snmp_bat_test_time
0014b0  20c2              MOVS     r0,#0xc2
0014b2  f7ffbffe          B.W      lc640_write_int
                  |L1.5302|
;;;1066   	}
;;;1067   }
0014b6  4770              BX       lr
;;;1068   
                          ENDP

                  snmp_uvz_write PROC
;;;1069   //-----------------------------------------------
;;;1070   void snmp_uvz_write (int mode)
0014b8  2801              CMP      r0,#1
;;;1071   {
;;;1072   if(mode==MIB_WRITE)
0014ba  d105              BNE      |L1.5320|
;;;1073   	{
;;;1074   	lc640_write_int(EE_UVZ,UVZ);
0014bc  48d5              LDR      r0,|L1.6164|
0014be  f9b01000          LDRSH    r1,[r0,#0]  ; UVZ
0014c2  20de              MOVS     r0,#0xde
0014c4  f7ffbffe          B.W      lc640_write_int
                  |L1.5320|
;;;1075   	}
;;;1076   }
0014c8  4770              BX       lr
;;;1077   
                          ENDP

                  snmp_imax_vz_write PROC
;;;1078   //-----------------------------------------------
;;;1079   void snmp_imax_vz_write (int mode)
0014ca  2801              CMP      r0,#1
;;;1080   {
;;;1081   if(mode==MIB_WRITE)
0014cc  d106              BNE      |L1.5340|
;;;1082   	{
;;;1083   	lc640_write_int(EE_IMAX_VZ,IMAX_VZ);
0014ce  48d2              LDR      r0,|L1.6168|
0014d0  f9b01000          LDRSH    r1,[r0,#0]  ; IMAX_VZ
0014d4  f44f70d2          MOV      r0,#0x1a4
0014d8  f7ffbffe          B.W      lc640_write_int
                  |L1.5340|
;;;1084   	}
;;;1085   }	
0014dc  4770              BX       lr
;;;1086   
                          ENDP

                  snmp_vz_hr_write PROC
;;;1087   //-----------------------------------------------
;;;1088   void snmp_vz_hr_write (int mode)
0014de  2801              CMP      r0,#1
;;;1089   {
;;;1090   if(mode==MIB_WRITE)
0014e0  d105              BNE      |L1.5358|
;;;1091   	{
;;;1092   	lc640_write_int(EE_VZ_HR,VZ_HR);
0014e2  48ce              LDR      r0,|L1.6172|
0014e4  f9b01000          LDRSH    r1,[r0,#0]  ; VZ_HR
0014e8  20c0              MOVS     r0,#0xc0
0014ea  f7ffbffe          B.W      lc640_write_int
                  |L1.5358|
;;;1093   	}
;;;1094   }
0014ee  4770              BX       lr
;;;1095   
                          ENDP

                  snmp_vz_ch_vent_block_write PROC
;;;1096   //-----------------------------------------------
;;;1097   void snmp_vz_ch_vent_block_write (int mode)
0014f0  2801              CMP      r0,#1
;;;1098   {
;;;1099   if(mode==MIB_WRITE)
0014f2  d106              BNE      |L1.5378|
;;;1100   	{
;;;1101   	lc640_write_int(EE_VZ_CH_VENT_BLOK,VZ_CH_VENT_BLOK);
0014f4  48ca              LDR      r0,|L1.6176|
0014f6  f9b01000          LDRSH    r1,[r0,#0]  ; VZ_CH_VENT_BLOK
0014fa  f44f70e8          MOV      r0,#0x1d0
0014fe  f7ffbffe          B.W      lc640_write_int
                  |L1.5378|
;;;1102   	}
;;;1103   }
001502  4770              BX       lr
;;;1104   
                          ENDP

                  snmp_spz_i_max_write PROC
;;;1105   //-----------------------------------------------
;;;1106   void snmp_spz_i_max_write (int mode)
001504  2801              CMP      r0,#1
;;;1107   {
;;;1108   if(mode==MIB_WRITE)
001506  d106              BNE      |L1.5398|
;;;1109   	{
;;;1110   	lc640_write_int(EE_SPEED_CHRG_CURR,speedChrgCurr);
001508  48c6              LDR      r0,|L1.6180|
00150a  f9b01000          LDRSH    r1,[r0,#0]  ; speedChrgCurr
00150e  f44f708b          MOV      r0,#0x116
001512  f7ffbffe          B.W      lc640_write_int
                  |L1.5398|
;;;1111   	}
;;;1112   }
001516  4770              BX       lr
;;;1113   
                          ENDP

                  snmp_spz_u_write PROC
;;;1114   //-----------------------------------------------
;;;1115   void snmp_spz_u_write (int mode)
001518  2801              CMP      r0,#1
;;;1116   {
;;;1117   if(mode==MIB_WRITE)
00151a  d106              BNE      |L1.5418|
;;;1118   	{
;;;1119   	lc640_write_int(EE_SPEED_CHRG_VOLT,speedChrgVolt);
00151c  48c2              LDR      r0,|L1.6184|
00151e  f9b01000          LDRSH    r1,[r0,#0]  ; speedChrgVolt
001522  f44f708c          MOV      r0,#0x118
001526  f7ffbffe          B.W      lc640_write_int
                  |L1.5418|
;;;1120   	}
;;;1121   }
00152a  4770              BX       lr
;;;1122   
                          ENDP

                  snmp_spz_time_write PROC
;;;1123   //-----------------------------------------------
;;;1124   void snmp_spz_time_write (int mode)
00152c  2801              CMP      r0,#1
;;;1125   {
;;;1126   if(mode==MIB_WRITE)
00152e  d106              BNE      |L1.5438|
;;;1127   	{
;;;1128   	lc640_write_int(EE_SPEED_CHRG_TIME,speedChrgTimeInHour);
001530  48be              LDR      r0,|L1.6188|
001532  f9b01000          LDRSH    r1,[r0,#0]  ; speedChrgTimeInHour
001536  f44f708d          MOV      r0,#0x11a
00153a  f7ffbffe          B.W      lc640_write_int
                  |L1.5438|
;;;1129   	}
;;;1130   }
00153e  4770              BX       lr
;;;1131   
                          ENDP

                  snmp_spz_avt_en_write PROC
;;;1132   //-----------------------------------------------
;;;1133   void snmp_spz_avt_en_write (int mode)
001540  2801              CMP      r0,#1
;;;1134   {
;;;1135   if(mode==MIB_WRITE)
001542  d106              BNE      |L1.5458|
;;;1136   	{
;;;1137   	lc640_write_int(EE_SPEED_CHRG_AVT_EN,speedChrgAvtEn);
001544  48ba              LDR      r0,|L1.6192|
001546  f9b01000          LDRSH    r1,[r0,#0]  ; speedChrgAvtEn
00154a  f44f708e          MOV      r0,#0x11c
00154e  f7ffbffe          B.W      lc640_write_int
                  |L1.5458|
;;;1138   	}
;;;1139   }
001552  4770              BX       lr
;;;1140   
                          ENDP

                  snmp_spz_delta_write PROC
;;;1141   //-----------------------------------------------
;;;1142   void snmp_spz_delta_write (int mode)
001554  2801              CMP      r0,#1
;;;1143   {
;;;1144   if(mode==MIB_WRITE)
001556  d106              BNE      |L1.5478|
;;;1145   	{
;;;1146   	lc640_write_int(EE_SPEED_CHRG_D_U,speedChrgDU);
001558  48b6              LDR      r0,|L1.6196|
00155a  f9b01000          LDRSH    r1,[r0,#0]  ; speedChrgDU
00155e  f44f708f          MOV      r0,#0x11e
001562  f7ffbffe          B.W      lc640_write_int
                  |L1.5478|
;;;1147   	}
;;;1148   }
001566  4770              BX       lr
;;;1149   
                          ENDP

                  snmp_spz_block_en_src_write PROC
;;;1150   //-----------------------------------------------
;;;1151   void snmp_spz_block_en_src_write (int mode)
001568  2801              CMP      r0,#1
;;;1152   {
;;;1153   if(mode==MIB_WRITE)
00156a  d106              BNE      |L1.5498|
;;;1154   	{
;;;1155   	lc640_write_int(EE_SPEED_CHRG_BLOCK_SRC,speedChrgBlckSrc);
00156c  48b2              LDR      r0,|L1.6200|
00156e  f9b01000          LDRSH    r1,[r0,#0]  ; speedChrgBlckSrc
001572  f44f7090          MOV      r0,#0x120
001576  f7ffbffe          B.W      lc640_write_int
                  |L1.5498|
;;;1156   	}
;;;1157   }
00157a  4770              BX       lr
;;;1158   
                          ENDP

                  snmp_spz_block_log_write PROC
;;;1159   //-----------------------------------------------
;;;1160   void snmp_spz_block_log_write (int mode)
00157c  2801              CMP      r0,#1
;;;1161   {
;;;1162   if(mode==MIB_WRITE)
00157e  d106              BNE      |L1.5518|
;;;1163   	{
;;;1164   	lc640_write_int(EE_SPEED_CHRG_BLOCK_LOG,speedChrgBlckLog);
001580  48ae              LDR      r0,|L1.6204|
001582  f9b01000          LDRSH    r1,[r0,#0]  ; speedChrgBlckLog
001586  f44f7091          MOV      r0,#0x122
00158a  f7ffbffe          B.W      lc640_write_int
                  |L1.5518|
;;;1165   	}
;;;1166   }
00158e  4770              BX       lr
;;;1167   
                          ENDP

                  snmp_spz_vent_block_write PROC
;;;1168   //-----------------------------------------------
;;;1169   void snmp_spz_vent_block_write (int mode)
001590  2801              CMP      r0,#1
;;;1170   {
;;;1171   if(mode==MIB_WRITE)
001592  d106              BNE      |L1.5538|
;;;1172   	{
;;;1173   	lc640_write_int(EE_SP_CH_VENT_BLOK,SP_CH_VENT_BLOK);
001594  48aa              LDR      r0,|L1.6208|
001596  f9b01000          LDRSH    r1,[r0,#0]  ; SP_CH_VENT_BLOK
00159a  f44f70e7          MOV      r0,#0x1ce
00159e  f7ffbffe          B.W      lc640_write_int
                  |L1.5538|
;;;1174   	}
;;;1175   }
0015a2  4770              BX       lr
;;;1176   
                          ENDP

                  snmp_u_max_write PROC
;;;1177   //-----------------------------------------------
;;;1178   void snmp_u_max_write (int mode)
0015a4  2801              CMP      r0,#1
;;;1179   {
;;;1180   if(mode==MIB_WRITE)
0015a6  d106              BNE      |L1.5558|
;;;1181   	{
;;;1182        lc640_write_int(EE_UMAX,snmp_u_max);
0015a8  4898              LDR      r0,|L1.6156|
0015aa  38e0              SUBS     r0,r0,#0xe0
0015ac  f9b01052          LDRSH    r1,[r0,#0x52]  ; snmp_u_max
0015b0  2078              MOVS     r0,#0x78
0015b2  f7ffbffe          B.W      lc640_write_int
                  |L1.5558|
;;;1183   	}
;;;1184   }
0015b6  4770              BX       lr
;;;1185   
                          ENDP

                  snmp_u_out_kontr_max_write PROC
;;;1186   //-----------------------------------------------
;;;1187   void snmp_u_out_kontr_max_write (int mode)
0015b8  2801              CMP      r0,#1
;;;1188   {
;;;1189   if(mode==MIB_WRITE)
0015ba  d106              BNE      |L1.5578|
;;;1190   	{
;;;1191   	lc640_write_int(EE_U_OUT_KONTR_MAX,U_OUT_KONTR_MAX);
0015bc  48a1              LDR      r0,|L1.6212|
0015be  f9b01000          LDRSH    r1,[r0,#0]  ; U_OUT_KONTR_MAX
0015c2  f44f7095          MOV      r0,#0x12a
0015c6  f7ffbffe          B.W      lc640_write_int
                  |L1.5578|
;;;1192   	}
;;;1193   }
0015ca  4770              BX       lr
;;;1194   
                          ENDP

                  snmp_u_out_kontr_min_write PROC
;;;1195   //-----------------------------------------------
;;;1196   void snmp_u_out_kontr_min_write (int mode)
0015cc  2801              CMP      r0,#1
;;;1197   {
;;;1198   if(mode==MIB_WRITE)
0015ce  d106              BNE      |L1.5598|
;;;1199   	{
;;;1200   	lc640_write_int(EE_U_OUT_KONTR_MIN,U_OUT_KONTR_MIN);
0015d0  489d              LDR      r0,|L1.6216|
0015d2  f9b01000          LDRSH    r1,[r0,#0]  ; U_OUT_KONTR_MIN
0015d6  f44f7096          MOV      r0,#0x12c
0015da  f7ffbffe          B.W      lc640_write_int
                  |L1.5598|
;;;1201   	}
;;;1202   }
0015de  4770              BX       lr
;;;1203   
                          ENDP

                  snmp_u_out_kontr_delay_write PROC
;;;1204   //-----------------------------------------------
;;;1205   void snmp_u_out_kontr_delay_write (int mode)
0015e0  2801              CMP      r0,#1
;;;1206   {
;;;1207   if(mode==MIB_WRITE)
0015e2  d106              BNE      |L1.5618|
;;;1208   	{
;;;1209   	lc640_write_int(EE_U_OUT_KONTR_DELAY,U_OUT_KONTR_DELAY);
0015e4  4899              LDR      r0,|L1.6220|
0015e6  f9b01000          LDRSH    r1,[r0,#0]  ; U_OUT_KONTR_DELAY
0015ea  f44f7097          MOV      r0,#0x12e
0015ee  f7ffbffe          B.W      lc640_write_int
                  |L1.5618|
;;;1210   	}
;;;1211   }
0015f2  4770              BX       lr
;;;1212   
                          ENDP

                  snmp_u_min_write PROC
;;;1213   //-----------------------------------------------
;;;1214   void snmp_u_min_write (int mode)
0015f4  2801              CMP      r0,#1
;;;1215   {
;;;1216   if(mode==MIB_WRITE)
0015f6  d10a              BNE      |L1.5646|
;;;1217   	{
;;;1218        lc640_write_int(EE_DU,UB20-snmp_u_min);
0015f8  4984              LDR      r1,|L1.6156|
0015fa  4895              LDR      r0,|L1.6224|
0015fc  39e0              SUBS     r1,r1,#0xe0
0015fe  8800              LDRH     r0,[r0,#0]  ; UB20
001600  f8b11054          LDRH     r1,[r1,#0x54]  ; snmp_u_min
001604  1a40              SUBS     r0,r0,r1
001606  b201              SXTH     r1,r0
001608  20c8              MOVS     r0,#0xc8
00160a  f7ffbffe          B.W      lc640_write_int
                  |L1.5646|
;;;1219   	}
;;;1220   }
00160e  4770              BX       lr
;;;1221   
                          ENDP

                  snmp_u_ips_set_write PROC
;;;1222   //-----------------------------------------------
;;;1223   void snmp_u_ips_set_write (int mode)
001610  b510              PUSH     {r4,lr}
;;;1224   {
;;;1225   if(mode==MIB_WRITE)
001612  2801              CMP      r0,#1
001614  d10d              BNE      |L1.5682|
;;;1226   	{
;;;1227   	lc640_write_int(EE_UB0,snmp_u_0_grad);
001616  4c7d              LDR      r4,|L1.6156|
001618  207a              MOVS     r0,#0x7a
00161a  3ce0              SUBS     r4,r4,#0xe0
00161c  f9b41056          LDRSH    r1,[r4,#0x56]  ; snmp_u_0_grad
001620  f7fffffe          BL       lc640_write_int
;;;1228   	lc640_write_int(EE_UB20,snmp_u_0_grad);
001624  f9b41056          LDRSH    r1,[r4,#0x56]  ; snmp_u_0_grad
001628  e8bd4010          POP      {r4,lr}
00162c  207c              MOVS     r0,#0x7c
00162e  f7ffbffe          B.W      lc640_write_int
                  |L1.5682|
;;;1229   	}
;;;1230   }
001632  bd10              POP      {r4,pc}
;;;1231   //-----------------------------------------------
                          ENDP

                  snmp_u_0_grad_write PROC
;;;1232   void snmp_u_0_grad_write (int mode)
001634  2801              CMP      r0,#1
;;;1233   {
;;;1234   if(mode==MIB_WRITE)
001636  d106              BNE      |L1.5702|
;;;1235   	{
;;;1236   	lc640_write_int(EE_UB0,snmp_u_0_grad);
001638  4874              LDR      r0,|L1.6156|
00163a  38e0              SUBS     r0,r0,#0xe0
00163c  f9b01056          LDRSH    r1,[r0,#0x56]  ; snmp_u_0_grad
001640  207a              MOVS     r0,#0x7a
001642  f7ffbffe          B.W      lc640_write_int
                  |L1.5702|
;;;1237   	}
;;;1238   }
001646  4770              BX       lr
;;;1239   //-----------------------------------------------
                          ENDP

                  snmp_u_20_grad_write PROC
;;;1240   void snmp_u_20_grad_write (int mode)
001648  2801              CMP      r0,#1
;;;1241   {
;;;1242   if(mode==MIB_WRITE)
00164a  d106              BNE      |L1.5722|
;;;1243   	{
;;;1244   	lc640_write_int(EE_UB20,snmp_u_20_grad);
00164c  486f              LDR      r0,|L1.6156|
00164e  38e0              SUBS     r0,r0,#0xe0
001650  f9b01058          LDRSH    r1,[r0,#0x58]  ; snmp_u_20_grad
001654  207c              MOVS     r0,#0x7c
001656  f7ffbffe          B.W      lc640_write_int
                  |L1.5722|
;;;1245   	}
;;;1246   }
00165a  4770              BX       lr
;;;1247   
                          ENDP

                  snmp_u_sign_write PROC
;;;1248   //-----------------------------------------------
;;;1249   void snmp_u_sign_write (int mode)
00165c  2801              CMP      r0,#1
;;;1250   {
;;;1251   if(mode==MIB_WRITE)
00165e  d106              BNE      |L1.5742|
;;;1252   	{
;;;1253       lc640_write_int(EE_USIGN,snmp_u_sign);
001660  486a              LDR      r0,|L1.6156|
001662  38e0              SUBS     r0,r0,#0xe0
001664  f9b0105a          LDRSH    r1,[r0,#0x5a]  ; snmp_u_sign
001668  2082              MOVS     r0,#0x82
00166a  f7ffbffe          B.W      lc640_write_int
                  |L1.5742|
;;;1254   	}
;;;1255   }
00166e  4770              BX       lr
;;;1256   //-----------------------------------------------
                          ENDP

                  snmp_u_min_power_write PROC
;;;1257   void snmp_u_min_power_write (int mode)
001670  2801              CMP      r0,#1
;;;1258   {
;;;1259   if(mode==MIB_WRITE)
001672  d106              BNE      |L1.5762|
;;;1260   	{
;;;1261   	lc640_write_int(EE_UMN,snmp_u_min_power);
001674  4865              LDR      r0,|L1.6156|
001676  38e0              SUBS     r0,r0,#0xe0
001678  f9b0105c          LDRSH    r1,[r0,#0x5c]  ; snmp_u_min_power
00167c  2084              MOVS     r0,#0x84
00167e  f7ffbffe          B.W      lc640_write_int
                  |L1.5762|
;;;1262   	}
;;;1263   }
001682  4770              BX       lr
;;;1264   //-----------------------------------------------
                          ENDP

                  snmp_u_withouth_bat_write PROC
;;;1265   void snmp_u_withouth_bat_write (int mode)
001684  2801              CMP      r0,#1
;;;1266   {
;;;1267   if(mode==MIB_WRITE)
001686  d106              BNE      |L1.5782|
;;;1268   	{
;;;1269   	lc640_write_int(EE_U0B,snmp_u_withouth_bat);
001688  4860              LDR      r0,|L1.6156|
00168a  38e0              SUBS     r0,r0,#0xe0
00168c  f9b0105e          LDRSH    r1,[r0,#0x5e]  ; snmp_u_withouth_bat
001690  2094              MOVS     r0,#0x94
001692  f7ffbffe          B.W      lc640_write_int
                  |L1.5782|
;;;1270   	}
;;;1271   }
001696  4770              BX       lr
;;;1272   
                          ENDP

                  snmp_control_current_write PROC
;;;1273   //-----------------------------------------------
;;;1274   void snmp_control_current_write (int mode)
001698  2801              CMP      r0,#1
;;;1275   {
;;;1276   if(mode==MIB_WRITE)
00169a  d106              BNE      |L1.5802|
;;;1277   	{
;;;1278   	lc640_write_int(EE_IKB,snmp_control_current);
00169c  485b              LDR      r0,|L1.6156|
00169e  38e0              SUBS     r0,r0,#0xe0
0016a0  f9b01060          LDRSH    r1,[r0,#0x60]  ; snmp_control_current
0016a4  2088              MOVS     r0,#0x88
0016a6  f7ffbffe          B.W      lc640_write_int
                  |L1.5802|
;;;1279   	}
;;;1280   }
0016aa  4770              BX       lr
;;;1281   
                          ENDP

                  snmp_max_charge_current_write PROC
;;;1282   //-----------------------------------------------
;;;1283   void snmp_max_charge_current_write (int mode)
0016ac  2801              CMP      r0,#1
;;;1284   {
;;;1285   if(mode==MIB_WRITE)
0016ae  d106              BNE      |L1.5822|
;;;1286   	{
;;;1287   	lc640_write_int(EE_IZMAX,snmp_max_charge_current);
0016b0  4856              LDR      r0,|L1.6156|
0016b2  38e0              SUBS     r0,r0,#0xe0
0016b4  f9b01062          LDRSH    r1,[r0,#0x62]  ; snmp_max_charge_current
0016b8  2092              MOVS     r0,#0x92
0016ba  f7ffbffe          B.W      lc640_write_int
                  |L1.5822|
;;;1288   	}
;;;1289   }
0016be  4770              BX       lr
;;;1290   
                          ENDP

                  snmp_max_current_write PROC
;;;1291   //-----------------------------------------------
;;;1292   void snmp_max_current_write (int mode)
0016c0  2801              CMP      r0,#1
;;;1293   {
;;;1294   if(mode==MIB_WRITE)
0016c2  d106              BNE      |L1.5842|
;;;1295   	{
;;;1296        lc640_write_int(EE_IMAX,snmp_max_current);
0016c4  4851              LDR      r0,|L1.6156|
0016c6  38e0              SUBS     r0,r0,#0xe0
0016c8  f9b01064          LDRSH    r1,[r0,#0x64]  ; snmp_max_current
0016cc  208c              MOVS     r0,#0x8c
0016ce  f7ffbffe          B.W      lc640_write_int
                  |L1.5842|
;;;1297   	}
;;;1298   }
0016d2  4770              BX       lr
;;;1299   
                          ENDP

                  snmp_min_current_write PROC
;;;1300   //-----------------------------------------------
;;;1301   void snmp_min_current_write (int mode)
0016d4  2801              CMP      r0,#1
;;;1302   {
;;;1303   if(mode==MIB_WRITE)
0016d6  d106              BNE      |L1.5862|
;;;1304   	{
;;;1305        lc640_write_int(EE_IMIN,snmp_min_current);
0016d8  484c              LDR      r0,|L1.6156|
0016da  38e0              SUBS     r0,r0,#0xe0
0016dc  f9b01066          LDRSH    r1,[r0,#0x66]  ; snmp_min_current
0016e0  208e              MOVS     r0,#0x8e
0016e2  f7ffbffe          B.W      lc640_write_int
                  |L1.5862|
;;;1306   	}
;;;1307   }
0016e6  4770              BX       lr
;;;1308   
                          ENDP

                  snmp_powerup_psu_timeout_write PROC
;;;1327   //-----------------------------------------------
;;;1328   void snmp_powerup_psu_timeout_write (int mode)
0016e8  2801              CMP      r0,#1
;;;1329   {
;;;1330   if(mode==MIB_WRITE)
0016ea  d106              BNE      |L1.5882|
;;;1331   	{
;;;1332        lc640_write_int(EE_TZAS,snmp_powerup_psu_timeout);
0016ec  4847              LDR      r0,|L1.6156|
0016ee  38e0              SUBS     r0,r0,#0xe0
0016f0  f9b0106a          LDRSH    r1,[r0,#0x6a]  ; snmp_powerup_psu_timeout
0016f4  2096              MOVS     r0,#0x96
0016f6  f7ffbffe          B.W      lc640_write_int
                  |L1.5882|
;;;1333   	}
;;;1334   }
0016fa  4770              BX       lr
;;;1335   
                          ENDP

                  snmp_tsign_bat_write PROC
;;;1345   //-----------------------------------------------
;;;1346   void snmp_tsign_bat_write(int mode)
0016fc  2801              CMP      r0,#1
;;;1347   {
;;;1348   if(mode==MIB_WRITE)
0016fe  d106              BNE      |L1.5902|
;;;1349   	{
;;;1350    	lc640_write_int(EE_TBATSIGN,snmp_tsign_bat);
001700  4842              LDR      r0,|L1.6156|
001702  38e0              SUBS     r0,r0,#0xe0
001704  f9b0106e          LDRSH    r1,[r0,#0x6e]  ; snmp_tsign_bat
001708  20ce              MOVS     r0,#0xce
00170a  f7ffbffe          B.W      lc640_write_int
                  |L1.5902|
;;;1351   	}
;;;1352   }
00170e  4770              BX       lr
;;;1353   //-----------------------------------------------
                          ENDP

                  snmp_tmax_bat_write PROC
;;;1354   void snmp_tmax_bat_write(int mode)
001710  2801              CMP      r0,#1
;;;1355   {
;;;1356   if(mode==MIB_WRITE)
001712  d106              BNE      |L1.5922|
;;;1357   	{
;;;1358    	lc640_write_int(EE_TBATMAX,snmp_tmax_bat);
001714  483d              LDR      r0,|L1.6156|
001716  38e0              SUBS     r0,r0,#0xe0
001718  f9b01070          LDRSH    r1,[r0,#0x70]  ; snmp_tmax_bat
00171c  20cc              MOVS     r0,#0xcc
00171e  f7ffbffe          B.W      lc640_write_int
                  |L1.5922|
;;;1359   	}
;;;1360   }
001722  4770              BX       lr
;;;1361   //-----------------------------------------------
                          ENDP

                  snmp_tsign_bps_write PROC
;;;1362   void snmp_tsign_bps_write(int mode)
001724  2801              CMP      r0,#1
;;;1363   {
;;;1364   if(mode==MIB_WRITE)
001726  d106              BNE      |L1.5942|
;;;1365   	{
;;;1366   	lc640_write_int(EE_TSIGN,snmp_tsign_bps);
001728  4838              LDR      r0,|L1.6156|
00172a  38e0              SUBS     r0,r0,#0xe0
00172c  f9b01072          LDRSH    r1,[r0,#0x72]  ; snmp_tsign_bps
001730  20c6              MOVS     r0,#0xc6
001732  f7ffbffe          B.W      lc640_write_int
                  |L1.5942|
;;;1367   	}
;;;1368   }
001736  4770              BX       lr
;;;1369   //-----------------------------------------------
                          ENDP

                  snmp_tmax_bps_write PROC
;;;1370   void snmp_tmax_bps_write(int mode)
001738  2801              CMP      r0,#1
;;;1371   {
;;;1372   if(mode==MIB_WRITE)
00173a  d106              BNE      |L1.5962|
;;;1373   	{
;;;1374   	lc640_write_int(EE_TMAX,snmp_tmax_bps);
00173c  4833              LDR      r0,|L1.6156|
00173e  38e0              SUBS     r0,r0,#0xe0
001740  f9b01074          LDRSH    r1,[r0,#0x74]  ; snmp_tmax_bps
001744  207e              MOVS     r0,#0x7e
001746  f7ffbffe          B.W      lc640_write_int
                  |L1.5962|
;;;1375   	}
;;;1376   }
00174a  4770              BX       lr
;;;1377   
                          ENDP

                  snmp_bat_part_alarm_write PROC
;;;1388   //-----------------------------------------------
;;;1389   void snmp_bat_part_alarm_write(int mode)
00174c  2801              CMP      r0,#1
;;;1390   {
;;;1391   if(mode==MIB_WRITE)
00174e  d107              BNE      |L1.5984|
;;;1392   	{
;;;1393   	lc640_write_int(EE_UBM_AV,snmp_bat_part_alarm);
001750  482e              LDR      r0,|L1.6156|
001752  38e0              SUBS     r0,r0,#0xe0
001754  f9b01076          LDRSH    r1,[r0,#0x76]  ; snmp_bat_part_alarm
001758  f44f7019          MOV      r0,#0x264
00175c  f7ffbffe          B.W      lc640_write_int
                  |L1.5984|
;;;1394   	}
;;;1395   }
001760  4770              BX       lr
;;;1396   //-----------------------------------------------
                          ENDP

                  snmp_power_cnt_adress_write PROC
;;;1397   void snmp_power_cnt_adress_write(int mode)
001762  2801              CMP      r0,#1
;;;1398   {
;;;1399   if(mode==MIB_WRITE)
001764  d107              BNE      |L1.6006|
;;;1400   	{
;;;1401   	lc640_write_int(EE_POWER_CNT_ADRESS,snmp_power_cnt_adress);
001766  4829              LDR      r0,|L1.6156|
001768  38e0              SUBS     r0,r0,#0xe0
00176a  f9b01078          LDRSH    r1,[r0,#0x78]  ; snmp_power_cnt_adress
00176e  f2402062          MOV      r0,#0x262
001772  f7ffbffe          B.W      lc640_write_int
                  |L1.6006|
;;;1402   	}
;;;1403   }
001776  4770              BX       lr
;;;1404   
                          ENDP

                  snmp_command_execute PROC
;;;1405   //-----------------------------------------------
;;;1406   void snmp_command_execute (int mode)
001778  e92d41f0          PUSH     {r4-r8,lr}
;;;1407   {
;;;1408   if(mode==MIB_WRITE)
00177c  2801              CMP      r0,#1
00177e  d11b              BNE      |L1.6072|
;;;1409   	{
;;;1410   	
;;;1411   	//snmp_command=0x5555;
;;;1412   
;;;1413   	switch (snmp_command)
001780  4c22              LDR      r4,|L1.6156|
;;;1414   		{
;;;1415   		case SNMP_BPS_DISABLE:
;;;1416   			{
;;;1417   			snmp_command=COMMAND_OK;
;;;1418   
;;;1419   		/*	switch (snmp_command_parametr)
;;;1420   				{
;;;1421   			
;;;1422   				case 1: 
;;;1423   				{
;;;1424   				St_[0]|=0x20;
;;;1425   				St_[1]&=0xdf;
;;;1426   				St&=0xfb;
;;;1427   				cnt_src[1]=10;
;;;1428   				snmp_plazma++;
;;;1429   				snmp_plazma++;
;;;1430   				break;
;;;1431   				}
;;;1432   			
;;;1433   				case 2:
;;;1434   				{
;;;1435   				St_[1]|=0x20;
;;;1436   				St_[0]&=0xdf;
;;;1437   				St&=0xfb;
;;;1438   				cnt_src[0]=10;	
;;;1439   				snmp_plazma++;
;;;1440   				break;
;;;1441   				}*/	
;;;1442   			
;;;1443   				//break;
;;;1444   			//	}
;;;1445   			if(snmp_command_parametr==1) 
;;;1446   				{
;;;1447   			//	St_[0]|=0x20;
;;;1448   			//	St_[1]&=0xdf;
;;;1449   			//	St&=0xfb;
;;;1450   		//		cnt_src[1]=10;
;;;1451   		//		snmp_plazma++;
;;;1452   		//		snmp_plazma++;
;;;1453   				}
;;;1454   			
;;;1455   			else if(snmp_command_parametr==2)
;;;1456   				{
;;;1457   			//	St_[1]|=0x20;
;;;1458   			//	St_[0]&=0xdf;
;;;1459   			//	St&=0xfb;
;;;1460   		//		cnt_src[0]=10;	
;;;1461   		//		snmp_plazma++;
;;;1462   				}	
;;;1463   			
;;;1464   			break;
;;;1465   			}
;;;1466   
;;;1467   		case SNMP_BPS_UNDISABLE:
;;;1468   			{
;;;1469   			snmp_command=COMMAND_OK;
;;;1470   		//	St_[0]&=0xdf;
;;;1471   		//	St_[1]&=0xdf;
;;;1472   			break;
;;;1473   			}
;;;1474   
;;;1475   		case SNMP_SPEC_VZ:
;;;1476   			{
;;;1477   			//if((snmp_command_parametr>=1)&&(snmp_command_parametr<=24))
;;;1478   				{
;;;1479   				if(spc_stat==spcOFF)
001782  4f35              LDR      r7,|L1.6232|
001784  3ce0              SUBS     r4,r4,#0xe0           ;1413
001786  4620              MOV      r0,r4                 ;1413
001788  f9b42048          LDRSH    r2,[r4,#0x48]         ;1413  ; snmp_command
00178c  f2455555          MOV      r5,#0x5555            ;1417
001790  1ed2              SUBS     r2,r2,#3              ;1413
;;;1480   					{
;;;1481   					vz_start(VZ_HR);
;;;1482   				 	snmp_command=COMMAND_OK;
;;;1483   					}
;;;1484   				else
;;;1485    					{
;;;1486   					snmp_command=COMAND_FAIL;	
001792  43ee              MVNS     r6,r5
;;;1487    					}
;;;1488   				}
;;;1489   		/*	else 
;;;1490   				{
;;;1491   				snmp_command=WRONG_PARAMETER;
;;;1492   				}*/
;;;1493   			break;
;;;1494   			}
;;;1495   
;;;1496   		case SNMP_SPEC_SPZ:
;;;1497   			{
;;;1498   			//if((snmp_command_parametr>=1)&&(snmp_command_parametr<=24))
;;;1499   				{
;;;1500   				if(sp_ch_stat==scsOFF)
001794  f8df80bc          LDR      r8,|L1.6228|
001798  f9b0004a          LDRSH    r0,[r0,#0x4a]         ;1445
00179c  7839              LDRB     r1,[r7,#0]            ;1479
00179e  2a0b              CMP      r2,#0xb               ;1413
0017a0  d26d              BCS      |L1.6270|
0017a2  e8dff002          TBB      [pc,r2]               ;1413
0017a6  0e2a              DCB      0x0e,0x2a
0017a8  066c5d0b          DCB      0x06,0x6c,0x5d,0x0b
0017ac  6c6c6c6c          DCB      0x6c,0x6c,0x6c,0x6c
0017b0  1a00              DCB      0x1a,0x00
0017b2  f8a45048          STRH     r5,[r4,#0x48]         ;1417
0017b6  2801              CMP      r0,#1                 ;1445
                  |L1.6072|
;;;1501   					{
;;;1502   					speedChargeStartStop();
;;;1503   					spch_plazma[0]++;
;;;1504   				 	snmp_command=COMMAND_OK;
;;;1505   					}
;;;1506   				else
;;;1507    					{
;;;1508   					snmp_command=COMAND_FAIL;	
;;;1509    					}
;;;1510   				} 
;;;1511   		/*	else 
;;;1512   				{
;;;1513   				snmp_command=WRONG_PARAMETER;
;;;1514   				}*/
;;;1515   			break;
;;;1516   			}
;;;1517   
;;;1518   		case SNMP_SPEC_KE:
;;;1519   			{
;;;1520   	  	//	if(!(St&0x02)&&(NUMBAT))
;;;1521   				{
;;;1522   				//spc_stat=spc_KE;
;;;1523   			//zar_cnt_ee_ke=0;
;;;1524   			//	zar_cnt=0L;
;;;1525   				ke_start(snmp_command_parametr);
;;;1526   				snmp_command=COMMAND_OK;
;;;1527   				}
;;;1528   		//	else
;;;1529   				{
;;;1530   				snmp_command=COMAND_FAIL;	
;;;1531   				}
;;;1532   			break;
;;;1533   			}
;;;1534   
;;;1535   		case SNMP_SPEC_DISABLE:
;;;1536   			{
;;;1537   			if(spc_stat==spcVZ)vz_stop();
;;;1538   			spc_stat=spcOFF;
;;;1539   
;;;1540   			if(sp_ch_stat!=scsOFF)speedChargeStartStop();
;;;1541   			
;;;1542   			snmp_command=COMMAND_OK;
;;;1543   			break;
;;;1544   			}
;;;1545   
;;;1546   
;;;1547   		default:
;;;1548   			{
;;;1549   			snmp_command=COMMAND_INVALID;
;;;1550   			break;
;;;1551   			}
;;;1552   		}
;;;1553   /*		else if((UIB2[1]==0x52)&&(UIB2[4]==5)&&(UIB2[5]==5)&&(UIB2[6])&&(UIB2[6]<=NUMIST)&&(UIB2[6]==UIB2[7])) 	//Выключение источника 
;;;1554   		{
;;;1555   	
;;;1556   		if((UIB2[6]==1)&&(UIB2[7]==1)) 
;;;1557   			{
;;;1558   			St_[0]|=0x20;
;;;1559   			St_[1]&=0xdf;
;;;1560   			St&=0xfb;
;;;1561   			cnt_src[1]=10;
;;;1562   			}
;;;1563   			
;;;1564   		else if((UIB2[6]==2)&&(UIB2[7]==2))
;;;1565   			{
;;;1566   			St_[1]|=0x20;
;;;1567   			St_[0]&=0xdf;
;;;1568   			St&=0xfb;
;;;1569   			cnt_src[0]=10;
;;;1570   			}	
;;;1571   		
;;;1572        	memo_out2[0]=0x33;
;;;1573        	memo_out2[1]=0x62;
;;;1574        	memo_out2[2]=4;
;;;1575        	memo_out2[3]=0x03;
;;;1576        	
;;;1577        	memo_out2[4]=5;
;;;1578        	memo_out2[5]=5;
;;;1579        	memo_out2[6]=UIB2[6];
;;;1580        	memo_out2[7]=UIB2[6];
;;;1581            	memo_out2[8]=crc_87(memo_out2,8);
;;;1582   		memo_out2[9]=crc_95(memo_out2,8);
;;;1583        	uart_out_adr2(memo_out2,10); 		
;;;1584   		} */
;;;1585   
;;;1586   
;;;1587   
;;;1588   	}
;;;1589   }
0017b8  e8bd81f0          POP      {r4-r8,pc}
0017bc  f8a45048          STRH     r5,[r4,#0x48]         ;1469
0017c0  e7fa              B        |L1.6072|
0017c2  b111              CBZ      r1,|L1.6090|
0017c4  f8a46048          STRH     r6,[r4,#0x48]         ;1486
0017c8  e7f6              B        |L1.6072|
                  |L1.6090|
0017ca  4814              LDR      r0,|L1.6172|
0017cc  8800              LDRH     r0,[r0,#0]            ;1481  ; VZ_HR
0017ce  b2c0              UXTB     r0,r0                 ;1481
0017d0  f7fffffe          BL       vz_start
0017d4  f8a45048          STRH     r5,[r4,#0x48]         ;1482
0017d8  e7ee              B        |L1.6072|
0017da  f8980000          LDRB     r0,[r8,#0]            ;1500  ; sp_ch_stat
0017de  b110              CBZ      r0,|L1.6118|
0017e0  f8a46048          STRH     r6,[r4,#0x48]         ;1508
0017e4  e7e8              B        |L1.6072|
                  |L1.6118|
0017e6  f7fffffe          BL       speedChargeStartStop
0017ea  481c              LDR      r0,|L1.6236|
0017ec  7801              LDRB     r1,[r0,#0]            ;1503  ; spch_plazma
0017ee  f1010101          ADD      r1,r1,#1              ;1503
0017f2  7001              STRB     r1,[r0,#0]            ;1503
0017f4  f8a45048          STRH     r5,[r4,#0x48]         ;1504
0017f8  e7de              B        |L1.6072|
0017fa  b2c0              UXTB     r0,r0                 ;1525
0017fc  f7fffffe          BL       ke_start
001800  f8a46048          STRH     r6,[r4,#0x48]         ;1530
001804  e7d8              B        |L1.6072|
001806  0000              DCW      0x0000
                  |L1.6152|
                          DCD      ||.bss||+0x14
                  |L1.6156|
                          DCD      ||.data||+0xe0
                  |L1.6160|
                          DCD      ADR_SK_SIGN
                  |L1.6164|
                          DCD      UVZ
                  |L1.6168|
                          DCD      IMAX_VZ
                  |L1.6172|
                          DCD      VZ_HR
                  |L1.6176|
                          DCD      VZ_CH_VENT_BLOK
                  |L1.6180|
                          DCD      speedChrgCurr
                  |L1.6184|
                          DCD      speedChrgVolt
                  |L1.6188|
                          DCD      speedChrgTimeInHour
                  |L1.6192|
                          DCD      speedChrgAvtEn
                  |L1.6196|
                          DCD      speedChrgDU
                  |L1.6200|
                          DCD      speedChrgBlckSrc
                  |L1.6204|
                          DCD      speedChrgBlckLog
                  |L1.6208|
                          DCD      SP_CH_VENT_BLOK
                  |L1.6212|
                          DCD      U_OUT_KONTR_MAX
                  |L1.6216|
                          DCD      U_OUT_KONTR_MIN
                  |L1.6220|
                          DCD      U_OUT_KONTR_DELAY
                  |L1.6224|
                          DCD      UB20
                  |L1.6228|
                          DCD      sp_ch_stat
                  |L1.6232|
                          DCD      spc_stat
                  |L1.6236|
                          DCD      spch_plazma
001860  2902              CMP      r1,#2                 ;1537
001862  d101              BNE      |L1.6248|
001864  f7fffffe          BL       vz_stop
                  |L1.6248|
001868  f04f0000          MOV      r0,#0                 ;1538
00186c  7038              STRB     r0,[r7,#0]            ;1538
00186e  f8980000          LDRB     r0,[r8,#0]            ;1540  ; sp_ch_stat
001872  b108              CBZ      r0,|L1.6264|
001874  f7fffffe          BL       speedChargeStartStop
                  |L1.6264|
001878  f8a45048          STRH     r5,[r4,#0x48]         ;1542
00187c  e79c              B        |L1.6072|
                  |L1.6270|
00187e  f64e60ee          MOV      r0,#0xeeee            ;1549
001882  f8a40048          STRH     r0,[r4,#0x48]         ;1549
001886  e797              B        |L1.6072|
;;;1590   
                          ENDP

                  snmp_trap_send PROC
;;;2147   //-----------------------------------------------
;;;2148   void snmp_trap_send(char* str, signed short in0, signed short in1, signed short in2)
001888  e92d41f0          PUSH     {r4-r8,lr}
;;;2149   {
;;;2150   for(snmp_trap_send_i=0;snmp_trap_send_i<100;snmp_trap_send_i++)
00188c  4fcf              LDR      r7,|L1.7116|
00188e  f04f0500          MOV      r5,#0
001892  73fd              STRB     r5,[r7,#0xf]
;;;2151   	{
;;;2152   	snmp_spc_trap_message[snmp_trap_send_i]=0;
001894  4ece              LDR      r6,|L1.7120|
                  |L1.6294|
001896  7bfc              LDRB     r4,[r7,#0xf]  ; snmp_trap_send_i
001898  5535              STRB     r5,[r6,r4]
00189a  f1040401          ADD      r4,r4,#1              ;2150
00189e  b2e4              UXTB     r4,r4                 ;2150
0018a0  73fc              STRB     r4,[r7,#0xf]          ;2150
0018a2  2c64              CMP      r4,#0x64              ;2150
0018a4  d3f7              BCC      |L1.6294|
;;;2153   	}
;;;2154   
;;;2155   
;;;2156   obj[0] = 0;
0018a6  f8dfc32c          LDR      r12,|L1.7124|
0018aa  f8ac5000          STRH     r5,[r12,#0]
;;;2157   snmp_trap_send_ii=1;
0018ae  f04f0801          MOV      r8,#1
0018b2  f8878010          STRB     r8,[r7,#0x10]
;;;2158   if(str!=0)
0018b6  b1a8              CBZ      r0,|L1.6372|
;;;2159   	{
;;;2160   	obj[0]++;
0018b8  f8ac8000          STRH     r8,[r12,#0]
;;;2161   	for(snmp_trap_send_i=0;snmp_trap_send_i<100&&(str[snmp_trap_send_i]);snmp_trap_send_i++)
0018bc  73fd              STRB     r5,[r7,#0xf]
0018be  e003              B        |L1.6344|
                  |L1.6336|
;;;2162   		{
;;;2163   		snmp_spc_trap_message[snmp_trap_send_i]=str[snmp_trap_send_i];
0018c0  5535              STRB     r5,[r6,r4]
0018c2  f1040401          ADD      r4,r4,#1              ;2161
0018c6  73fc              STRB     r4,[r7,#0xf]          ;2161
                  |L1.6344|
0018c8  7bfc              LDRB     r4,[r7,#0xf]          ;2161  ; snmp_trap_send_i
0018ca  2c64              CMP      r4,#0x64              ;2161
0018cc  d202              BCS      |L1.6356|
0018ce  5d05              LDRB     r5,[r0,r4]            ;2161
0018d0  2d00              CMP      r5,#0                 ;2161
0018d2  d1f5              BNE      |L1.6336|
                  |L1.6356|
;;;2164   		}
;;;2165   	obj[snmp_trap_send_ii] = 7;
0018d4  f04f0007          MOV      r0,#7
0018d8  f82c0018          STRH     r0,[r12,r8,LSL #1]
;;;2166   	snmp_trap_send_ii++;
0018dc  f1080801          ADD      r8,r8,#1
0018e0  f8878010          STRB     r8,[r7,#0x10]
                  |L1.6372|
;;;2167   	}
;;;2168   if(in0!=0xffff)
0018e4  f64f74ff          MOV      r4,#0xffff
0018e8  42a1              CMP      r1,r4
0018ea  d00e              BEQ      |L1.6410|
;;;2169   	{
;;;2170   	obj[0]++;
0018ec  f8bc0000          LDRH     r0,[r12,#0]  ; obj
0018f0  f1000001          ADD      r0,r0,#1
0018f4  f8ac0000          STRH     r0,[r12,#0]
;;;2171   	snmp_spc_trap_value_0=in0;
0018f8  8679              STRH     r1,[r7,#0x32]
;;;2172   	obj[snmp_trap_send_ii] = 8;
0018fa  7c38              LDRB     r0,[r7,#0x10]  ; snmp_trap_send_ii
0018fc  f04f0108          MOV      r1,#8
001900  f82c1010          STRH     r1,[r12,r0,LSL #1]
;;;2173   	snmp_trap_send_ii++;
001904  f1000001          ADD      r0,r0,#1
001908  7438              STRB     r0,[r7,#0x10]
                  |L1.6410|
;;;2174   	}
;;;2175   if(in1!=0xffff)
00190a  42a2              CMP      r2,r4
00190c  d00e              BEQ      |L1.6444|
;;;2176   	{
;;;2177   	obj[0]++;
00190e  f8bc0000          LDRH     r0,[r12,#0]  ; obj
001912  f1000001          ADD      r0,r0,#1
001916  f8ac0000          STRH     r0,[r12,#0]
;;;2178   	snmp_spc_trap_value_1=in1;
00191a  86ba              STRH     r2,[r7,#0x34]
;;;2179   	obj[snmp_trap_send_ii] = 9;
00191c  7c38              LDRB     r0,[r7,#0x10]  ; snmp_trap_send_ii
00191e  f04f0109          MOV      r1,#9
001922  f82c1010          STRH     r1,[r12,r0,LSL #1]
;;;2180   	snmp_trap_send_ii++;
001926  f1000001          ADD      r0,r0,#1
00192a  7438              STRB     r0,[r7,#0x10]
                  |L1.6444|
;;;2181   	}
;;;2182   if(in2!=0xffff)
00192c  42a3              CMP      r3,r4
00192e  d00e              BEQ      |L1.6478|
;;;2183   	{
;;;2184   	obj[0]++;
001930  f8bc0000          LDRH     r0,[r12,#0]  ; obj
001934  f1000001          ADD      r0,r0,#1
001938  f8ac0000          STRH     r0,[r12,#0]
;;;2185   	snmp_spc_trap_value_2=in2;
00193c  86fb              STRH     r3,[r7,#0x36]
;;;2186   	obj[snmp_trap_send_ii] = 10;
00193e  7c38              LDRB     r0,[r7,#0x10]  ; snmp_trap_send_ii
001940  f04f010a          MOV      r1,#0xa
001944  f82c1010          STRH     r1,[r12,r0,LSL #1]
;;;2187   	snmp_trap_send_ii++;
001948  f1000001          ADD      r0,r0,#1
00194c  7438              STRB     r0,[r7,#0x10]
                  |L1.6478|
;;;2188   	}
;;;2189   
;;;2190   
;;;2191   if((ETH_TRAP1_IP_1!=255)&&(ETH_TRAP1_IP_2!=255)&&(ETH_TRAP1_IP_3!=255)&&(ETH_TRAP1_IP_4!=255))
00194e  48a2              LDR      r0,|L1.7128|
;;;2192   	{
;;;2193   	temp_ip[0]= ETH_TRAP1_IP_1;
001950  4c9e              LDR      r4,|L1.7116|
001952  f9b00000          LDRSH    r0,[r0,#0]            ;2191  ; ETH_TRAP1_IP_1
001956  34e8              ADDS     r4,r4,#0xe8
001958  28ff              CMP      r0,#0xff              ;2191
00195a  d018              BEQ      |L1.6542|
00195c  499f              LDR      r1,|L1.7132|
00195e  f9b11000          LDRSH    r1,[r1,#0]            ;2191  ; ETH_TRAP1_IP_2
001962  29ff              CMP      r1,#0xff              ;2191
001964  d013              BEQ      |L1.6542|
001966  4a9e              LDR      r2,|L1.7136|
001968  f9b22000          LDRSH    r2,[r2,#0]            ;2191  ; ETH_TRAP1_IP_3
00196c  2aff              CMP      r2,#0xff              ;2191
00196e  d00e              BEQ      |L1.6542|
001970  4b9c              LDR      r3,|L1.7140|
001972  f9b33000          LDRSH    r3,[r3,#0]            ;2191  ; ETH_TRAP1_IP_4
001976  2bff              CMP      r3,#0xff              ;2191
001978  d009              BEQ      |L1.6542|
00197a  7020              STRB     r0,[r4,#0]
;;;2194   	temp_ip[1]= ETH_TRAP1_IP_2;
00197c  7061              STRB     r1,[r4,#1]
;;;2195   	temp_ip[2]= ETH_TRAP1_IP_3;
00197e  70a2              STRB     r2,[r4,#2]
;;;2196   	temp_ip[3]= ETH_TRAP1_IP_4;
001980  70e3              STRB     r3,[r4,#3]
;;;2197   	snmp_trap (temp_ip, 6, 3, obj);
001982  4b94              LDR      r3,|L1.7124|
001984  2203              MOVS     r2,#3
001986  2106              MOVS     r1,#6
001988  4620              MOV      r0,r4
00198a  f7fffffe          BL       snmp_trap
                  |L1.6542|
;;;2198   	}
;;;2199   if((ETH_TRAP2_IP_1!=255)&&(ETH_TRAP2_IP_2!=255)&&(ETH_TRAP2_IP_3!=255)&&(ETH_TRAP2_IP_4!=255))
00198e  4896              LDR      r0,|L1.7144|
001990  f9b01000          LDRSH    r1,[r0,#0]  ; ETH_TRAP2_IP_1
001994  29ff              CMP      r1,#0xff
001996  d019              BEQ      |L1.6604|
001998  4894              LDR      r0,|L1.7148|
00199a  f9b02000          LDRSH    r2,[r0,#0]  ; ETH_TRAP2_IP_2
00199e  2aff              CMP      r2,#0xff
0019a0  d014              BEQ      |L1.6604|
0019a2  4893              LDR      r0,|L1.7152|
0019a4  f9b00000          LDRSH    r0,[r0,#0]  ; ETH_TRAP2_IP_3
0019a8  28ff              CMP      r0,#0xff
0019aa  d00f              BEQ      |L1.6604|
0019ac  4b91              LDR      r3,|L1.7156|
0019ae  f9b33000          LDRSH    r3,[r3,#0]  ; ETH_TRAP2_IP_4
0019b2  2bff              CMP      r3,#0xff
0019b4  d00a              BEQ      |L1.6604|
;;;2200   	{
;;;2201   	temp_ip[0]= ETH_TRAP2_IP_1;
0019b6  7021              STRB     r1,[r4,#0]
;;;2202   	temp_ip[1]= ETH_TRAP2_IP_2;
0019b8  7062              STRB     r2,[r4,#1]
;;;2203   	temp_ip[2]= ETH_TRAP2_IP_3;
0019ba  70a0              STRB     r0,[r4,#2]
;;;2204   	temp_ip[3]= ETH_TRAP2_IP_4;
0019bc  70e3              STRB     r3,[r4,#3]
;;;2205   	snmp_trap (temp_ip, 6, 3, obj);
0019be  4883              LDR      r0,|L1.7116|
0019c0  4b84              LDR      r3,|L1.7124|
0019c2  2203              MOVS     r2,#3
0019c4  2106              MOVS     r1,#6
0019c6  30e8              ADDS     r0,r0,#0xe8
0019c8  f7fffffe          BL       snmp_trap
                  |L1.6604|
;;;2206   	}
;;;2207   
;;;2208   if((ETH_TRAP3_IP_1!=255)&&(ETH_TRAP3_IP_2!=255)&&(ETH_TRAP3_IP_3!=255)&&(ETH_TRAP3_IP_4!=255))
0019cc  488a              LDR      r0,|L1.7160|
0019ce  f9b01000          LDRSH    r1,[r0,#0]  ; ETH_TRAP3_IP_1
0019d2  29ff              CMP      r1,#0xff
0019d4  d019              BEQ      |L1.6666|
0019d6  4889              LDR      r0,|L1.7164|
0019d8  f9b02000          LDRSH    r2,[r0,#0]  ; ETH_TRAP3_IP_2
0019dc  2aff              CMP      r2,#0xff
0019de  d014              BEQ      |L1.6666|
0019e0  4887              LDR      r0,|L1.7168|
0019e2  f9b03000          LDRSH    r3,[r0,#0]  ; ETH_TRAP3_IP_3
0019e6  2bff              CMP      r3,#0xff
0019e8  d00f              BEQ      |L1.6666|
0019ea  4886              LDR      r0,|L1.7172|
0019ec  f9b00000          LDRSH    r0,[r0,#0]  ; ETH_TRAP3_IP_4
0019f0  28ff              CMP      r0,#0xff
0019f2  d00a              BEQ      |L1.6666|
;;;2209   	{
;;;2210   	temp_ip[0]= ETH_TRAP3_IP_1;
0019f4  7021              STRB     r1,[r4,#0]
;;;2211   	temp_ip[1]= ETH_TRAP3_IP_2;
0019f6  7062              STRB     r2,[r4,#1]
;;;2212   	temp_ip[2]= ETH_TRAP3_IP_3;
0019f8  70a3              STRB     r3,[r4,#2]
;;;2213   	temp_ip[3]= ETH_TRAP3_IP_4;
0019fa  70e0              STRB     r0,[r4,#3]
;;;2214   	snmp_trap (temp_ip, 6, 3, obj);
0019fc  4873              LDR      r0,|L1.7116|
0019fe  4b75              LDR      r3,|L1.7124|
001a00  2203              MOVS     r2,#3
001a02  2106              MOVS     r1,#6
001a04  30e8              ADDS     r0,r0,#0xe8
001a06  f7fffffe          BL       snmp_trap
                  |L1.6666|
;;;2215   	}
;;;2216   
;;;2217   if((ETH_TRAP4_IP_1!=255)&&(ETH_TRAP4_IP_2!=255)&&(ETH_TRAP4_IP_3!=255)&&(ETH_TRAP4_IP_4!=255))
001a0a  487f              LDR      r0,|L1.7176|
001a0c  f9b03000          LDRSH    r3,[r0,#0]  ; ETH_TRAP4_IP_1
001a10  2bff              CMP      r3,#0xff
001a12  d019              BEQ      |L1.6728|
001a14  487d              LDR      r0,|L1.7180|
001a16  f9b00000          LDRSH    r0,[r0,#0]  ; ETH_TRAP4_IP_2
001a1a  28ff              CMP      r0,#0xff
001a1c  d014              BEQ      |L1.6728|
001a1e  497c              LDR      r1,|L1.7184|
001a20  f9b11000          LDRSH    r1,[r1,#0]  ; ETH_TRAP4_IP_3
001a24  29ff              CMP      r1,#0xff
001a26  d00f              BEQ      |L1.6728|
001a28  4a7a              LDR      r2,|L1.7188|
001a2a  f9b22000          LDRSH    r2,[r2,#0]  ; ETH_TRAP4_IP_4
001a2e  2aff              CMP      r2,#0xff
001a30  d00a              BEQ      |L1.6728|
;;;2218   	{
;;;2219   	temp_ip[0]= ETH_TRAP4_IP_1;
001a32  7023              STRB     r3,[r4,#0]
;;;2220   	temp_ip[1]= ETH_TRAP4_IP_2;
001a34  7060              STRB     r0,[r4,#1]
;;;2221   	temp_ip[2]= ETH_TRAP4_IP_3;
001a36  70a1              STRB     r1,[r4,#2]
;;;2222   	temp_ip[3]= ETH_TRAP4_IP_4;
001a38  70e2              STRB     r2,[r4,#3]
;;;2223   	snmp_trap (temp_ip, 6, 3, obj);
001a3a  4864              LDR      r0,|L1.7116|
001a3c  4b65              LDR      r3,|L1.7124|
001a3e  2203              MOVS     r2,#3
001a40  2106              MOVS     r1,#6
001a42  30e8              ADDS     r0,r0,#0xe8
001a44  f7fffffe          BL       snmp_trap
                  |L1.6728|
;;;2224   	}
;;;2225   
;;;2226   if((ETH_TRAP5_IP_1!=255)&&(ETH_TRAP5_IP_2!=255)&&(ETH_TRAP5_IP_3!=255)&&(ETH_TRAP5_IP_4!=255))
001a48  4873              LDR      r0,|L1.7192|
001a4a  f9b02000          LDRSH    r2,[r0,#0]  ; ETH_TRAP5_IP_1
001a4e  2aff              CMP      r2,#0xff
001a50  d01b              BEQ      |L1.6794|
001a52  4872              LDR      r0,|L1.7196|
001a54  f9b01000          LDRSH    r1,[r0,#0]  ; ETH_TRAP5_IP_2
001a58  29ff              CMP      r1,#0xff
001a5a  d016              BEQ      |L1.6794|
001a5c  4870              LDR      r0,|L1.7200|
001a5e  f9b00000          LDRSH    r0,[r0,#0]  ; ETH_TRAP5_IP_3
001a62  28ff              CMP      r0,#0xff
001a64  d011              BEQ      |L1.6794|
001a66  4b6f              LDR      r3,|L1.7204|
001a68  f9b33000          LDRSH    r3,[r3,#0]  ; ETH_TRAP5_IP_4
001a6c  2bff              CMP      r3,#0xff
001a6e  d00c              BEQ      |L1.6794|
;;;2227   	{
;;;2228   	temp_ip[0]= ETH_TRAP5_IP_1;
001a70  7022              STRB     r2,[r4,#0]
;;;2229   	temp_ip[1]= ETH_TRAP5_IP_2;
001a72  7061              STRB     r1,[r4,#1]
;;;2230   	temp_ip[2]= ETH_TRAP5_IP_3;
001a74  70a0              STRB     r0,[r4,#2]
;;;2231   	temp_ip[3]= ETH_TRAP5_IP_4;
001a76  70e3              STRB     r3,[r4,#3]
;;;2232   	snmp_trap (temp_ip, 6, 3, obj);
001a78  e8bd41f0          POP      {r4-r8,lr}
001a7c  4853              LDR      r0,|L1.7116|
001a7e  2203              MOVS     r2,#3
001a80  2106              MOVS     r1,#6
001a82  4b54              LDR      r3,|L1.7124|
001a84  30e8              ADDS     r0,r0,#0xe8
001a86  f7ffbffe          B.W      snmp_trap
                  |L1.6794|
;;;2233   	}			
;;;2234   }
001a8a  e695              B        |L1.6072|
;;;2235   
                          ENDP

                  snmp_warm_sign_write PROC
;;;2310   //-----------------------------------------------
;;;2311   void snmp_warm_sign_write(int mode)
001a8c  2801              CMP      r0,#1
;;;2312   {
;;;2313   if(mode==MIB_WRITE)
001a8e  d10b              BNE      |L1.6824|
;;;2314   	{
;;;2315        if(snmp_warm_sign==1)lc640_write_int(EE_TELECORE2017_KLIMAT_WARM_SIGNAL,1);
001a90  484e              LDR      r0,|L1.7116|
001a92  7801              LDRB     r1,[r0,#0]  ; snmp_warm_sign
001a94  f44f7082          MOV      r0,#0x104
001a98  2901              CMP      r1,#1
001a9a  d002              BEQ      |L1.6818|
;;;2316   	 else lc640_write_int(EE_TELECORE2017_KLIMAT_WARM_SIGNAL,0);
001a9c  2100              MOVS     r1,#0
001a9e  f7ffbffe          B.W      lc640_write_int
                  |L1.6818|
001aa2  2101              MOVS     r1,#1                 ;2315
001aa4  f7ffbffe          B.W      lc640_write_int
                  |L1.6824|
;;;2317   	}
;;;2318   }
001aa8  4770              BX       lr
;;;2319   
                          ENDP

                  snmp_cool_sign_write PROC
;;;2320   //-----------------------------------------------
;;;2321   void snmp_cool_sign_write(int mode)
001aaa  2801              CMP      r0,#1
;;;2322   {
;;;2323   if(mode==MIB_WRITE)
001aac  d10b              BNE      |L1.6854|
;;;2324   	{
;;;2325       if(snmp_cool_sign==1)lc640_write_int(EE_TELECORE2017_KLIMAT_VENT_SIGNAL,1);
001aae  4847              LDR      r0,|L1.7116|
001ab0  7841              LDRB     r1,[r0,#1]  ; snmp_cool_sign
001ab2  f44f708a          MOV      r0,#0x114
001ab6  2901              CMP      r1,#1
001ab8  d002              BEQ      |L1.6848|
;;;2326   	else lc640_write_int(EE_TELECORE2017_KLIMAT_VENT_SIGNAL,0);
001aba  2100              MOVS     r1,#0
001abc  f7ffbffe          B.W      lc640_write_int
                  |L1.6848|
001ac0  2101              MOVS     r1,#1                 ;2325
001ac2  f7ffbffe          B.W      lc640_write_int
                  |L1.6854|
;;;2327   	}
;;;2328   }
001ac6  4770              BX       lr
;;;2329   
                          ENDP

                  snmp_warm_on_temper_write PROC
;;;2330   //-----------------------------------------------
;;;2331   void snmp_warm_on_temper_write(int mode)
001ac8  2801              CMP      r0,#1
;;;2332   {
;;;2333   if(mode==MIB_WRITE)
001aca  d106              BNE      |L1.6874|
;;;2334   	{
;;;2335        lc640_write_int(EE_TELECORE2017_KLIMAT_WARM_ON,snmp_warm_on_temper);
001acc  483f              LDR      r0,|L1.7116|
001ace  f9901002          LDRSB    r1,[r0,#2]  ; snmp_warm_on_temper
001ad2  f44f7083          MOV      r0,#0x106
001ad6  f7ffbffe          B.W      lc640_write_int
                  |L1.6874|
;;;2336   	}
;;;2337   }
001ada  4770              BX       lr
;;;2338   
                          ENDP

                  snmp_warm_off_temper_write PROC
;;;2339   //-----------------------------------------------
;;;2340   void snmp_warm_off_temper_write(int mode)
001adc  2801              CMP      r0,#1
;;;2341   {
;;;2342   if(mode==MIB_WRITE)
001ade  d106              BNE      |L1.6894|
;;;2343   	{
;;;2344        lc640_write_int(EE_TELECORE2017_KLIMAT_WARM_OFF,snmp_warm_off_temper);
001ae0  483a              LDR      r0,|L1.7116|
001ae2  f9901003          LDRSB    r1,[r0,#3]  ; snmp_warm_off_temper
001ae6  f44f7084          MOV      r0,#0x108
001aea  f7ffbffe          B.W      lc640_write_int
                  |L1.6894|
;;;2345   	}
;;;2346   }
001aee  4770              BX       lr
;;;2347   
                          ENDP

                  snmp_warm_q_write PROC
;;;2348   //-----------------------------------------------
;;;2349   void snmp_warm_q_write(int mode)
001af0  2801              CMP      r0,#1
;;;2350   {
;;;2351   if(mode==MIB_WRITE)
001af2  d106              BNE      |L1.6914|
;;;2352   	{
;;;2353        lc640_write_int(EE_TELECORE2017_KLIMAT_CAP,snmp_warm_q);
001af4  4835              LDR      r0,|L1.7116|
001af6  f9901004          LDRSB    r1,[r0,#4]  ; snmp_warm_q
001afa  f44f7085          MOV      r0,#0x10a
001afe  f7ffbffe          B.W      lc640_write_int
                  |L1.6914|
;;;2354   	}
;;;2355   }
001b02  4770              BX       lr
;;;2356   
                          ENDP

                  snmp_cool_100_temper_write PROC
;;;2357   //-----------------------------------------------
;;;2358   void snmp_cool_100_temper_write(int mode)
001b04  2801              CMP      r0,#1
;;;2359   {
;;;2360   if(mode==MIB_WRITE)
001b06  d106              BNE      |L1.6934|
;;;2361   	{
;;;2362        lc640_write_int(EE_TELECORE2017_KLIMAT_VENT_ON100,snmp_cool_100_temper);
001b08  4830              LDR      r0,|L1.7116|
001b0a  f9901005          LDRSB    r1,[r0,#5]  ; snmp_cool_100_temper
001b0e  f44f70a3          MOV      r0,#0x146
001b12  f7ffbffe          B.W      lc640_write_int
                  |L1.6934|
;;;2363   	}
;;;2364   }
001b16  4770              BX       lr
;;;2365   
                          ENDP

                  snmp_cool_80_temper_write PROC
;;;2366   //-----------------------------------------------
;;;2367   void snmp_cool_80_temper_write(int mode)
001b18  2801              CMP      r0,#1
;;;2368   {
;;;2369   if(mode==MIB_WRITE)
001b1a  d106              BNE      |L1.6954|
;;;2370   	{
;;;2371        lc640_write_int(EE_TELECORE2017_KLIMAT_VENT_ON80,snmp_cool_80_temper);
001b1c  482b              LDR      r0,|L1.7116|
001b1e  f9901006          LDRSB    r1,[r0,#6]  ; snmp_cool_80_temper
001b22  f44f70a2          MOV      r0,#0x144
001b26  f7ffbffe          B.W      lc640_write_int
                  |L1.6954|
;;;2372   	}
;;;2373   }
001b2a  4770              BX       lr
;;;2374   
                          ENDP

                  snmp_cool_60_temper_write PROC
;;;2375   //-----------------------------------------------
;;;2376   void snmp_cool_60_temper_write(int mode)
001b2c  2801              CMP      r0,#1
;;;2377   {
;;;2378   if(mode==MIB_WRITE)
001b2e  d106              BNE      |L1.6974|
;;;2379   	{
;;;2380        lc640_write_int(EE_TELECORE2017_KLIMAT_VENT_ON60,snmp_cool_60_temper);
001b30  4826              LDR      r0,|L1.7116|
001b32  f9901007          LDRSB    r1,[r0,#7]  ; snmp_cool_60_temper
001b36  f44f70a1          MOV      r0,#0x142
001b3a  f7ffbffe          B.W      lc640_write_int
                  |L1.6974|
;;;2381   	}
;;;2382   }
001b3e  4770              BX       lr
;;;2383   
                          ENDP

                  snmp_cool_40_temper_write PROC
;;;2384   //-----------------------------------------------
;;;2385   void snmp_cool_40_temper_write(int mode)
001b40  2801              CMP      r0,#1
;;;2386   {
;;;2387   if(mode==MIB_WRITE)
001b42  d106              BNE      |L1.6994|
;;;2388   	{
;;;2389        lc640_write_int(EE_TELECORE2017_KLIMAT_VENT_ON40,snmp_cool_40_temper);
001b44  4821              LDR      r0,|L1.7116|
001b46  f9901008          LDRSB    r1,[r0,#8]  ; snmp_cool_40_temper
001b4a  f44f70a0          MOV      r0,#0x140
001b4e  f7ffbffe          B.W      lc640_write_int
                  |L1.6994|
;;;2390   	}
;;;2391   }
001b52  4770              BX       lr
;;;2392   
                          ENDP

                  snmp_cool_20_temper_write PROC
;;;2393   //-----------------------------------------------
;;;2394   void snmp_cool_20_temper_write(int mode)
001b54  2801              CMP      r0,#1
;;;2395   {
;;;2396   if(mode==MIB_WRITE)
001b56  d106              BNE      |L1.7014|
;;;2397   	{
;;;2398        lc640_write_int(EE_TELECORE2017_KLIMAT_VENT_ON20,snmp_cool_20_temper);
001b58  481c              LDR      r0,|L1.7116|
001b5a  f9901009          LDRSB    r1,[r0,#9]  ; snmp_cool_20_temper
001b5e  f44f709f          MOV      r0,#0x13e
001b62  f7ffbffe          B.W      lc640_write_int
                  |L1.7014|
;;;2399   	}
;;;2400   }
001b66  4770              BX       lr
;;;2401   
                          ENDP

                  snmp_cool_100_dtemper_write PROC
;;;2402   //-----------------------------------------------
;;;2403   void snmp_cool_100_dtemper_write(int mode)
001b68  2801              CMP      r0,#1
;;;2404   {
;;;2405   if(mode==MIB_WRITE)
001b6a  d106              BNE      |L1.7034|
;;;2406   	{
;;;2407        lc640_write_int(EE_TELECORE2017_KLIMAT_DVENT_ON100,snmp_cool_100_dtemper);
001b6c  4817              LDR      r0,|L1.7116|
001b6e  f990100a          LDRSB    r1,[r0,#0xa]  ; snmp_cool_100_dtemper
001b72  f44f70a9          MOV      r0,#0x152
001b76  f7ffbffe          B.W      lc640_write_int
                  |L1.7034|
;;;2408   	}
;;;2409   }
001b7a  4770              BX       lr
;;;2410   
                          ENDP

                  snmp_cool_80_dtemper_write PROC
;;;2411   //-----------------------------------------------
;;;2412   void snmp_cool_80_dtemper_write(int mode)
001b7c  2801              CMP      r0,#1
;;;2413   {
;;;2414   if(mode==MIB_WRITE)
001b7e  d106              BNE      |L1.7054|
;;;2415   	{
;;;2416        lc640_write_int(EE_TELECORE2017_KLIMAT_DVENT_ON80,snmp_cool_80_dtemper);
001b80  4812              LDR      r0,|L1.7116|
001b82  f990100b          LDRSB    r1,[r0,#0xb]  ; snmp_cool_80_dtemper
001b86  f44f70a8          MOV      r0,#0x150
001b8a  f7ffbffe          B.W      lc640_write_int
                  |L1.7054|
;;;2417   	}
;;;2418   }
001b8e  4770              BX       lr
;;;2419   
                          ENDP

                  snmp_cool_60_dtemper_write PROC
;;;2420   //-----------------------------------------------
;;;2421   void snmp_cool_60_dtemper_write(int mode)
001b90  2801              CMP      r0,#1
;;;2422   {
;;;2423   if(mode==MIB_WRITE)
001b92  d106              BNE      |L1.7074|
;;;2424   	{
;;;2425        lc640_write_int(EE_TELECORE2017_KLIMAT_DVENT_ON60,snmp_cool_60_dtemper);
001b94  480d              LDR      r0,|L1.7116|
001b96  f990100c          LDRSB    r1,[r0,#0xc]  ; snmp_cool_60_dtemper
001b9a  f44f70a7          MOV      r0,#0x14e
001b9e  f7ffbffe          B.W      lc640_write_int
                  |L1.7074|
;;;2426   	}
;;;2427   }
001ba2  4770              BX       lr
;;;2428   
                          ENDP

                  snmp_cool_40_dtemper_write PROC
;;;2429   //-----------------------------------------------
;;;2430   void snmp_cool_40_dtemper_write(int mode)
001ba4  2801              CMP      r0,#1
;;;2431   {
;;;2432   if(mode==MIB_WRITE)
001ba6  d106              BNE      |L1.7094|
;;;2433   	{
;;;2434        lc640_write_int(EE_TELECORE2017_KLIMAT_DVENT_ON40,snmp_cool_40_dtemper);
001ba8  4808              LDR      r0,|L1.7116|
001baa  f990100d          LDRSB    r1,[r0,#0xd]  ; snmp_cool_40_dtemper
001bae  f44f70a6          MOV      r0,#0x14c
001bb2  f7ffbffe          B.W      lc640_write_int
                  |L1.7094|
;;;2435   	}
;;;2436   }
001bb6  4770              BX       lr
;;;2437   
                          ENDP

                  snmp_cool_20_dtemper_write PROC
;;;2438   //-----------------------------------------------
;;;2439   void snmp_cool_20_dtemper_write(int mode)
001bb8  2801              CMP      r0,#1
;;;2440   {
;;;2441   if(mode==MIB_WRITE)
001bba  d106              BNE      |L1.7114|
;;;2442   	{
;;;2443        lc640_write_int(EE_TELECORE2017_KLIMAT_DVENT_ON20,snmp_cool_20_dtemper);
001bbc  4803              LDR      r0,|L1.7116|
001bbe  f990100e          LDRSB    r1,[r0,#0xe]  ; snmp_cool_20_dtemper
001bc2  f44f70a5          MOV      r0,#0x14a
001bc6  f7ffbffe          B.W      lc640_write_int
                  |L1.7114|
;;;2444   	}
;;;2445   }
001bca  4770              BX       lr
;;;2446   
                          ENDP

                  |L1.7116|
                          DCD      ||.data||
                  |L1.7120|
                          DCD      ||.bss||+0xc8
                  |L1.7124|
                          DCD      ||.bss||+0x2a6
                  |L1.7128|
                          DCD      ETH_TRAP1_IP_1
                  |L1.7132|
                          DCD      ETH_TRAP1_IP_2
                  |L1.7136|
                          DCD      ETH_TRAP1_IP_3
                  |L1.7140|
                          DCD      ETH_TRAP1_IP_4
                  |L1.7144|
                          DCD      ETH_TRAP2_IP_1
                  |L1.7148|
                          DCD      ETH_TRAP2_IP_2
                  |L1.7152|
                          DCD      ETH_TRAP2_IP_3
                  |L1.7156|
                          DCD      ETH_TRAP2_IP_4
                  |L1.7160|
                          DCD      ETH_TRAP3_IP_1
                  |L1.7164|
                          DCD      ETH_TRAP3_IP_2
                  |L1.7168|
                          DCD      ETH_TRAP3_IP_3
                  |L1.7172|
                          DCD      ETH_TRAP3_IP_4
                  |L1.7176|
                          DCD      ETH_TRAP4_IP_1
                  |L1.7180|
                          DCD      ETH_TRAP4_IP_2
                  |L1.7184|
                          DCD      ETH_TRAP4_IP_3
                  |L1.7188|
                          DCD      ETH_TRAP4_IP_4
                  |L1.7192|
                          DCD      ETH_TRAP5_IP_1
                  |L1.7196|
                          DCD      ETH_TRAP5_IP_2
                  |L1.7200|
                          DCD      ETH_TRAP5_IP_3
                  |L1.7204|
                          DCD      ETH_TRAP5_IP_4

                          AREA ||area_number.2||, CODE, READONLY, ALIGN=2

                          EXPORTAS ||area_number.2||, ||.text||
                  snmp_sernum_write PROC
;;;970    //-----------------------------------------------
;;;971    void snmp_sernum_write (int mode) 
000000  b510              PUSH     {r4,lr}
;;;972    {
;;;973    if(mode==MIB_WRITE)
000002  2801              CMP      r0,#1
000004  d10c              BNE      |L2.32|
;;;974    	{
;;;975    	lc640_write_long(EE_AUSW_MAIN_NUMBER,snmp_sernum);
000006  4c07              LDR      r4,|L2.36|
000008  f44f70ab          MOV      r0,#0x156
00000c  6b21              LDR      r1,[r4,#0x30]  ; snmp_sernum
00000e  f7fffffe          BL       lc640_write_long
;;;976    	lc640_write_long(EE_AUSW_UKU_NUMBER,snmp_sernum);
000012  6b21              LDR      r1,[r4,#0x30]  ; snmp_sernum
000014  e8bd4010          POP      {r4,lr}
000018  f44f70ac          MOV      r0,#0x158
00001c  f7ffbffe          B.W      lc640_write_long
                  |L2.32|
;;;977    	}
;;;978    }
000020  bd10              POP      {r4,pc}
;;;979    
                          ENDP

000022  0000              DCW      0x0000
                  |L2.36|
                          DCD      ||.data||+0x80

                          AREA ||area_number.3||, CODE, READONLY, ALIGN=2

                          EXPORTAS ||area_number.3||, ||.text||
                  snmp_alarm_aktiv_write3 PROC
;;;970    //-----------------------------------------------
;;;971    void snmp_sernum_write (int mode) 
000000  2801              CMP      r0,#1
;;;972    {
;;;973    if(mode==MIB_WRITE)
000002  d10e              BNE      |L3.34|
000004  4807              LDR      r0,|L3.36|
;;;974    	{
;;;975    	lc640_write_long(EE_AUSW_MAIN_NUMBER,snmp_sernum);
000006  7881              LDRB     r1,[r0,#2]  ; snmp_sk_alarm_aktiv
000008  4807              LDR      r0,|L3.40|
00000a  b121              CBZ      r1,|L3.22|
00000c  f9b00004          LDRSH    r0,[r0,#4]  ; ADR_SK_SIGN
000010  2100              MOVS     r1,#0
;;;976    	lc640_write_long(EE_AUSW_UKU_NUMBER,snmp_sernum);
000012  f7ffbffe          B.W      lc640_write_int
                  |L3.22|
000016  f9b00004          LDRSH    r0,[r0,#4]  ; ADR_SK_SIGN
00001a  f04f31ff          MOV      r1,#0xffffffff
00001e  f7ffbffe          B.W      lc640_write_int
                  |L3.34|
;;;977    	}
;;;978    }
000022  4770              BX       lr
;;;979    
                          ENDP

                  |L3.36|
                          DCD      ||.data||+0xe0
                  |L3.40|
                          DCD      ADR_SK_SIGN

                          AREA ||area_number.4||, CODE, READONLY, ALIGN=2

                          EXPORTAS ||area_number.4||, ||.text||
                  snmp_alarm_aktiv_write4 PROC
;;;970    //-----------------------------------------------
;;;971    void snmp_sernum_write (int mode) 
000000  2801              CMP      r0,#1
;;;972    {
;;;973    if(mode==MIB_WRITE)
000002  d10e              BNE      |L4.34|
000004  4807              LDR      r0,|L4.36|
;;;974    	{
;;;975    	lc640_write_long(EE_AUSW_MAIN_NUMBER,snmp_sernum);
000006  78c1              LDRB     r1,[r0,#3]  ; snmp_sk_alarm_aktiv
000008  4807              LDR      r0,|L4.40|
00000a  b121              CBZ      r1,|L4.22|
00000c  f9b00006          LDRSH    r0,[r0,#6]  ; ADR_SK_SIGN
000010  2100              MOVS     r1,#0
;;;976    	lc640_write_long(EE_AUSW_UKU_NUMBER,snmp_sernum);
000012  f7ffbffe          B.W      lc640_write_int
                  |L4.22|
000016  f9b00006          LDRSH    r0,[r0,#6]  ; ADR_SK_SIGN
00001a  f04f31ff          MOV      r1,#0xffffffff
00001e  f7ffbffe          B.W      lc640_write_int
                  |L4.34|
;;;977    	}
;;;978    }
000022  4770              BX       lr
;;;979    
                          ENDP

                  |L4.36|
                          DCD      ||.data||+0xe0
                  |L4.40|
                          DCD      ADR_SK_SIGN

                          AREA ||area_number.5||, CODE, READONLY, ALIGN=1

                          EXPORTAS ||area_number.5||, ||.text||
                  snmp_main_bps_write PROC
;;;970    //-----------------------------------------------
;;;971    void snmp_sernum_write (int mode) 
000000  4770              BX       lr
;;;972    {
;;;973    if(mode==MIB_WRITE)
;;;974    	{
;;;975    	lc640_write_long(EE_AUSW_MAIN_NUMBER,snmp_sernum);
;;;976    	lc640_write_long(EE_AUSW_UKU_NUMBER,snmp_sernum);
;;;977    	}
;;;978    }
;;;979    
                          ENDP


                          AREA ||area_number.6||, CODE, READONLY, ALIGN=1

                          EXPORTAS ||area_number.6||, ||.text||
                  snmp_max_current_koef_write PROC
;;;970    //-----------------------------------------------
;;;971    void snmp_sernum_write (int mode) 
000000  4770              BX       lr
;;;972    {
;;;973    if(mode==MIB_WRITE)
;;;974    	{
;;;975    	lc640_write_long(EE_AUSW_MAIN_NUMBER,snmp_sernum);
;;;976    	lc640_write_long(EE_AUSW_UKU_NUMBER,snmp_sernum);
;;;977    	}
;;;978    }
;;;979    
                          ENDP


                          AREA ||area_number.7||, CODE, READONLY, ALIGN=1

                          EXPORTAS ||area_number.7||, ||.text||
                  snmp_up_charge_koef_write PROC
;;;970    //-----------------------------------------------
;;;971    void snmp_sernum_write (int mode) 
000000  4770              BX       lr
;;;972    {
;;;973    if(mode==MIB_WRITE)
;;;974    	{
;;;975    	lc640_write_long(EE_AUSW_MAIN_NUMBER,snmp_sernum);
;;;976    	lc640_write_long(EE_AUSW_UKU_NUMBER,snmp_sernum);
;;;977    	}
;;;978    }
;;;979    
                          ENDP


                          AREA ||area_number.8||, CODE, READONLY, ALIGN=2

                          EXPORTAS ||area_number.8||, ||.text||
                  snmp_max_temperature_write PROC
;;;970    //-----------------------------------------------
;;;971    void snmp_sernum_write (int mode) 
000000  2801              CMP      r0,#1
;;;972    {
;;;973    if(mode==MIB_WRITE)
000002  d105              BNE      |L8.16|
000004  4803              LDR      r0,|L8.20|
;;;974    	{
;;;975    	lc640_write_long(EE_AUSW_MAIN_NUMBER,snmp_sernum);
000006  f9b0106c          LDRSH    r1,[r0,#0x6c]  ; snmp_max_temperature
00000a  207e              MOVS     r0,#0x7e
00000c  f7ffbffe          B.W      lc640_write_int
                  |L8.16|
000010  4770              BX       lr
;;;976    	lc640_write_long(EE_AUSW_UKU_NUMBER,snmp_sernum);
;;;977    	}
;;;978    }
;;;979    
                          ENDP

000012  0000              DCW      0x0000
                  |L8.20|
                          DCD      ||.data||

                          AREA ||area_number.9||, CODE, READONLY, ALIGN=2

                          EXPORTAS ||area_number.9||, ||.text||
                  snmp_klimat_settings_box_alarm_write PROC
;;;970    //-----------------------------------------------
;;;971    void snmp_sernum_write (int mode) 
000000  2801              CMP      r0,#1
;;;972    {
;;;973    if(mode==MIB_WRITE)
000002  d105              BNE      |L9.16|
000004  4803              LDR      r0,|L9.20|
;;;974    	{
;;;975    	lc640_write_long(EE_AUSW_MAIN_NUMBER,snmp_sernum);
000006  f9b0107c          LDRSH    r1,[r0,#0x7c]  ; snmp_klimat_settings_box_alarm
00000a  20d0              MOVS     r0,#0xd0
00000c  f7ffbffe          B.W      lc640_write_int
                  |L9.16|
000010  4770              BX       lr
;;;976    	lc640_write_long(EE_AUSW_UKU_NUMBER,snmp_sernum);
;;;977    	}
;;;978    }
;;;979    
                          ENDP

000012  0000              DCW      0x0000
                  |L9.20|
                          DCD      ||.data||

                          AREA ||area_number.10||, CODE, READONLY, ALIGN=2

                          EXPORTAS ||area_number.10||, ||.text||
                  snmp_klimat_settings_vent_on_write PROC
;;;970    //-----------------------------------------------
;;;971    void snmp_sernum_write (int mode) 
000000  2801              CMP      r0,#1
;;;972    {
;;;973    if(mode==MIB_WRITE)
000002  d105              BNE      |L10.16|
000004  4803              LDR      r0,|L10.20|
;;;974    	{
;;;975    	lc640_write_long(EE_AUSW_MAIN_NUMBER,snmp_sernum);
000006  f9b0107e          LDRSH    r1,[r0,#0x7e]  ; snmp_klimat_settings_vent_on
00000a  20f4              MOVS     r0,#0xf4
00000c  f7ffbffe          B.W      lc640_write_int
                  |L10.16|
000010  4770              BX       lr
;;;976    	lc640_write_long(EE_AUSW_UKU_NUMBER,snmp_sernum);
;;;977    	}
;;;978    }
;;;979    
                          ENDP

000012  0000              DCW      0x0000
                  |L10.20|
                          DCD      ||.data||

                          AREA ||area_number.11||, CODE, READONLY, ALIGN=2

                          EXPORTAS ||area_number.11||, ||.text||
                  snmp_klimat_settings_vent_off_write PROC
;;;970    //-----------------------------------------------
;;;971    void snmp_sernum_write (int mode) 
000000  2801              CMP      r0,#1
;;;972    {
;;;973    if(mode==MIB_WRITE)
000002  d105              BNE      |L11.16|
000004  4803              LDR      r0,|L11.20|
;;;974    	{
;;;975    	lc640_write_long(EE_AUSW_MAIN_NUMBER,snmp_sernum);
000006  f9b01000          LDRSH    r1,[r0,#0]  ; snmp_klimat_settings_vent_off
00000a  20f6              MOVS     r0,#0xf6
00000c  f7ffbffe          B.W      lc640_write_int
                  |L11.16|
000010  4770              BX       lr
;;;976    	lc640_write_long(EE_AUSW_UKU_NUMBER,snmp_sernum);
;;;977    	}
;;;978    }
;;;979    
                          ENDP

000012  0000              DCW      0x0000
                  |L11.20|
                          DCD      ||.data||+0x80

                          AREA ||area_number.12||, CODE, READONLY, ALIGN=2

                          EXPORTAS ||area_number.12||, ||.text||
                  snmp_klimat_settings_warm_on_write PROC
;;;970    //-----------------------------------------------
;;;971    void snmp_sernum_write (int mode) 
000000  2801              CMP      r0,#1
;;;972    {
;;;973    if(mode==MIB_WRITE)
000002  d105              BNE      |L12.16|
000004  4803              LDR      r0,|L12.20|
;;;974    	{
;;;975    	lc640_write_long(EE_AUSW_MAIN_NUMBER,snmp_sernum);
000006  f9b01002          LDRSH    r1,[r0,#2]  ; snmp_klimat_settings_warm_on
00000a  20f8              MOVS     r0,#0xf8
00000c  f7ffbffe          B.W      lc640_write_int
                  |L12.16|
000010  4770              BX       lr
;;;976    	lc640_write_long(EE_AUSW_UKU_NUMBER,snmp_sernum);
;;;977    	}
;;;978    }
;;;979    
                          ENDP

000012  0000              DCW      0x0000
                  |L12.20|
                          DCD      ||.data||+0x80

                          AREA ||area_number.13||, CODE, READONLY, ALIGN=2

                          EXPORTAS ||area_number.13||, ||.text||
                  snmp_klimat_settings_warm_off_write PROC
;;;970    //-----------------------------------------------
;;;971    void snmp_sernum_write (int mode) 
000000  2801              CMP      r0,#1
;;;972    {
;;;973    if(mode==MIB_WRITE)
000002  d105              BNE      |L13.16|
000004  4803              LDR      r0,|L13.20|
;;;974    	{
;;;975    	lc640_write_long(EE_AUSW_MAIN_NUMBER,snmp_sernum);
000006  f9b01004          LDRSH    r1,[r0,#4]  ; snmp_klimat_settings_warm_off
00000a  20fa              MOVS     r0,#0xfa
00000c  f7ffbffe          B.W      lc640_write_int
                  |L13.16|
000010  4770              BX       lr
;;;976    	lc640_write_long(EE_AUSW_UKU_NUMBER,snmp_sernum);
;;;977    	}
;;;978    }
;;;979    
                          ENDP

000012  0000              DCW      0x0000
                  |L13.20|
                          DCD      ||.data||+0x80

                          AREA ||area_number.14||, CODE, READONLY, ALIGN=2

                          EXPORTAS ||area_number.14||, ||.text||
                  snmp_klimat_settings_load_on_write PROC
;;;970    //-----------------------------------------------
;;;971    void snmp_sernum_write (int mode) 
000000  2801              CMP      r0,#1
;;;972    {
;;;973    if(mode==MIB_WRITE)
000002  d105              BNE      |L14.16|
000004  4803              LDR      r0,|L14.20|
;;;974    	{
;;;975    	lc640_write_long(EE_AUSW_MAIN_NUMBER,snmp_sernum);
000006  f9b01006          LDRSH    r1,[r0,#6]  ; snmp_klimat_settings_load_on
00000a  20d8              MOVS     r0,#0xd8
00000c  f7ffbffe          B.W      lc640_write_int
                  |L14.16|
000010  4770              BX       lr
;;;976    	lc640_write_long(EE_AUSW_UKU_NUMBER,snmp_sernum);
;;;977    	}
;;;978    }
;;;979    
                          ENDP

000012  0000              DCW      0x0000
                  |L14.20|
                          DCD      ||.data||+0x80

                          AREA ||area_number.15||, CODE, READONLY, ALIGN=2

                          EXPORTAS ||area_number.15||, ||.text||
                  snmp_klimat_settings_load_off_write PROC
;;;970    //-----------------------------------------------
;;;971    void snmp_sernum_write (int mode) 
000000  2801              CMP      r0,#1
;;;972    {
;;;973    if(mode==MIB_WRITE)
000002  d105              BNE      |L15.16|
000004  4803              LDR      r0,|L15.20|
;;;974    	{
;;;975    	lc640_write_long(EE_AUSW_MAIN_NUMBER,snmp_sernum);
000006  f9b01008          LDRSH    r1,[r0,#8]  ; snmp_klimat_settings_load_off
00000a  20d6              MOVS     r0,#0xd6
00000c  f7ffbffe          B.W      lc640_write_int
                  |L15.16|
000010  4770              BX       lr
;;;976    	lc640_write_long(EE_AUSW_UKU_NUMBER,snmp_sernum);
;;;977    	}
;;;978    }
;;;979    
                          ENDP

000012  0000              DCW      0x0000
                  |L15.20|
                          DCD      ||.data||+0x80

                          AREA ||area_number.16||, CODE, READONLY, ALIGN=2

                          EXPORTAS ||area_number.16||, ||.text||
                  snmp_klimat_settings_batt_on_write PROC
;;;970    //-----------------------------------------------
;;;971    void snmp_sernum_write (int mode) 
000000  2801              CMP      r0,#1
;;;972    {
;;;973    if(mode==MIB_WRITE)
000002  d105              BNE      |L16.16|
000004  4803              LDR      r0,|L16.20|
;;;974    	{
;;;975    	lc640_write_long(EE_AUSW_MAIN_NUMBER,snmp_sernum);
000006  f9b0100a          LDRSH    r1,[r0,#0xa]  ; snmp_klimat_settings_batt_on
00000a  20dc              MOVS     r0,#0xdc
00000c  f7ffbffe          B.W      lc640_write_int
                  |L16.16|
000010  4770              BX       lr
;;;976    	lc640_write_long(EE_AUSW_UKU_NUMBER,snmp_sernum);
;;;977    	}
;;;978    }
;;;979    
                          ENDP

000012  0000              DCW      0x0000
                  |L16.20|
                          DCD      ||.data||+0x80

                          AREA ||area_number.17||, CODE, READONLY, ALIGN=2

                          EXPORTAS ||area_number.17||, ||.text||
                  snmp_klimat_settings_batt_off_write PROC
;;;970    //-----------------------------------------------
;;;971    void snmp_sernum_write (int mode) 
000000  2801              CMP      r0,#1
;;;972    {
;;;973    if(mode==MIB_WRITE)
000002  d105              BNE      |L17.16|
000004  4803              LDR      r0,|L17.20|
;;;974    	{
;;;975    	lc640_write_long(EE_AUSW_MAIN_NUMBER,snmp_sernum);
000006  f9b0100c          LDRSH    r1,[r0,#0xc]  ; snmp_klimat_settings_batt_off
00000a  20da              MOVS     r0,#0xda
00000c  f7ffbffe          B.W      lc640_write_int
                  |L17.16|
000010  4770              BX       lr
;;;976    	lc640_write_long(EE_AUSW_UKU_NUMBER,snmp_sernum);
;;;977    	}
;;;978    }
;;;979    
                          ENDP

000012  0000              DCW      0x0000
                  |L17.20|
                          DCD      ||.data||+0x80

                          AREA ||.bss||, DATA, NOINIT, ALIGN=1

                  temp_str
                          %        20
                  snmp_location
                          %        100
                  snmp_bps_number
                          %        16
                  snmp_bps_voltage
                          %        16
                  snmp_bps_current
                          %        16
                  snmp_bps_temperature
                          %        16
                  snmp_bps_stat
                          %        16
                  snmp_spc_trap_message
                          %        100
                  snmp_avt_number
                          %        12
                  snmp_avt_stat
                          %        12
                  snmp_sk_name
                          %        80
                  snmp_lakb_number
                          %        14
                  snmp_lakb_voltage
                          %        14
                  snmp_lakb_max_cell_voltage
                          %        14
                  snmp_lakb_min_cell_voltage
                          %        14
                  snmp_lakb_max_cell_temperature
                          %        14
                  snmp_lakb_min_cell_temperature
                          %        14
                  snmp_lakb_ch_curr
                          %        14
                  snmp_lakb_dsch_curr
                          %        14
                  snmp_lakb_rat_cap
                          %        14
                  snmp_lakb_soh
                          %        14
                  snmp_lakb_soc
                          %        14
                  snmp_lakb_cclv
                          %        14
                  snmp_lakb_rbt
                          %        14
                  snmp_lakb_flags1
                          %        14
                  snmp_lakb_flags2
                          %        14
                  snmp_enmv_number
                          %        64
                  obj
                          %        20

                          AREA ||area_number.20||, DATA, NOINIT, ALIGN=0

                          EXPORTAS ||area_number.20||, ||.bss||
                  snmp_community
                          %        10

                          AREA ||area_number.21||, DATA, NOINIT, ALIGN=0

                          EXPORTAS ||area_number.21||, ||.bss||
                  snmp_lakb_damp1
                          %        450

                          AREA ||area_number.22||, DATA, NOINIT, ALIGN=0

                          EXPORTAS ||area_number.22||, ||.bss||
                  snmp_lakb_damp2
                          %        100

                          AREA ||area_number.23||, DATA, NOINIT, ALIGN=0

                          EXPORTAS ||area_number.23||, ||.bss||
                  snmp_enmv_data
                          %        64

                          AREA ||.constdata||, DATA, READONLY, ALIGN=2

000000  20202020          DCB      0x20,0x20,0x20,0x20
000004  20202020          DCB      0x20,0x20,0x20,0x20
000008  20202020          DCB      0x20,0x20,0x20,0x20
00000c  20202020          DCB      0x20,0x20,0x20,0x20
000010  20202020          DCB      0x20,0x20,0x20,0x20
000014  20202020          DCB      0x20,0x20,0x20,0x20
000018  20202020          DCB      0x20,0x20,0x20,0x20
00001c  20202020          DCB      0x20,0x20,0x20,0x20
000020  20202020          DCB      0x20,0x20,0x20,0x20
000024  20202020          DCB      0x20,0x20,0x20,0x20
000028  20202020          DCB      0x20,0x20,0x20,0x20
00002c  20202020          DCB      0x20,0x20,0x20,0x20
000030  20202020          DCB      0x20,0x20,0x20,0x20
000034  20202020          DCB      0x20,0x20,0x20,0x20
000038  20202020          DCB      0x20,0x20,0x20,0x20
00003c  20202020          DCB      0x20,0x20,0x20,0x20
000040  20202020          DCB      0x20,0x20,0x20,0x20
000044  20202020          DCB      0x20,0x20,0x20,0x20
000048  20202020          DCB      0x20,0x20,0x20,0x20
00004c  20202020          DCB      0x20,0x20,0x20,0x20
000050  00                DCB      0x00

                          AREA ||.data||, DATA, ALIGN=2

                  snmp_warm_sign
000000  00                DCB      0x00
                  snmp_cool_sign
000001  00                DCB      0x00
                  snmp_warm_on_temper
000002  00                DCB      0x00
                  snmp_warm_off_temper
000003  00                DCB      0x00
                  snmp_warm_q
000004  00                DCB      0x00
                  snmp_cool_100_temper
000005  00                DCB      0x00
                  snmp_cool_80_temper
000006  00                DCB      0x00
                  snmp_cool_60_temper
000007  00                DCB      0x00
                  snmp_cool_40_temper
000008  00                DCB      0x00
                  snmp_cool_20_temper
000009  00                DCB      0x00
                  snmp_cool_100_dtemper
00000a  00                DCB      0x00
                  snmp_cool_80_dtemper
00000b  00                DCB      0x00
                  snmp_cool_60_dtemper
00000c  00                DCB      0x00
                  snmp_cool_40_dtemper
00000d  00                DCB      0x00
                  snmp_cool_20_dtemper
00000e  00                DCB      0x00
                  snmp_trap_send_i
00000f  00                DCB      0x00
                  snmp_trap_send_ii
000010  0000              DCB      0x00,0x00
                  snmp_numofbat
000012  0000              DCB      0x00,0x00
                  snmp_numofbps
000014  0000              DCB      0x00,0x00
                  snmp_numofinv
000016  0000              DCB      0x00,0x00
                  snmp_numofavt
000018  0000              DCB      0x00,0x00
                  snmp_numofdt
00001a  0000              DCB      0x00,0x00
                  snmp_numofsk
00001c  0000              DCB      0x00,0x00
                  snmp_numofevents
00001e  0000              DCB      0x00,0x00
                  snmp_mains_power_voltage
000020  0000              DCB      0x00,0x00
                  snmp_mains_power_frequency
000022  0000              DCB      0x00,0x00
                  snmp_mains_power_status
000024  0000              DCB      0x00,0x00
                  snmp_mains_power_alarm
000026  0000              DCB      0x00,0x00
                  snmp_mains_power_voltage_phaseA
000028  0000              DCB      0x00,0x00
                  snmp_mains_power_voltage_phaseB
00002a  0000              DCB      0x00,0x00
                  snmp_mains_power_voltage_phaseC
00002c  0000              DCB      0x00,0x00
                  snmp_load_voltage
00002e  0000              DCB      0x00,0x00
                  snmp_load_current
000030  0000              DCB      0x00,0x00
                  snmp_spc_trap_value_0
000032  0000              DCB      0x00,0x00
                  snmp_spc_trap_value_1
000034  0000              DCB      0x00,0x00
                  snmp_spc_trap_value_2
000036  0000              DCB      0x00,0x00
                  snmp_energy_vvod_phase_a
000038  0000              DCB      0x00,0x00
                  snmp_energy_vvod_phase_b
00003a  0000              DCB      0x00,0x00
                  snmp_energy_vvod_phase_c
00003c  0000              DCB      0x00,0x00
                  snmp_energy_pes_phase_a
00003e  0000              DCB      0x00,0x00
                  snmp_energy_pes_phase_b
000040  0000              DCB      0x00,0x00
                  snmp_energy_pes_phase_c
000042  0000              DCB      0x00,0x00
                  snmp_energy_input_voltage
000044  0000              DCB      0x00,0x00
                  snmp_energy_current_energy
000046  0000              DCB      0x00,0x00
                  snmp_command
000048  0000              DCB      0x00,0x00
                  snmp_command_parametr
00004a  0000              DCB      0x00,0x00
                  snmp_zv_en
00004c  0000              DCB      0x00,0x00
                  snmp_alarm_auto_disable
00004e  0000              DCB      0x00,0x00
                  snmp_bat_test_time
000050  0000              DCB      0x00,0x00
                  snmp_u_max
000052  0000              DCB      0x00,0x00
                  snmp_u_min
000054  0000              DCB      0x00,0x00
                  snmp_u_0_grad
000056  0000              DCB      0x00,0x00
                  snmp_u_20_grad
000058  0000              DCB      0x00,0x00
                  snmp_u_sign
00005a  0000              DCB      0x00,0x00
                  snmp_u_min_power
00005c  0000              DCB      0x00,0x00
                  snmp_u_withouth_bat
00005e  0000              DCB      0x00,0x00
                  snmp_control_current
000060  0000              DCB      0x00,0x00
                  snmp_max_charge_current
000062  0000              DCB      0x00,0x00
                  snmp_max_current
000064  0000              DCB      0x00,0x00
                  snmp_min_current
000066  0000              DCB      0x00,0x00
                  snmp_uvz
000068  0000              DCB      0x00,0x00
                  snmp_powerup_psu_timeout
00006a  0000              DCB      0x00,0x00
                  snmp_max_temperature
00006c  0000              DCB      0x00,0x00
                  snmp_tsign_bat
00006e  0000              DCB      0x00,0x00
                  snmp_tmax_bat
000070  0000              DCB      0x00,0x00
                  snmp_tsign_bps
000072  0000              DCB      0x00,0x00
                  snmp_tmax_bps
000074  0000              DCB      0x00,0x00
                  snmp_bat_part_alarm
000076  0000              DCB      0x00,0x00
                  snmp_power_cnt_adress
000078  0000              DCB      0x00,0x00
                  snmp_klimat_box_temper
00007a  0000              DCB      0x00,0x00
                  snmp_klimat_settings_box_alarm
00007c  0000              DCB      0x00,0x00
                  snmp_klimat_settings_vent_on
00007e  0000              DCB      0x00,0x00
                  snmp_klimat_settings_vent_off
000080  0000              DCB      0x00,0x00
                  snmp_klimat_settings_warm_on
000082  0000              DCB      0x00,0x00
                  snmp_klimat_settings_warm_off
000084  0000              DCB      0x00,0x00
                  snmp_klimat_settings_load_on
000086  0000              DCB      0x00,0x00
                  snmp_klimat_settings_load_off
000088  0000              DCB      0x00,0x00
                  snmp_klimat_settings_batt_on
00008a  0000              DCB      0x00,0x00
                  snmp_klimat_settings_batt_off
00008c  0000              DCB      0x00,0x00
                  snmp_dt_ext
00008e  0000              DCB      0x00,0x00
                  snmp_dt_msan
000090  0000              DCB      0x00,0x00
                  snmp_dt_epu
000092  0000              DCB      0x00,0x00
                  snmp_dt_number
000094  000000            DCB      0x00,0x00,0x00
                  snmp_dt_error
000097  00                DCB      0x00
000098  0000              DCB      0x00,0x00
                  snmp_lakb_cell_temperature_1
00009a  0000              DCB      0x00,0x00
00009c  00                DCB      0x00
                  snmp_lakb_cell_temperature_2
00009d  000000            DCB      0x00,0x00,0x00
                  snmp_lakb_cell_temperature_3
0000a0  000000            DCB      0x00,0x00,0x00
                  snmp_lakb_cell_temperature_4
0000a3  00                DCB      0x00
0000a4  0000              DCB      0x00,0x00
                  snmp_lakb_cell_temperature_ambient
0000a6  0000              DCB      0x00,0x00
0000a8  00                DCB      0x00
                  snmp_lakb_cell_temperature_power
0000a9  000000            DCB      0x00,0x00,0x00
                  snmp_device_code
                          DCD      0x00000000
                  snmp_sernum
                          DCD      0x00000000
                  snmp_bat_number
                          DCD      0x00000000
                  snmp_bat_voltage
                          DCD      0x00000000
                  snmp_bat_current
                          DCD      0x00000000
                  snmp_bat_temperature
                          DCD      0x00000000
                  snmp_bat_capacity
                          DCD      0x00000000
                  snmp_bat_charge
                          DCD      0x00000000
                  snmp_bat_status
                          DCD      0x00000000
                  snmp_bat_rem_time
                          DCD      0x00000000
                  snmp_energy_total_energy
                          DCD      0x00000000
                  snmp_sk_number
                          DCD      0x00000000
                  snmp_sk_aktiv
                          DCD      0x00000000
                  snmp_sk_alarm_aktiv
                          DCD      0x00000000
                  snmp_sk_alarm
                          DCD      0x00000000
                  temp_ip
                          DCD      0x00000000
                  snmp_inv_number
                          DCD      0x00000000
0000f0  0000              DCB      0x00,0x00
                  snmp_inv_voltage
0000f2  0000              DCB      0x00,0x00
                          DCD      0x00000000
                  snmp_inv_current
                          DCD      0x00000000
0000fc  0000              DCB      0x00,0x00
                  snmp_inv_temperature
0000fe  0000              DCB      0x00,0x00
                          DCD      0x00000000
                  snmp_inv_stat
                          DCD      0x00000000
000108  0000              DCB      0x00,0x00
                  snmp_dt_temper
00010a  0000              DCB      0x00,0x00
                          DCD      0x00000000
                  snmp_makb_connect_status
                          %        8
                  snmp_makb_voltage0
                          %        8
                  snmp_makb_voltage1
                          %        8
                  snmp_makb_voltage2
                          %        8
                  snmp_makb_voltage3
                          %        8
                  snmp_makb_voltage4
                          %        8
                  snmp_makb_temper0
                          %        8
                  snmp_makb_temper1
                          %        8
                  snmp_makb_temper2
                          %        8
                  snmp_makb_temper3
                          %        8
                  snmp_makb_temper4
                          %        8
                  snmp_makb_temper0_stat
                          %        8
                  snmp_makb_temper1_stat
                          %        8
                  snmp_makb_temper2_stat
                          %        8
                  snmp_makb_temper3_stat
                          %        8
                  snmp_makb_temper4_stat
                          %        8
                  snmp_log
000190  30314061          DCB      0x30,0x31,0x40,0x61
000194  62636440          DCB      0x62,0x63,0x64,0x40
000198  65666768          DCB      0x65,0x66,0x67,0x68
00019c  40696a6b          DCB      0x40,0x69,0x6a,0x6b
0001a0  6c403031          DCB      0x6c,0x40,0x30,0x31
0001a4  40202020          DCB      0x40,0x20,0x20,0x20
0001a8  20202020          DCB      0x20,0x20,0x20,0x20
0001ac  20000000          DCB      0x20,0x00,0x00,0x00
                          %        96
000210  30324061          DCB      0x30,0x32,0x40,0x61
000214  62636440          DCB      0x62,0x63,0x64,0x40
000218  65666768          DCB      0x65,0x66,0x67,0x68
00021c  40696a6b          DCB      0x40,0x69,0x6a,0x6b
000220  6c403032          DCB      0x6c,0x40,0x30,0x32
000224  40202020          DCB      0x40,0x20,0x20,0x20
000228  20202020          DCB      0x20,0x20,0x20,0x20
00022c  20000000          DCB      0x20,0x00,0x00,0x00
                          %        96
000290  30334061          DCB      0x30,0x33,0x40,0x61
000294  62636440          DCB      0x62,0x63,0x64,0x40
000298  65666768          DCB      0x65,0x66,0x67,0x68
00029c  40696a6b          DCB      0x40,0x69,0x6a,0x6b
0002a0  6c403033          DCB      0x6c,0x40,0x30,0x33
0002a4  40202020          DCB      0x40,0x20,0x20,0x20
0002a8  20202020          DCB      0x20,0x20,0x20,0x20
0002ac  20000000          DCB      0x20,0x00,0x00,0x00
                          %        96
000310  30344061          DCB      0x30,0x34,0x40,0x61
000314  62636440          DCB      0x62,0x63,0x64,0x40
000318  65666768          DCB      0x65,0x66,0x67,0x68
00031c  40696a6b          DCB      0x40,0x69,0x6a,0x6b
000320  6c403034          DCB      0x6c,0x40,0x30,0x34
000324  40202020          DCB      0x40,0x20,0x20,0x20
000328  20202020          DCB      0x20,0x20,0x20,0x20
00032c  20000000          DCB      0x20,0x00,0x00,0x00
                          %        96
000390  30354061          DCB      0x30,0x35,0x40,0x61
000394  62636440          DCB      0x62,0x63,0x64,0x40
000398  65666768          DCB      0x65,0x66,0x67,0x68
00039c  40696a6b          DCB      0x40,0x69,0x6a,0x6b
0003a0  6c403035          DCB      0x6c,0x40,0x30,0x35
0003a4  40202020          DCB      0x40,0x20,0x20,0x20
0003a8  20202020          DCB      0x20,0x20,0x20,0x20
0003ac  20000000          DCB      0x20,0x00,0x00,0x00
                          %        96
000410  30364061          DCB      0x30,0x36,0x40,0x61
000414  62636440          DCB      0x62,0x63,0x64,0x40
000418  65666768          DCB      0x65,0x66,0x67,0x68
00041c  40696a6b          DCB      0x40,0x69,0x6a,0x6b
000420  6c403036          DCB      0x6c,0x40,0x30,0x36
000424  40202020          DCB      0x40,0x20,0x20,0x20
000428  20202020          DCB      0x20,0x20,0x20,0x20
00042c  20000000          DCB      0x20,0x00,0x00,0x00
                          %        96
000490  30374061          DCB      0x30,0x37,0x40,0x61
000494  62636440          DCB      0x62,0x63,0x64,0x40
000498  65666768          DCB      0x65,0x66,0x67,0x68
00049c  40696a6b          DCB      0x40,0x69,0x6a,0x6b
0004a0  6c403037          DCB      0x6c,0x40,0x30,0x37
0004a4  40202020          DCB      0x40,0x20,0x20,0x20
0004a8  20202020          DCB      0x20,0x20,0x20,0x20
0004ac  20000000          DCB      0x20,0x00,0x00,0x00
                          %        96
000510  30384061          DCB      0x30,0x38,0x40,0x61
000514  62636440          DCB      0x62,0x63,0x64,0x40
000518  65666768          DCB      0x65,0x66,0x67,0x68
00051c  40696a6b          DCB      0x40,0x69,0x6a,0x6b
000520  6c403038          DCB      0x6c,0x40,0x30,0x38
000524  40202020          DCB      0x40,0x20,0x20,0x20
000528  20202020          DCB      0x20,0x20,0x20,0x20
00052c  20000000          DCB      0x20,0x00,0x00,0x00
                          %        96
000590  30394061          DCB      0x30,0x39,0x40,0x61
000594  62636440          DCB      0x62,0x63,0x64,0x40
000598  65666768          DCB      0x65,0x66,0x67,0x68
00059c  40696a6b          DCB      0x40,0x69,0x6a,0x6b
0005a0  6c403039          DCB      0x6c,0x40,0x30,0x39
0005a4  40202020          DCB      0x40,0x20,0x20,0x20
0005a8  20202020          DCB      0x20,0x20,0x20,0x20
0005ac  20000000          DCB      0x20,0x00,0x00,0x00
                          %        96
000610  31304061          DCB      0x31,0x30,0x40,0x61
000614  62636440          DCB      0x62,0x63,0x64,0x40
000618  65666768          DCB      0x65,0x66,0x67,0x68
00061c  40696a6b          DCB      0x40,0x69,0x6a,0x6b
000620  6c403130          DCB      0x6c,0x40,0x31,0x30
000624  40202020          DCB      0x40,0x20,0x20,0x20
000628  20202020          DCB      0x20,0x20,0x20,0x20
00062c  20000000          DCB      0x20,0x00,0x00,0x00
                          %        96
000690  31314061          DCB      0x31,0x31,0x40,0x61
000694  62636440          DCB      0x62,0x63,0x64,0x40
000698  65666768          DCB      0x65,0x66,0x67,0x68
00069c  40696a6b          DCB      0x40,0x69,0x6a,0x6b
0006a0  6c403131          DCB      0x6c,0x40,0x31,0x31
0006a4  40202020          DCB      0x40,0x20,0x20,0x20
0006a8  20202020          DCB      0x20,0x20,0x20,0x20
0006ac  20000000          DCB      0x20,0x00,0x00,0x00
                          %        96
000710  31324061          DCB      0x31,0x32,0x40,0x61
000714  62636440          DCB      0x62,0x63,0x64,0x40
000718  65666768          DCB      0x65,0x66,0x67,0x68
00071c  40696a6b          DCB      0x40,0x69,0x6a,0x6b
000720  6c403132          DCB      0x6c,0x40,0x31,0x32
000724  40202020          DCB      0x40,0x20,0x20,0x20
000728  20202020          DCB      0x20,0x20,0x20,0x20
00072c  20000000          DCB      0x20,0x00,0x00,0x00
                          %        96
000790  31334061          DCB      0x31,0x33,0x40,0x61
000794  62636440          DCB      0x62,0x63,0x64,0x40
000798  65666768          DCB      0x65,0x66,0x67,0x68
00079c  40696a6b          DCB      0x40,0x69,0x6a,0x6b
0007a0  6c403133          DCB      0x6c,0x40,0x31,0x33
0007a4  40202020          DCB      0x40,0x20,0x20,0x20
0007a8  20202020          DCB      0x20,0x20,0x20,0x20
0007ac  20000000          DCB      0x20,0x00,0x00,0x00
                          %        96
000810  31344061          DCB      0x31,0x34,0x40,0x61
000814  62636440          DCB      0x62,0x63,0x64,0x40
000818  65666768          DCB      0x65,0x66,0x67,0x68
00081c  40696a6b          DCB      0x40,0x69,0x6a,0x6b
000820  6c403134          DCB      0x6c,0x40,0x31,0x34
000824  40202020          DCB      0x40,0x20,0x20,0x20
000828  20202020          DCB      0x20,0x20,0x20,0x20
00082c  20000000          DCB      0x20,0x00,0x00,0x00
                          %        96
000890  31354061          DCB      0x31,0x35,0x40,0x61
000894  62636440          DCB      0x62,0x63,0x64,0x40
000898  65666768          DCB      0x65,0x66,0x67,0x68
00089c  40696a6b          DCB      0x40,0x69,0x6a,0x6b
0008a0  6c403135          DCB      0x6c,0x40,0x31,0x35
0008a4  40202020          DCB      0x40,0x20,0x20,0x20
0008a8  20202020          DCB      0x20,0x20,0x20,0x20
0008ac  20000000          DCB      0x20,0x00,0x00,0x00
                          %        96
000910  31364061          DCB      0x31,0x36,0x40,0x61
000914  62636440          DCB      0x62,0x63,0x64,0x40
000918  65666768          DCB      0x65,0x66,0x67,0x68
00091c  40696a6b          DCB      0x40,0x69,0x6a,0x6b
000920  6c403136          DCB      0x6c,0x40,0x31,0x36
000924  40202020          DCB      0x40,0x20,0x20,0x20
000928  20202020          DCB      0x20,0x20,0x20,0x20
00092c  20000000          DCB      0x20,0x00,0x00,0x00
                          %        96
000990  31374061          DCB      0x31,0x37,0x40,0x61
000994  62636440          DCB      0x62,0x63,0x64,0x40
000998  65666768          DCB      0x65,0x66,0x67,0x68
00099c  40696a6b          DCB      0x40,0x69,0x6a,0x6b
0009a0  6c403137          DCB      0x6c,0x40,0x31,0x37
0009a4  40202020          DCB      0x40,0x20,0x20,0x20
0009a8  20202020          DCB      0x20,0x20,0x20,0x20
0009ac  20000000          DCB      0x20,0x00,0x00,0x00
                          %        96
000a10  31384061          DCB      0x31,0x38,0x40,0x61
000a14  62636440          DCB      0x62,0x63,0x64,0x40
000a18  65666768          DCB      0x65,0x66,0x67,0x68
000a1c  40696a6b          DCB      0x40,0x69,0x6a,0x6b
000a20  6c403138          DCB      0x6c,0x40,0x31,0x38
000a24  40202020          DCB      0x40,0x20,0x20,0x20
000a28  20202020          DCB      0x20,0x20,0x20,0x20
000a2c  20000000          DCB      0x20,0x00,0x00,0x00
                          %        96
000a90  31394061          DCB      0x31,0x39,0x40,0x61
000a94  62636440          DCB      0x62,0x63,0x64,0x40
000a98  65666768          DCB      0x65,0x66,0x67,0x68
000a9c  40696a6b          DCB      0x40,0x69,0x6a,0x6b
000aa0  6c403139          DCB      0x6c,0x40,0x31,0x39
000aa4  40202020          DCB      0x40,0x20,0x20,0x20
000aa8  20202020          DCB      0x20,0x20,0x20,0x20
000aac  20000000          DCB      0x20,0x00,0x00,0x00
                          %        96
000b10  32304061          DCB      0x32,0x30,0x40,0x61
000b14  62636440          DCB      0x62,0x63,0x64,0x40
000b18  65666768          DCB      0x65,0x66,0x67,0x68
000b1c  40696a6b          DCB      0x40,0x69,0x6a,0x6b
000b20  6c403230          DCB      0x6c,0x40,0x32,0x30
000b24  40202020          DCB      0x40,0x20,0x20,0x20
000b28  20202020          DCB      0x20,0x20,0x20,0x20
000b2c  20000000          DCB      0x20,0x00,0x00,0x00
                          %        96
000b90  32314061          DCB      0x32,0x31,0x40,0x61
000b94  62636440          DCB      0x62,0x63,0x64,0x40
000b98  65666768          DCB      0x65,0x66,0x67,0x68
000b9c  40696a6b          DCB      0x40,0x69,0x6a,0x6b
000ba0  6c403231          DCB      0x6c,0x40,0x32,0x31
000ba4  40202020          DCB      0x40,0x20,0x20,0x20
000ba8  20202020          DCB      0x20,0x20,0x20,0x20
000bac  20000000          DCB      0x20,0x00,0x00,0x00
                          %        96
000c10  32324061          DCB      0x32,0x32,0x40,0x61
000c14  62636440          DCB      0x62,0x63,0x64,0x40
000c18  65666768          DCB      0x65,0x66,0x67,0x68
000c1c  40696a6b          DCB      0x40,0x69,0x6a,0x6b
000c20  6c403232          DCB      0x6c,0x40,0x32,0x32
000c24  40202020          DCB      0x40,0x20,0x20,0x20
000c28  20202020          DCB      0x20,0x20,0x20,0x20
000c2c  20000000          DCB      0x20,0x00,0x00,0x00
                          %        96
000c90  32334061          DCB      0x32,0x33,0x40,0x61
000c94  62636440          DCB      0x62,0x63,0x64,0x40
000c98  65666768          DCB      0x65,0x66,0x67,0x68
000c9c  40696a6b          DCB      0x40,0x69,0x6a,0x6b
000ca0  6c403233          DCB      0x6c,0x40,0x32,0x33
000ca4  40202020          DCB      0x40,0x20,0x20,0x20
000ca8  20202020          DCB      0x20,0x20,0x20,0x20
000cac  20000000          DCB      0x20,0x00,0x00,0x00
                          %        96
000d10  32344061          DCB      0x32,0x34,0x40,0x61
000d14  62636440          DCB      0x62,0x63,0x64,0x40
000d18  65666768          DCB      0x65,0x66,0x67,0x68
000d1c  40696a6b          DCB      0x40,0x69,0x6a,0x6b
000d20  6c403234          DCB      0x6c,0x40,0x32,0x34
000d24  40202020          DCB      0x40,0x20,0x20,0x20
000d28  20202020          DCB      0x20,0x20,0x20,0x20
000d2c  20000000          DCB      0x20,0x00,0x00,0x00
                          %        96
000d90  32354061          DCB      0x32,0x35,0x40,0x61
000d94  62636440          DCB      0x62,0x63,0x64,0x40
000d98  65666768          DCB      0x65,0x66,0x67,0x68
000d9c  40696a6b          DCB      0x40,0x69,0x6a,0x6b
000da0  6c403235          DCB      0x6c,0x40,0x32,0x35
000da4  40202020          DCB      0x40,0x20,0x20,0x20
000da8  20202020          DCB      0x20,0x20,0x20,0x20
000dac  20000000          DCB      0x20,0x00,0x00,0x00
                          %        96
000e10  32364061          DCB      0x32,0x36,0x40,0x61
000e14  62636440          DCB      0x62,0x63,0x64,0x40
000e18  65666768          DCB      0x65,0x66,0x67,0x68
000e1c  40696a6b          DCB      0x40,0x69,0x6a,0x6b
000e20  6c403236          DCB      0x6c,0x40,0x32,0x36
000e24  40202020          DCB      0x40,0x20,0x20,0x20
000e28  20202020          DCB      0x20,0x20,0x20,0x20
000e2c  20000000          DCB      0x20,0x00,0x00,0x00
                          %        96
000e90  32374061          DCB      0x32,0x37,0x40,0x61
000e94  62636440          DCB      0x62,0x63,0x64,0x40
000e98  65666768          DCB      0x65,0x66,0x67,0x68
000e9c  40696a6b          DCB      0x40,0x69,0x6a,0x6b
000ea0  6c403237          DCB      0x6c,0x40,0x32,0x37
000ea4  40202020          DCB      0x40,0x20,0x20,0x20
000ea8  20202020          DCB      0x20,0x20,0x20,0x20
000eac  20000000          DCB      0x20,0x00,0x00,0x00
                          %        96
000f10  32384061          DCB      0x32,0x38,0x40,0x61
000f14  62636440          DCB      0x62,0x63,0x64,0x40
000f18  65666768          DCB      0x65,0x66,0x67,0x68
000f1c  40696a6b          DCB      0x40,0x69,0x6a,0x6b
000f20  6c403238          DCB      0x6c,0x40,0x32,0x38
000f24  40202020          DCB      0x40,0x20,0x20,0x20
000f28  20202020          DCB      0x20,0x20,0x20,0x20
000f2c  20000000          DCB      0x20,0x00,0x00,0x00
                          %        96
000f90  32394061          DCB      0x32,0x39,0x40,0x61
000f94  62636440          DCB      0x62,0x63,0x64,0x40
000f98  65666768          DCB      0x65,0x66,0x67,0x68
000f9c  40696a6b          DCB      0x40,0x69,0x6a,0x6b
000fa0  6c403239          DCB      0x6c,0x40,0x32,0x39
000fa4  40202020          DCB      0x40,0x20,0x20,0x20
000fa8  20202020          DCB      0x20,0x20,0x20,0x20
000fac  20000000          DCB      0x20,0x00,0x00,0x00
                          %        96
001010  33304061          DCB      0x33,0x30,0x40,0x61
001014  62636440          DCB      0x62,0x63,0x64,0x40
001018  65666768          DCB      0x65,0x66,0x67,0x68
00101c  40696a6b          DCB      0x40,0x69,0x6a,0x6b
001020  6c403330          DCB      0x6c,0x40,0x33,0x30
001024  40202020          DCB      0x40,0x20,0x20,0x20
001028  20202020          DCB      0x20,0x20,0x20,0x20
00102c  20000000          DCB      0x20,0x00,0x00,0x00
                          %        4448

                          AREA ||area_number.27||, DATA, ALIGN=0

                          EXPORTAS ||area_number.27||, ||.data||
                  snmp_web_passw
                          DCDU     0x00000000

                          AREA ||area_number.28||, DATA, ALIGN=1

                          EXPORTAS ||area_number.28||, ||.data||
                  snmp_sernum_lsb
000000  0000              DCB      0x00,0x00

                          AREA ||area_number.29||, DATA, ALIGN=1

                          EXPORTAS ||area_number.29||, ||.data||
                  snmp_sernum_msb
000000  0000              DCB      0x00,0x00

                          AREA ||area_number.30||, DATA, ALIGN=1

                          EXPORTAS ||area_number.30||, ||.data||
                  snmp_makb_number
                          %        8

                          AREA ||area_number.31||, DATA, ALIGN=1

                          EXPORTAS ||area_number.31||, ||.data||
                  snmp_bat_part_voltage
                          DCDU     0x00000000

                          AREA ||area_number.32||, DATA, ALIGN=1

                          EXPORTAS ||area_number.32||, ||.data||
                  snmp_bat_flag
                          DCDU     0x00000000

                          AREA ||area_number.33||, DATA, ALIGN=1

                          EXPORTAS ||area_number.33||, ||.data||
                  snmp_bat_flag_puts
                          DCDU     0x00000000

                          AREA ||area_number.34||, DATA, ALIGN=1

                          EXPORTAS ||area_number.34||, ||.data||
                  snmp_spc_stat
000000  0000              DCB      0x00,0x00

                          AREA ||area_number.35||, DATA, ALIGN=1

                          EXPORTAS ||area_number.35||, ||.data||
                  snmp_main_bps
000000  0000              DCB      0x00,0x00

                          AREA ||area_number.36||, DATA, ALIGN=1

                          EXPORTAS ||area_number.36||, ||.data||
                  snmp_max_current_koef
000000  0000              DCB      0x00,0x00

                          AREA ||area_number.37||, DATA, ALIGN=1

                          EXPORTAS ||area_number.37||, ||.data||
                  snmp_up_charge_koef
000000  0000              DCB      0x00,0x00

                          AREA ||area_number.38||, DATA, ALIGN=0

                          EXPORTAS ||area_number.38||, ||.data||
                  snmp_warm_stat
000000  00                DCB      0x00

                          AREA ||area_number.39||, DATA, ALIGN=0

                          EXPORTAS ||area_number.39||, ||.data||
                  enmv_on
000000  00                DCB      0x00

                          AREA ||area_number.40||, DATA, ALIGN=0

                          EXPORTAS ||area_number.40||, ||.data||
                  enmv_data_pred
                          %        8

                          AREA ||area_number.41||, DATA, ALIGN=0

                          EXPORTAS ||area_number.41||, ||.data||
                  enmv_data
                          %        8
